
 Name: ZC.H EP: 0026AC60 : Size: 00280000

 Start Length Name Class
 0001:00000000 000280000H CODE CODE


 Address Publics by Value _ RVA+Base

 0001:000015D4 System.InterlockedExchangePointer_004025D4
 0001:000015E0 System.InterlockedExchange_004025E0
 0001:000015E8 System.InterlockedAdd_004025E8
 0001:000015F4 System.InterlockedIncrement_004025F4
 0001:00001600 System.InterlockedDecrement_00402600
 0001:0000160C System.InterlockedCompareExchange_0040260C
 0001:00001614 System.InterlockedCompareExchangePointer_00402614
 0001:0000161C System.kernel32.CloseHandle_0040261C
 0001:00001624 System.kernel32.CreateFileW_00402624
 0001:0000162C System.kernel32.InitializeCriticalSection_0040262C
 0001:00001634 System.kernel32.EnterCriticalSection_00402634
 0001:0000163C System.kernel32.LeaveCriticalSection_0040263C
 0001:00001644 System.kernel32.DeleteCriticalSection_00402644
 0001:0000164C System.kernel32.GetFileType_0040264C
 0001:00001654 System.kernel32.GetFileSize_00402654
 0001:0000165C System.kernel32.GetStdHandle_0040265C
 0001:00001664 System.kernel32.RaiseException_00402664
 0001:0000166C System.kernel32.ReadFile_0040266C
 0001:00001674 System.kernel32.RtlUnwind_00402674
 0001:0000167C System.kernel32.SetEndOfFile_0040267C
 0001:00001684 System.kernel32.SetFilePointer_00402684
 0001:0000168C System.kernel32.UnhandledExceptionFilter_0040268C
 0001:00001694 System.kernel32.WriteFile_00402694
 0001:0000169C System.user32.CharNextW_0040269C
 0001:000016A4 System.kernel32.CompareStringW_004026A4
 0001:000016AC System.kernel32.CompareStringW_004026AC
 0001:000016B4 System.kernel32.CreateThread_004026B4
 0001:000016BC System.kernel32.ExitThread_004026BC
 0001:000016C4 System.kernel32.ExitProcess_004026C4
 0001:000016CC System.user32.MessageBoxA_004026CC
 0001:000016D4 System.kernel32.FindClose_004026D4
 0001:000016DC System.kernel32.FindFirstFileW_004026DC
 0001:000016E4 System.kernel32.FreeLibrary_004026E4
 0001:000016EC System.kernel32.GetCommandLineW_004026EC
 0001:000016F4 System.kernel32.GetLastError_004026F4
 0001:000016FC System.kernel32.GetLocaleInfoW_004026FC
 0001:00001704 System.kernel32.GetUserDefaultUILanguage_00402704
 0001:0000170C System.kernel32.GetModuleFileNameW_0040270C
 0001:00001714 System.kernel32.GetModuleHandleW_00402714
 0001:0000171C System.kernel32.GetProcAddress_0040271C
 0001:00001724 System.kernel32.GetStartupInfoA_00402724
 0001:0000172C System.kernel32.GetSystemDefaultUILanguage_0040272C
 0001:00001734 System.kernel32.IsValidLocale_00402734
 0001:0000173C System.kernel32.LoadLibraryExW_0040273C
 0001:00001744 System.user32.LoadStringW_00402744
 0001:0000174C System.kernel32.lstrcpynW_0040274C
 0001:00001754 System.kernel32.lstrlenW_00402754
 0001:0000175C System.kernel32.MultiByteToWideChar_0040275C
 0001:00001764 System.advapi32.RegCloseKey_00402764
 0001:0000176C System.advapi32.RegOpenKeyExW_0040276C
 0001:00001774 System.advapi32.RegQueryValueExW_00402774
 0001:0000177C System.kernel32.WideCharToMultiByte_0040277C
 0001:00001784 System.kernel32.VirtualQuery_00402784
 0001:0000178C System.oleaut32.SysAllocStringLen_0040278C
 0001:00001794 System.oleaut32.SysReAllocStringLen_00402794
 0001:0000179C System.oleaut32.SysFreeString_0040279C
 0001:000017A4 System.kernel32.GetCurrentThreadId_004027A4
 0001:000017AC System.kernel32.GetVersion_004027AC
 0001:000017B4 System.kernel32.QueryPerformanceCounter_004027B4
 0001:000017BC System.kernel32.GetTickCount_004027BC
 0001:000017C4 System.kernel32.GetSystemInfo_004027C4
 0001:000017CC System.kernel32.GetACP_004027CC
 0001:000017D4 System.kernel32.SwitchToThread_004027D4
 0001:000017DC System.GetCmdShow_004027DC
 0001:00001808 System.kernel32.VirtualAlloc_00402808
 0001:00001810 System.kernel32.VirtualFree_00402810
 0001:00001818 System.kernel32.Sleep_00402818
 0001:00001968 System.LockCmpxchg_00402968
 0001:00001970 System.Move12_00402970
 0001:00001984 System.Move20_00402984
 0001:000019A4 System.Move28_004029A4
 0001:000019D0 System.Move36_004029D0
 0001:000019F0 System.Move44_004029F0
 0001:00001A14 System.Move52_00402A14
 0001:00001A40 System.Move60_00402A40
 0001:00001A70 System.Move68_00402A70
 0001:00001AA8 System.MoveX16L4_00402AA8
 0001:00001AD8 System.MoveX8L4_00402AD8
 0001:00001AF4 System.RemoveMediumFreeBlock_00402AF4
 0001:00001B34 System.InsertMediumBlockIntoBin_00402B34
 0001:00001B94 System.BinMediumSequentialFeedRemainder_00402B94
 0001:00001C00 System.AllocNewSequentialFeedMediumPool_00402C00
 0001:00001C78 System.LockLargeBlocks_00402C78
 0001:00001CC0 System.AllocateLargeBlock_00402CC0
 0001:00001D24 System.FreeLargeBlock_00402D24
 0001:00001DC8 System.ReallocateLargeBlock_00402DC8
 0001:00001F14 System.SysGetMem_00402F14
 0001:00002298 System.SysFreeMem_00403298
 0001:00002490 System.SysReallocMem_00403490
 0001:000027A8 System.SysAllocMem_004037A8
 0001:000027DC System.NextMediumBlock_004037DC
 0001:00002800 System.GetFirstMediumBlockInPool_00403800
 0001:00002840 System.GetFirstAndLastSmallBlockInPool_00403840
 0001:00002878 System.CardinalToStrBuf_00403878
 0001:00002994 System.AppendStringToBuffer_00403994
 0001:000029AC System.AppendClassNameToBuffer_004039AC
 0001:000029E0 System.IsValidVMTAddress_004039E0
 0001:00002ADC System.GetObjectClass_00403ADC
 0001:00002B04 System.LockExpectedMemoryLeaksList_00403B04
 0001:00002B78 System.SysRegisterExpectedMemoryLeak_00403B78
 0001:00002BB8 System.SysUnregisterExpectedMemoryLeak_00403BB8
 0001:00002C10 System.CheckSmallBlockPoolForLeaks_00403C10
 0001:00002DD8 System.ScanForMemoryLeaks_00403DD8
 0001:000031BC System.BuildBlockTypeLookupTable_004041BC
 0001:00003200 System.InitializeMemoryManager_00404200
 0001:00003328 System.FreeAllMemory_00404328
 0001:000033B8 System.FinalizeMemoryManager_004043B8
 0001:0000340C System.AllocMem_0040440C
 0001:00003424 System.@GetMem_00404424
 0001:00003440 System.@FreeMem_00404440
 0001:00003458 System.@ReallocMem_00404458
 0001:000034A8 System.ExceptObject_004044A8
 0001:000034C8 System.ExceptAddr_004044C8
 0001:000034E8 System.AcquireExceptionObject_004044E8
 0001:0000351C System.RaiseList_0040451C
 0001:00003528 System.RunErrorAt_00404528
 0001:00003534 System.ErrorAt_00404534
 0001:00003580 System.Error_00404580
 0001:000035A0 System.@_IOTest_004045A0
 0001:000035C0 System.SetInOutRes_004045C0
 0001:000035D0 System.IOResult_004045D0
 0001:000035F0 System.Move_004045F0
 0001:000036F0 System.GetParamStr_004046F0
 0001:000037AC System.ParamStr_004047AC
 0001:0000380C System.Randomize_0040480C
 0001:00003834 System.Random_00404834
 0001:00003850 System.UpCase_00404850
 0001:00003868 System.Set8087CW_00404868
 0001:00003878 System.Get8087CW_00404878
 0001:00003880 System.Int_00404880
 0001:000038AC System.Exp_004048AC
 0001:000038CC System.Cos_004048CC
 0001:000038DC System.Sin_004048DC
 0001:000038EC System.Ln_004048EC
 0001:00003900 System.Sqrt_00404900
 0001:00003910 System.@ROUND_00404910
 0001:0000391C System.@TRUNC_0040491C
 0001:00003940 System.@AbstractError_00404940
 0001:0000395C System.OpenText_0040495C
 0001:000039B8 System.@RewritText_004049B8
 0001:000039C4 System.@Append_004049C4
 0001:000039D0 System.TextIn_004049D0
 0001:00003A0C System.FileNOPProc_00404A0C
 0001:00003A10 System.TextOut_00404A10
 0001:00003A4C System.InternalClose_00404A4C
 0001:00003A5C System.TextClose_00404A5C
 0001:00003A7C System.TextOpen_00404A7C
 0001:00003C2C System.@Assign_00404C2C
 0001:00003C90 System.InternalFlush_00404C90
 0001:00003CD8 System.Flush_00404CD8
 0001:00003CE4 System.@Flush_00404CE4
 0001:00003CF0 System.@Close_00404CF0
 0001:00003D48 System.@FillChar_00404D48
 0001:00003DE4 System.@ValLong_00404DE4
 0001:00003EE8 System.TryOpenForOutput_00404EE8
 0001:00003F2C System.@WriteBytes_00404F2C
 0001:00003F80 System.@WriteSpaces_00404F80
 0001:00003FFC System.@WriteLString_00404FFC
 0001:00004020 System.@Write0Bool_00405020
 0001:00004028 System.@WriteBool_00405028
 0001:00004098 System.@WriteLn_00405098
 0001:000040E0 System.@SetElem_004050E0
 0001:00004104 System.@SetRange_00405104
 0001:0000415C System.@SetEq_0040515C
 0001:00004190 System.@SetUnion_00405190
 0001:0000419C System.FPower10_0040519C
 0001:000041A4 System.@Pow10_004051A4
 0001:00004488 System.@FpuInit_00405488
 0001:00004494 System.@BoundErr_00405494
 0001:0000449C System.@IntOver_0040549C
 0001:000044A4 System.TObject.ClassName_004054A4
 0001:000044BC System.TObject.ClassNameIs_004054BC
 0001:00004538 System.TObject.ClassParent_00405538
 0001:00004544 System.TObject.NewInstance_00405544
 0001:00004560 System.TObject.FreeInstance_00405560
 0001:00004574 System.TObject.InstanceSize_00405574
 0001:0000457C System.TObject.Create_0040557C
 0001:0000459C System.TObject.Destroy_0040559C
 0001:000045AC System.TObject.Free_004055AC
 0001:000045B8 System.TObject.InitInstance_004055B8
 0001:00004610 System.TObject.CleanupInstance_00405610
 0001:00004638 System.InvokeImplGetter_00405638
 0001:00004668 System.TObject.Equals_00405668
 0001:00004670 System.TObject.GetHashCode_00405670
 0001:00004674 System.TObject.GetInterface_00405674
 0001:00004744 System.TObject.GetInterfaceEntry_00405744
 0001:00004788 System.TObject.UnitName_00405788
 0001:000047BC System.@IsClass_004057BC
 0001:000047E0 System.@AsClass_004057E0
 0001:000047FC System.FindDynaMethod_004057FC
 0001:0000482C System.@CallDynaInst_0040582C
 0001:00004844 System.@FindDynaInst_00405844
 0001:0000485C System.TObject.InheritsFrom_0040585C
 0001:00004870 System.TObject.ClassInfo_00405870
 0001:00004878 System.TObject.SafeCallException_00405878
 0001:00004880 System.TObject.ToString_00405880
 0001:00004894 System.TObject.DefaultHandler_00405894
 0001:00004898 System.TObject.AfterConstruction_00405898
 0001:0000489C System.TObject.BeforeDestruction_0040589C
 0001:000048A0 System.TObject.Dispatch_004058A0
 0001:000048C8 System.UTF8Compare_004058C8
 0001:00004940 System.UTF8ShortStringToString_00405940
 0001:00004954 System.TObject.MethodAddress_00405954
 0001:000049C4 System.TObject.MethodAddress_004059C4
 0001:000049EC System.TObject.MethodName_004059EC
 0001:00004A38 System.TObject.FieldAddress_00405A38
 0001:00004AAC System.TObject.FieldAddress_00405AAC
 0001:00004AD4 System.@ClassCreate_00405AD4
 0001:00004B24 System.@ClassDestroy_00405B24
 0001:00004B2C System.@AfterConstruction_00405B2C
 0001:00004B7C System.@BeforeDestruction_00405B7C
 0001:00004B8C System.TMonitor.TSpinWait.SpinCycle_00405B8C
 0001:00004C04 System.TMonitor.TSpinLock.Enter_00405C04
 0001:00004C34 System.TMonitor.TSpinLock.Exit_00405C34
 0001:00004C3C System.TMonitor.Spin_00405C3C
 0001:00004C58 System.TMonitor.CheckMonitorSupport_00405C58
 0001:00004C6C System.TMonitor.CheckOwningThread_00405C6C
 0001:00004C84 System.TMonitor.Create_00405C84
 0001:00004CA4 System.TMonitor.Destroy_00405CA4
 0001:00004CBC System.TMonitor.Destroy_00405CBC
 0001:00004CE8 System.TMonitor.DequeueWaiter_00405CE8
 0001:00004D70 System.TMonitor.Enter_00405D70
 0001:00004F08 System.TMonitor.Exit_00405F08
 0001:00004F54 System.TMonitor.Exit_00405F54
 0001:00004F6C System.TMonitor.GetEvent_00405F6C
 0001:00004FD4 System.TMonitor.GetFieldAddress_00405FD4
 0001:00004FE4 System.TMonitor.GetMonitor_00405FE4
 0001:00005024 System.TMonitor.Pulse_00406024
 0001:00005040 System.TMonitor.Pulse_00406040
 0001:00005058 System.TMonitor.QueueWaiter_00406058
 0001:000050C8 System.TMonitor.RemoveWaiter_004060C8
 0001:0000515C System.TMonitor.TryEnter_0040615C
 0001:0000519C System.TMonitor.Wait_0040619C
 0001:00005250 System.TMonitor.Wait_00406250
 0001:0000527C System.NotifyReRaise_0040627C
 0001:00005298 System.NotifyNonDelphiException_00406298
 0001:000052BC System.NotifyExcept_004062BC
 0001:000052D4 System.NotifyOnExcept_004062D4
 0001:000052E8 System.NotifyAnyExcept_004062E8
 0001:000052FC System.CheckJmp_004062FC
 0001:0000531C System.NotifyExceptFinally_0040631C
 0001:00005344 System.NotifyTerminate_00406344
 0001:00005360 System.NotifyUnhandled_00406360
 0001:00005380 System.@HandleAnyException_00406380
 0001:000054AC System.@HandleOnException_004064AC
 0001:00005634 System.@HandleFinally_00406634
 0001:000056DC System.@HandleFinallyInternal_004066DC
 0001:00005714 System.@RaiseExcept_00406714
 0001:00005784 System.@RaiseAgain_00406784
 0001:000057D8 System.@DoneExcept_004067D8
 0001:00005808 System.@TryFinallyExit_00406808
 0001:00005820 System.MapToRunError_00406820
 0001:000058C0 System.@ExceptionHandler_004068C0
 0001:00005960 System.SetExceptionHandler_00406960
 0001:00005980 System.UnsetExceptionHandler_00406980
 0001:00005A10 System.InitUnits_00406A10
 0001:00005A7C System.@StartExe_00406A7C
 0001:00005AC4 System.LoadResStringA_00406AC4
 0001:00005B18 System.LoadResStringW_00406B18
 0001:00005B68 System.LoadResStringU_00406B68
 0001:00005B7C System.@InitResStringImports_00406B7C
 0001:00005BC0 System.@InitImports_00406BC0
 0001:00005BE4 System.MakeErrorMessage_00406BE4
 0001:00005C48 System.ExitDll_00406C48
 0001:00005C74 System.WriteErrorMessage_00406C74
 0001:00005D04 System.@Halt0_00406D04
 0001:00005E30 System.@Halt_00406E30
 0001:00005E3C System.@RunError_00406E3C
 0001:00005E48 System.@Assert_00406E48
 0001:00005E94 System.ThreadWrapper_00406E94
 0001:00005ECC System.BeginThread_00406ECC
 0001:00005F48 System.EndThread_00406F48
 0001:00005F64 System.@NewUnicodeString_00406F64
 0001:00005FA4 System.@NewAnsiString_00406FA4
 0001:00005FF0 System.WStrError_00406FF0
 0001:00005FF8 System.@NewWideString_00406FF8
 0001:00006010 System.@UStrClr_00407010
 0001:00006034 System.@LStrClr_00407034
 0001:00006058 System.@WStrClr_00407058
 0001:00006070 System.@UStrArrayClr_00407070
 0001:000060A0 System.@LStrArrayClr_004070A0
 0001:000060D0 System.@WStrArrayClr_004070D0
 0001:000060F4 System.@UStrAddRef_004070F4
 0001:00006104 System.@LStrAddRef_00407104
 0001:00006114 System.@WStrAddRef_00407114
 0001:00006134 System.CharFromWChar_00407134
 0001:00006160 System.CharFromWChar_00407160
 0001:0000617C System.WCharFromChar_0040717C
 0001:00006198 System.@UStrFromPWCharLen_00407198
 0001:000061C8 System.@WStrFromPWCharLen_004071C8
 0001:000061EC System.@LStrFromPCharLen_004071EC
 0001:00006224 System.InternalUStrFromPCharLen_00407224
 0001:000062B8 System.@UStrFromPCharLen_004072B8
 0001:000062C8 System.InternalWStrFromPCharLen_004072C8
 0001:0000635C System.@WStrFromPCharLen_0040735C
 0001:0000636C System.@LStrFromPWCharLen_0040736C
 0001:000063F0 System.@UStrAsg_004073F0
 0001:00006438 System.@UStrLAsg_00407438
 0001:00006464 System.@WStrAsg_00407464
 0001:0000648C System.@LStrAsg_0040748C
 0001:000064D4 System.@LStrLAsg_004074D4
 0001:00006500 System.@UStrLen_00407500
 0001:0000650C System.@LStrLen_0040750C
 0001:00006518 System.@PCharLen_00407518
 0001:00006540 System.@PWCharLen_00407540
 0001:00006574 System.InternalUniqueStringU_00407574
 0001:000065B8 System.InternalUniqueStringA_004075B8
 0001:000065FC System.@UniqueStringU_004075FC
 0001:00006604 System.@UniqueStringA_00407604
 0001:0000660C System.UniqueString_0040760C
 0001:00006614 System.@PStrCmp_00407614
 0001:00006698 System.@AStrCmp_00407698
 0001:00006708 System.@PStrCpy_00407708
 0001:00006714 System.@PStrNCpy_00407714
 0001:00006730 System.@PStrNCat_00407730
 0001:00006760 System.@Copy_00407760
 0001:000067A4 System.@LStrFromChar_004077A4
 0001:000067B4 System.@LStrFromPChar_004077B4
 0001:000067E8 System.@LStrFromPWChar_004077E8
 0001:00006828 System.@LStrFromString_00407828
 0001:0000683C System.@LStrFromArray_0040783C
 0001:0000685C System.@LStrFromWStr_0040785C
 0001:00006874 System.@LStrToString_00407874
 0001:00006898 System.@LStrCat_00407898
 0001:000068F0 System.@LStrCat3_004078F0
 0001:00006974 System.@LStrCatN_00407974
 0001:00006A3C System.@LStrEqual_00407A3C
 0001:00006A84 System.@LStrToPChar_00407A84
 0001:00006A94 System.@LStrCopy_00407A94
 0001:00006ADC System.@LStrSetLength_00407ADC
 0001:00006B54 System.@LStrFromUStr_00407B54
 0001:00006B6C System.WStrSet_00407B6C
 0001:00006B7C System.@WStrFromPChar_00407B7C
 0001:00006BAC System.@WStrFromPWChar_00407BAC
 0001:00006BE8 System.@WStrFromLStr_00407BE8
 0001:00006C08 System.@WStrToPWChar_00407C08
 0001:00006C1C System.@WStrCmp_00407C1C
 0001:00006CA0 System.@WStrEqual_00407CA0
 0001:00006CA8 System.@WStrCopy_00407CA8
 0001:00006CF4 System.@WStrDelete_00407CF4
 0001:00006D90 System.@WStrInsert_00407D90
 0001:00006E44 System.@WStrSetLength_00407E44
 0001:00006E98 System.@UStrToPWChar_00407E98
 0001:00006EA8 System.@UStrFromWChar_00407EA8
 0001:00006EB8 System.@UStrFromPChar_00407EB8
 0001:00006EE8 System.@UStrFromPWChar_00407EE8
 0001:00006F24 System.@UStrFromArray_00407F24
 0001:00006F3C System.@UStrFromWArray_00407F3C
 0001:00006F58 System.@UStrFromLStr_00407F58
 0001:00006F78 System.@UStrFromWStr_00407F78
 0001:00006F8C System.@WStrFromUStr_00407F8C
 0001:00006F9C System.@UStrToString_00407F9C
 0001:00007008 System.@UStrFromString_00408008
 0001:00007014 System.@UStrSetLength_00408014
 0001:00007094 System.@UStrCat_00408094
 0001:000070EC System.@UStrCat3_004080EC
 0001:00007174 System.@UStrCatN_00408174
 0001:00007224 System.@UStrCmp_00408224
 0001:00007284 System.@UStrEqual_00408284
 0001:000072BC System.@UStrCopy_004082BC
 0001:00007304 System.@UStrDelete_00408304
 0001:00007368 System.@UStrInsert_00408368
 0001:00007428 System.Pos_00408428
 0001:00007474 System.Pos_00408474
 0001:000075B8 System.StringOfChar_004085B8
 0001:000075E0 System.SetCodePage_004085E0
 0001:00007754 System.@InitializeRecord_00408754
 0001:00007820 System.@Initialize_00408820
 0001:0000782C System.@FinalizeRecord_0040882C
 0001:00007864 System.@VarClr_00408864
 0001:0000798C System.@Finalize_0040898C
 0001:00007998 System.@AddRefRecord_00408998
 0001:000079C8 System.@VarAddRef_004089C8
 0001:00007AA4 System.@VarCopy_00408AA4
 0001:00007D14 System.@New_00408D14
 0001:00007D28 System.@Dispose_00408D28
 0001:00007D38 System.WideCharLenToStrVar_00408D38
 0001:00007D4C System.OleStrToStrVar_00408D4C
 0001:00007D68 System.StringToOleStr_00408D68
 0001:00007D88 System.sub_00408D88_00408D88
 0001:00007DA8 System.@DispCallByIDError_00408DA8
 0001:00007DB0 System.@_llmul_00408DB0
 0001:00007DD4 System.@_lldiv_00408DD4
 0001:00007E68 System.@_lludiv_00408E68
 0001:00007EB4 System.@_llumod_00408EB4
 0001:00007F04 System.@ValInt64_00408F04
 0001:0000817C System.@DynArrayLength_0040917C
 0001:00008184 System.@DynArrayHigh_00409184
 0001:0000818C System.CopyArray_0040918C
 0001:0000819C System.FinalizeArray_0040919C
 0001:000081A4 System.DynArrayClear_004091A4
 0001:00008344 System.@DynArraySetLength_00409344
 0001:00008350 System.@DynArrayCopyRange_00409350
 0001:00008444 System.@DynArrayClear_00409444
 0001:00008480 System.@DynArrayAsg_00409480
 0001:000084A8 System.@DynArrayAddRef_004094A8
 0001:000084B4 System.FindHInstance_004094B4
 0001:000084DC System.FindClassHInstance_004094DC
 0001:000084E4 System.DelayLoadResourceModule_004094E4
 0001:0000852C System.FindResourceHInstance_0040952C
 0001:00008790 System.InitializeLocaleData_00409790
 0001:00008880 System.FinalizeLocaleDate_00409880
 0001:0000888C System.LastHyphenPos_0040988C
 0001:000088F8 System.ConvertResToUILanguages_004098F8
 0001:000089E8 System.GetPreferredLangForOldOS_004099E8
 0001:00008B7C System.CheckDifferentLanguageList_00409B7C
 0001:00008BA0 System.ThreadUILanguages_00409BA0
 0001:00008BE4 System.GetPreferredLangForNewOS_00409BE4
 0001:00008D00 System.GetUILanguages_00409D00
 0001:00008E20 System.FindBS_00409E20
 0001:00008E44 System.ToLongPath_00409E44
 0001:00009038 System.InternalGetLocaleOverride_0040A038
 0001:00009354 System.GetLocaleOverride_0040A354
 0001:000093B8 System.SetLocaleOverride_0040A3B8
 0001:0000940C System.LoadModule_0040A40C
 0001:00009464 System.ResouceDLLExists_0040A464
 0001:000094D0 System.LoadLanguageList_0040A4D0
 0001:0000959C System.Load3LettersModule_0040A59C
 0001:00009668 System.GetResourceModuleName_0040A668
 0001:00009784 System.LoadResourceModule_0040A784
 0001:0000984C System.AddModuleUnloadProc_0040A84C
 0001:00009854 System.RemoveModuleUnloadProc_0040A854
 0001:0000985C System.AddModuleUnloadProc_0040A85C
 0001:0000987C System.sub_0040A87C_0040A87C
 0001:000098E0 System.NotifyModuleUnload_0040A8E0
 0001:0000993C System.RegisterModule_0040A93C
 0001:0000994C System.UnregisterModule_0040A94C
 0001:000099BC System.@IntfClear_0040A9BC
 0001:000099D4 System.@IntfCopy_0040A9D4
 0001:00009A00 System.@IntfCast_0040AA00
 0001:00009A30 System.@IntfAddRef_0040AA30
 0001:00009A3C System.TInterfacedObject.AfterConstruction_0040AA3C
 0001:00009A48 System.TInterfacedObject.BeforeDestruction_0040AA48
 0001:00009A58 System.TInterfacedObject.NewInstance_0040AA58
 0001:00009A68 System.TContainedObject.QueryInterface_0040AA68
 0001:00009A90 System.TInterfacedObject._AddRef_0040AA90
 0001:00009AA4 System.TInterfacedObject._Release_0040AAA4
 0001:00009ACC System.@CheckAutoResult_0040AACC
 0001:00009B18 System.sub_0040AB18_0040AB18
 0001:00009BB8 System.sub_0040ABB8_0040ABB8
 0001:00009C48 System.UTF8Encode_0040AC48
 0001:00009D24 System.UTF8EncodeToShortString_0040AD24
 0001:00009D5C System.sub_0040AD5C_0040AD5C
 0001:00009E08 System.UTF8ToUnicodeString_0040AE08
 0001:00009E98 System.UTF8ToString_0040AE98
 0001:00009EAC System.LoadResString_0040AEAC
 0001:00009F18 System.LocaleCharsFromUnicode_0040AF18
 0001:00009F40 System.UnicodeFromLocaleChars_0040AF40
 0001:00009F60 System.GetCPUCount_0040AF60
 0001:00009F74 System.SetUtf8CompareLocale_0040AF74
 0001:00009FB0 System.kernel32.LocalAlloc_0040AFB0
 0001:00009FB8 System.kernel32.LocalFree_0040AFB8
 0001:00009FC0 System.kernel32.LoadLibraryA_0040AFC0
 0001:00009FC8 System.kernel32.lstrcmpiA_0040AFC8
 0001:00009FD0 System.@memcpy_0040AFD0
 0001:00009FE4 System.@memset_0040AFE4
 0001:00009FF8 System.@delayLoadHelper_0040AFF8
 0001:0000A000 System._DF_._0040B000
 0001:0000A03A System.sub_0040B03A_0040B03A
 0001:0000A062 System.sub_0040B062_0040B062
 0001:0000A077 System.sub_0040B077_0040B077
 0001:0000A08E System.sub_0040B08E_0040B08E
 0001:0000A09B System.sub_0040B09B_0040B09B
 0001:0000A0BE System.sub_0040B0BE_0040B0BE
 0001:0000A0CB System.sub_0040B0CB_0040B0CB
 0001:0000A0E6 System.@_delayLoadHelper_0040B0E6
 0001:0000A303 System.sub_0040B303_0040B303
 0001:0000A34A System.@_FUnloadDelayLoadedDLL_0040B34A
 0001:0000A3B4 System.@InitDelayHelp_0040B3B4
 0001:0000A3C3 System.@ShutdownDelayHelp_0040B3C3
 0001:0000A3DC System.Finalization_0040B3DC
 0001:0000A444 _Unit2.kernel32.GetModuleHandleW_0040B444
 0001:0000A44C _Unit2.kernel32.LocalAlloc_0040B44C
 0001:0000A454 _Unit2.kernel32.TlsGetValue_0040B454
 0001:0000A45C _Unit2.kernel32.TlsSetValue_0040B45C
 0001:0000A464 _Unit2.AllocTlsBuffer_0040B464
 0001:0000A470 _Unit2.GetTlsSize_0040B470
 0001:0000A478 _Unit2.InitThreadTLS_0040B478
 0001:0000A4BC _Unit2.@GetTls_0040B4BC
 0001:0000A4FC _Unit2.InitializeModule_0040B4FC
 0001:0000A508 _Unit2.@InitExe_0040B508
 0001:0000A704 _Unit2.SplitRect_0040B704
 0001:0000A75C _Unit2.SplitRect_0040B75C
 0001:0000A800 _Unit2.CenteredRect_0040B800
 0001:0000A87C _Unit2.EqualRect_0040B87C
 0001:0000A8A0 _Unit2.Rect_0040B8A0
 0001:0000A8BC _Unit2.RectWidth_0040B8BC
 0001:0000A8C4 _Unit2.RectHeight_0040B8C4
 0001:0000A8D0 _Unit2.SmallPoint_0040B8D0
 0001:0000A8E8 _Unit2.PtInRect_0040B8E8
 0001:0000A90C _Unit2.IntersectRect_0040B90C
 0001:0000A96C _Unit2.IsRectEmpty_0040B96C
 0001:0000A984 _Unit2.OffsetRect_0040B984
 0001:0000A99C _Unit2.Bounds_0040B99C
 0001:0000A9B8 _Unit2.CenterPoint_0040B9B8
 0001:0000B344 _Unit2.advapi32.RegCloseKey_0040C344
 0001:0000B34C _Unit2.advapi32.RegFlushKey_0040C34C
 0001:0000B354 _Unit2.advapi32.RegOpenKeyExW_0040C354
 0001:0000B35C _Unit2.advapi32.RegQueryValueExW_0040C35C
 0001:0000B364 _Unit2.kernel32.CloseHandle_0040C364
 0001:0000B36C _Unit2.kernel32.CompareStringW_0040C36C
 0001:0000B374 _Unit2.kernel32.CompareStringW_0040C374
 0001:0000B37C _Unit2.kernel32.CreateDirectoryW_0040C37C
 0001:0000B384 _Unit2.kernel32.dll_0040C384
 0001:0000B394 _Unit2.kernel32.CreateEventW_0040C394
 0001:0000B39C _Unit2.kernel32.CreateFileW_0040C39C
 0001:0000B3A4 _Unit2.kernel32.CreateThread_0040C3A4
 0001:0000B3AC _Unit2.kernel32.DebugBreak_0040C3AC
 0001:0000B3B4 _Unit2.kernel32.DeleteCriticalSection_0040C3B4
 0001:0000B3BC _Unit2.kernel32.DeleteFileW_0040C3BC
 0001:0000B3C4 _Unit2.kernel32.DeviceIoControl_0040C3C4
 0001:0000B3CC _Unit2.kernel32.EnterCriticalSection_0040C3CC
 0001:0000B3D4 _Unit2.kernel32.EnumCalendarInfoW_0040C3D4
 0001:0000B3DC _Unit2.kernel32.EnumSystemLocalesW_0040C3DC
 0001:0000B3E4 _Unit2.kernel32.FileTimeToDosDateTime_0040C3E4
 0001:0000B3EC _Unit2.kernel32.FileTimeToLocalFileTime_0040C3EC
 0001:0000B3F4 _Unit2.kernel32.FindClose_0040C3F4
 0001:0000B3FC _Unit2.kernel32.FindFirstFileW_0040C3FC
 0001:0000B404 _Unit2.kernel32.FindNextFileW_0040C404
 0001:0000B40C _Unit2.kernel32.FindResourceW_0040C40C
 0001:0000B414 _Unit2.kernel32.FormatMessageW_0040C414
 0001:0000B41C _Unit2.kernel32.FreeLibrary_0040C41C
 0001:0000B424 _Unit2.kernel32.InterlockedCompareExchange_0040C424
 0001:0000B42C _Unit2.kernel32.InterlockedDecrement_0040C42C
 0001:0000B434 _Unit2.kernel32.InterlockedExchange_0040C434
 0001:0000B43C _Unit2.kernel32.InterlockedExchangeAdd_0040C43C
 0001:0000B444 _Unit2.kernel32.InterlockedIncrement_0040C444
 0001:0000B44C _Unit2.kernel32.FreeResource_0040C44C
 0001:0000B454 _Unit2.kernel32.GetACP_0040C454
 0001:0000B45C _Unit2.kernel32.GetCPInfo_0040C45C
 0001:0000B464 _Unit2.kernel32.GetCPInfoExW_0040C464
 0001:0000B46C _Unit2.kernel32.GetComputerNameW_0040C46C
 0001:0000B474 _Unit2.kernel32.GetCurrentProcess_0040C474
 0001:0000B47C _Unit2.kernel32.GetCurrentProcessId_0040C47C
 0001:0000B484 _Unit2.kernel32.GetCurrentThread_0040C484
 0001:0000B48C _Unit2.kernel32.GetCurrentThreadId_0040C48C
 0001:0000B494 _Unit2.kernel32.GetDateFormatW_0040C494
 0001:0000B49C _Unit2.kernel32.GetDiskFreeSpaceW_0040C49C
 0001:0000B4A4 _Unit2.kernel32.GetExitCodeThread_0040C4A4
 0001:0000B4AC _Unit2.kernel32.GetFileAttributesW_0040C4AC
 0001:0000B4B4 _Unit2.kernel32.GetFileSize_0040C4B4
 0001:0000B4BC _Unit2.kernel32.GetFullPathNameW_0040C4BC
 0001:0000B4C4 _Unit2.kernel32.GetLastError_0040C4C4
 0001:0000B4CC _Unit2.kernel32.GetLocalTime_0040C4CC
 0001:0000B4D4 _Unit2.kernel32.GetLocaleInfoW_0040C4D4
 0001:0000B4DC _Unit2.kernel32.GetLocaleInfoW_0040C4DC
 0001:0000B4E4 _Unit2.kernel32.GetModuleFileNameW_0040C4E4
 0001:0000B4EC _Unit2.kernel32.GetModuleHandleW_0040C4EC
 0001:0000B4F4 _Unit2.kernel32.GetPrivateProfileStringW_0040C4F4
 0001:0000B4FC _Unit2.kernel32.GetProcAddress_0040C4FC
 0001:0000B504 _Unit2.GetProcAddress_0040C504
 0001:0000B578 _Unit2.kernel32.GetStdHandle_0040C578
 0001:0000B580 _Unit2.kernel32.GetSystemTimeAsFileTime_0040C580
 0001:0000B588 _Unit2.kernel32.GetThreadLocale_0040C588
 0001:0000B590 _Unit2.kernel32.GetThreadPriority_0040C590
 0001:0000B598 _Unit2.kernel32.GetTickCount_0040C598
 0001:0000B5A0 _Unit2.kernel32.GetUserDefaultLCID_0040C5A0
 0001:0000B5A8 _Unit2.$thunk_CreateDirectoryTransactedA_0040C5A8
 0001:0000B5B8 _Unit2.LocaleNameToLCID_0040C5B8
 0001:0000B5C0 _Unit2.kernel32.GetVersion_0040C5C0
 0001:0000B5C8 _Unit2.kernel32.GetVersionExW_0040C5C8
 0001:0000B5D0 _Unit2.kernel32.GlobalAddAtomW_0040C5D0
 0001:0000B5D8 _Unit2.kernel32.GlobalAlloc_0040C5D8
 0001:0000B5E0 _Unit2.kernel32.GlobalDeleteAtom_0040C5E0
 0001:0000B5E8 _Unit2.kernel32.GlobalFindAtomW_0040C5E8
 0001:0000B5F0 _Unit2.kernel32.GlobalFree_0040C5F0
 0001:0000B5F8 _Unit2.kernel32.GlobalLock_0040C5F8
 0001:0000B600 _Unit2.kernel32.GlobalHandle_0040C600
 0001:0000B608 _Unit2.kernel32.GlobalSize_0040C608
 0001:0000B610 _Unit2.kernel32.GlobalUnlock_0040C610
 0001:0000B618 _Unit2.kernel32.InitializeCriticalSection_0040C618
 0001:0000B620 _Unit2.kernel32.IsBadReadPtr_0040C620
 0001:0000B628 _Unit2.kernel32.IsValidLocale_0040C628
 0001:0000B630 _Unit2.kernel32.LeaveCriticalSection_0040C630
 0001:0000B638 _Unit2.kernel32.LoadLibraryW_0040C638
 0001:0000B640 _Unit2.kernel32.LoadResource_0040C640
 0001:0000B648 _Unit2.kernel32.LocalFree_0040C648
 0001:0000B650 _Unit2.kernel32.LockResource_0040C650
 0001:0000B658 _Unit2.kernel32.MulDiv_0040C658
 0001:0000B660 _Unit2.kernel32.MultiByteToWideChar_0040C660
 0001:0000B668 _Unit2.kernel32.OpenProcess_0040C668
 0001:0000B670 _Unit2.kernel32.OutputDebugStringW_0040C670
 0001:0000B678 _Unit2.kernel32.IsDebuggerPresent_0040C678
 0001:0000B680 _Unit2.kernel32.QueryPerformanceCounter_0040C680
 0001:0000B688 _Unit2.kernel32.RaiseException_0040C688
 0001:0000B690 _Unit2.kernel32.ReadFile_0040C690
 0001:0000B698 _Unit2.kernel32.ReadProcessMemory_0040C698
 0001:0000B6A0 _Unit2.kernel32.RemoveDirectoryW_0040C6A0
 0001:0000B6A8 _Unit2.kernel32.ResetEvent_0040C6A8
 0001:0000B6B0 _Unit2.kernel32.ResumeThread_0040C6B0
 0001:0000B6B8 _Unit2.kernel32.SetEndOfFile_0040C6B8
 0001:0000B6C0 _Unit2.kernel32.SetErrorMode_0040C6C0
 0001:0000B6C8 _Unit2.kernel32.SetEvent_0040C6C8
 0001:0000B6D0 _Unit2.kernel32.SetFilePointer_0040C6D0
 0001:0000B6D8 _Unit2.kernel32.SetLastError_0040C6D8
 0001:0000B6E0 _Unit2.kernel32.SetThreadLocale_0040C6E0
 0001:0000B6E8 _Unit2.kernel32.SetThreadPriority_0040C6E8
 0001:0000B6F0 _Unit2.kernel32.SizeofResource_0040C6F0
 0001:0000B6F8 _Unit2.kernel32.Sleep_0040C6F8
 0001:0000B700 _Unit2.kernel32.SleepEx_0040C700
 0001:0000B708 _Unit2.kernel32.SuspendThread_0040C708
 0001:0000B710 _Unit2.kernel32.SwitchToThread_0040C710
 0001:0000B718 _Unit2.kernel32.VirtualAlloc_0040C718
 0001:0000B720 _Unit2.kernel32.VirtualAllocEx_0040C720
 0001:0000B728 _Unit2.kernel32.VirtualFree_0040C728
 0001:0000B730 _Unit2.kernel32.VirtualFreeEx_0040C730
 0001:0000B738 _Unit2.kernel32.VirtualQuery_0040C738
 0001:0000B740 _Unit2.kernel32.VirtualQueryEx_0040C740
 0001:0000B748 _Unit2.kernel32.WaitForMultipleObjectsEx_0040C748
 0001:0000B750 _Unit2.kernel32.WaitForSingleObject_0040C750
 0001:0000B758 _Unit2.kernel32.WideCharToMultiByte_0040C758
 0001:0000B760 _Unit2.kernel32.WriteFile_0040C760
 0001:0000B768 _Unit2.kernel32.WritePrivateProfileStringW_0040C768
 0001:0000B770 _Unit2.kernel32.WriteProcessMemory_0040C770
 0001:0000B778 _Unit2.kernel32.lstrcmpW_0040C778
 0001:0000B780 _Unit2.version.GetFileVersionInfoW_0040C780
 0001:0000B788 _Unit2.version.GetFileVersionInfoSizeW_0040C788
 0001:0000B790 _Unit2.version.VerQueryValueW_0040C790
 0001:0000B798 _Unit2.msimg32.AlphaBlend_0040C798
 0001:0000B7A0 _Unit2.gdi32.AngleArc_0040C7A0
 0001:0000B7A8 _Unit2.gdi32.Arc_0040C7A8
 0001:0000B7B0 _Unit2.gdi32.ArcTo_0040C7B0
 0001:0000B7B8 _Unit2.gdi32.BitBlt_0040C7B8
 0001:0000B7C0 _Unit2.gdi32.Chord_0040C7C0
 0001:0000B7C8 _Unit2.gdi32.CloseEnhMetaFile_0040C7C8
 0001:0000B7D0 _Unit2.gdi32.CopyEnhMetaFileW_0040C7D0
 0001:0000B7D8 _Unit2.gdi32.CreateBitmap_0040C7D8
 0001:0000B7E0 _Unit2.gdi32.CreateBrushIndirect_0040C7E0
 0001:0000B7E8 _Unit2.gdi32.CreateCompatibleBitmap_0040C7E8
 0001:0000B7F0 _Unit2.gdi32.CreateCompatibleDC_0040C7F0
 0001:0000B7F8 _Unit2.gdi32.CreateDIBSection_0040C7F8
 0001:0000B800 _Unit2.gdi32.CreateDIBitmap_0040C800
 0001:0000B808 _Unit2.gdi32.CreateEnhMetaFileW_0040C808
 0001:0000B810 _Unit2.gdi32.CreateFontIndirectW_0040C810
 0001:0000B818 _Unit2.gdi32.CreateHalftonePalette_0040C818
 0001:0000B820 _Unit2.gdi32.CreatePalette_0040C820
 0001:0000B828 _Unit2.gdi32.CreatePenIndirect_0040C828
 0001:0000B830 _Unit2.gdi32.CreateRectRgn_0040C830
 0001:0000B838 _Unit2.gdi32.CreateSolidBrush_0040C838
 0001:0000B840 _Unit2.gdi32.DeleteDC_0040C840
 0001:0000B848 _Unit2.gdi32.DeleteEnhMetaFile_0040C848
 0001:0000B850 _Unit2.gdi32.DeleteObject_0040C850
 0001:0000B858 _Unit2.gdi32.Ellipse_0040C858
 0001:0000B860 _Unit2.gdi32.EnumFontFamiliesExW_0040C860
 0001:0000B868 _Unit2.gdi32.ExcludeClipRect_0040C868
 0001:0000B870 _Unit2.gdi32.ExtFloodFill_0040C870
 0001:0000B878 _Unit2.gdi32.ExtTextOutW_0040C878
 0001:0000B880 _Unit2.gdi32.FrameRgn_0040C880
 0001:0000B888 _Unit2.gdi32.GdiFlush_0040C888
 0001:0000B890 _Unit2.gdi32.GetBitmapBits_0040C890
 0001:0000B898 _Unit2.gdi32.GetBrushOrgEx_0040C898
 0001:0000B8A0 _Unit2.gdi32.GetClipBox_0040C8A0
 0001:0000B8A8 _Unit2.gdi32.GetCurrentPositionEx_0040C8A8
 0001:0000B8B0 _Unit2.gdi32.GetDIBColorTable_0040C8B0
 0001:0000B8B8 _Unit2.gdi32.GetDIBits_0040C8B8
 0001:0000B8C0 _Unit2.gdi32.GetDeviceCaps_0040C8C0
 0001:0000B8C8 _Unit2.gdi32.GetEnhMetaFileBits_0040C8C8
 0001:0000B8D0 _Unit2.gdi32.GetEnhMetaFileDescriptionW_0040C8D0
 0001:0000B8D8 _Unit2.gdi32.GetEnhMetaFileHeader_0040C8D8
 0001:0000B8E0 _Unit2.gdi32.GetEnhMetaFilePaletteEntries_0040C8E0
 0001:0000B8E8 _Unit2.gdi32.GetNearestPaletteIndex_0040C8E8
 0001:0000B8F0 _Unit2.gdi32.GetObjectW_0040C8F0
 0001:0000B8F8 _Unit2.gdi32.GetPaletteEntries_0040C8F8
 0001:0000B900 _Unit2.gdi32.GetPixel_0040C900
 0001:0000B908 _Unit2.gdi32.GetRgnBox_0040C908
 0001:0000B910 _Unit2.gdi32.GetStockObject_0040C910
 0001:0000B918 _Unit2.gdi32.GetSystemPaletteEntries_0040C918
 0001:0000B920 _Unit2.gdi32.GetTextExtentPoint32W_0040C920
 0001:0000B928 _Unit2.gdi32.GetTextExtentPointW_0040C928
 0001:0000B930 _Unit2.gdi32.GetTextMetricsW_0040C930
 0001:0000B938 _Unit2.gdi32.GetWinMetaFileBits_0040C938
 0001:0000B940 _Unit2.gdi32.GetWindowOrgEx_0040C940
 0001:0000B948 _Unit2.gdi32.IntersectClipRect_0040C948
 0001:0000B950 _Unit2.gdi32.LPtoDP_0040C950
 0001:0000B958 _Unit2.gdi32.LineTo_0040C958
 0001:0000B960 _Unit2.gdi32.MaskBlt_0040C960
 0001:0000B968 _Unit2.gdi32.MoveToEx_0040C968
 0001:0000B970 _Unit2.gdi32.PatBlt_0040C970
 0001:0000B978 _Unit2.gdi32.Pie_0040C978
 0001:0000B980 _Unit2.gdi32.PlayEnhMetaFile_0040C980
 0001:0000B988 _Unit2.gdi32.PolyBezier_0040C988
 0001:0000B990 _Unit2.gdi32.PolyBezierTo_0040C990
 0001:0000B998 _Unit2.gdi32.Polygon_0040C998
 0001:0000B9A0 _Unit2.gdi32.Polyline_0040C9A0
 0001:0000B9A8 _Unit2.gdi32.RealizePalette_0040C9A8
 0001:0000B9B0 _Unit2.gdi32.RectVisible_0040C9B0
 0001:0000B9B8 _Unit2.gdi32.Rectangle_0040C9B8
 0001:0000B9C0 _Unit2.gdi32.ResizePalette_0040C9C0
 0001:0000B9C8 _Unit2.gdi32.RestoreDC_0040C9C8
 0001:0000B9D0 _Unit2.gdi32.RoundRect_0040C9D0
 0001:0000B9D8 _Unit2.gdi32.SaveDC_0040C9D8
 0001:0000B9E0 _Unit2.gdi32.SelectClipRgn_0040C9E0
 0001:0000B9E8 _Unit2.gdi32.SelectObject_0040C9E8
 0001:0000B9F0 _Unit2.gdi32.SelectPalette_0040C9F0
 0001:0000B9F8 _Unit2.gdi32.SetBkColor_0040C9F8
 0001:0000BA00 _Unit2.gdi32.SetBkMode_0040CA00
 0001:0000BA08 _Unit2.gdi32.SetBrushOrgEx_0040CA08
 0001:0000BA10 _Unit2.gdi32.SetDIBColorTable_0040CA10
 0001:0000BA18 _Unit2.gdi32.SetDIBits_0040CA18
 0001:0000BA20 _Unit2.gdi32.SetEnhMetaFileBits_0040CA20
 0001:0000BA28 _Unit2.gdi32.SetMapMode_0040CA28
 0001:0000BA30 _Unit2.gdi32.SetPixel_0040CA30
 0001:0000BA38 _Unit2.gdi32.SetROP2_0040CA38
 0001:0000BA40 _Unit2.gdi32.SetStretchBltMode_0040CA40
 0001:0000BA48 _Unit2.gdi32.SetTextColor_0040CA48
 0001:0000BA50 _Unit2.gdi32.SetViewportOrgEx_0040CA50
 0001:0000BA58 _Unit2.gdi32.SetWinMetaFileBits_0040CA58
 0001:0000BA60 _Unit2.gdi32.SetWindowOrgEx_0040CA60
 0001:0000BA68 _Unit2.gdi32.StretchBlt_0040CA68
 0001:0000BA70 _Unit2.gdi32.StretchDIBits_0040CA70
 0001:0000BA78 _Unit2.gdi32.TextOutW_0040CA78
 0001:0000BA80 _Unit2.gdi32.UnrealizeObject_0040CA80
 0001:0000BA88 _Unit2.user32.ActivateKeyboardLayout_0040CA88
 0001:0000BA90 _Unit2.user32.AdjustWindowRectEx_0040CA90
 0001:0000BA98 _Unit2.user32.BeginPaint_0040CA98
 0001:0000BAA0 _Unit2.user32.dll_0040CAA0
 0001:0000BAB0 _Unit2.user32.CallNextHookEx_0040CAB0
 0001:0000BAB8 _Unit2.user32.CallWindowProcW_0040CAB8
 0001:0000BAC0 _Unit2.user32.CharLowerW_0040CAC0
 0001:0000BAC8 _Unit2.user32.CharLowerBuffW_0040CAC8
 0001:0000BAD0 _Unit2.user32.CharNextW_0040CAD0
 0001:0000BAD8 _Unit2.user32.CharUpperW_0040CAD8
 0001:0000BAE0 _Unit2.user32.CharUpperBuffW_0040CAE0
 0001:0000BAE8 _Unit2.user32.CheckMenuItem_0040CAE8
 0001:0000BAF0 _Unit2.user32.ClientToScreen_0040CAF0
 0001:0000BAF8 _Unit2.user32.CloseClipboard_0040CAF8
 0001:0000BB00 _Unit2.user32.CountClipboardFormats_0040CB00
 0001:0000BB08 _Unit2.user32.CreateIcon_0040CB08
 0001:0000BB10 _Unit2.user32.CreateMenu_0040CB10
 0001:0000BB18 _Unit2.user32.CreatePopupMenu_0040CB18
 0001:0000BB20 _Unit2.user32.DefFrameProcW_0040CB20
 0001:0000BB28 _Unit2.user32.DefMDIChildProcW_0040CB28
 0001:0000BB30 _Unit2.user32.DefWindowProcW_0040CB30
 0001:0000BB38 _Unit2.user32.DeleteMenu_0040CB38
 0001:0000BB40 _Unit2.user32.DestroyCursor_0040CB40
 0001:0000BB48 _Unit2.user32.DestroyIcon_0040CB48
 0001:0000BB50 _Unit2.user32.DestroyMenu_0040CB50
 0001:0000BB58 _Unit2.user32.DestroyWindow_0040CB58
 0001:0000BB60 _Unit2.user32.DispatchMessageW_0040CB60
 0001:0000BB68 _Unit2.user32.DispatchMessageA_0040CB68
 0001:0000BB70 _Unit2.user32.DispatchMessageW_0040CB70
 0001:0000BB78 _Unit2.user32.DrawEdge_0040CB78
 0001:0000BB80 _Unit2.user32.DrawFocusRect_0040CB80
 0001:0000BB88 _Unit2.user32.DrawFrameControl_0040CB88
 0001:0000BB90 _Unit2.user32.DrawIcon_0040CB90
 0001:0000BB98 _Unit2.user32.DrawIconEx_0040CB98
 0001:0000BBA0 _Unit2.user32.DrawMenuBar_0040CBA0
 0001:0000BBA8 _Unit2.user32.DrawTextW_0040CBA8
 0001:0000BBB0 _Unit2.user32.DrawTextW_0040CBB0
 0001:0000BBB8 _Unit2.user32.DrawTextExW_0040CBB8
 0001:0000BBC0 _Unit2.user32.EmptyClipboard_0040CBC0
 0001:0000BBC8 _Unit2.user32.EnableMenuItem_0040CBC8
 0001:0000BBD0 _Unit2.user32.EnableScrollBar_0040CBD0
 0001:0000BBD8 _Unit2.user32.EnableWindow_0040CBD8
 0001:0000BBE0 _Unit2.user32.EndPaint_0040CBE0
 0001:0000BBE8 _Unit2.user32.EnumChildWindows_0040CBE8
 0001:0000BBF0 _Unit2.user32.EnumClipboardFormats_0040CBF0
 0001:0000BBF8 _Unit2.user32.EnumThreadWindows_0040CBF8
 0001:0000BC00 _Unit2.user32.EnumWindows_0040CC00
 0001:0000BC08 _Unit2.user32.FillRect_0040CC08
 0001:0000BC10 _Unit2.user32.FindWindowW_0040CC10
 0001:0000BC18 _Unit2.user32.FindWindowExW_0040CC18
 0001:0000BC20 _Unit2.user32.FrameRect_0040CC20
 0001:0000BC28 _Unit2.user32.GetActiveWindow_0040CC28
 0001:0000BC30 _Unit2.user32.GetCapture_0040CC30
 0001:0000BC38 _Unit2.user32.GetClassInfoW_0040CC38
 0001:0000BC40 _Unit2.user32.GetClassLongW_0040CC40
 0001:0000BC48 _Unit2.user32.GetClientRect_0040CC48
 0001:0000BC50 _Unit2.user32.GetClipboardData_0040CC50
 0001:0000BC58 _Unit2.user32.GetCursor_0040CC58
 0001:0000BC60 _Unit2.user32.GetCursorPos_0040CC60
 0001:0000BC68 _Unit2.user32.GetDC_0040CC68
 0001:0000BC70 _Unit2.user32.GetDCEx_0040CC70
 0001:0000BC78 _Unit2.user32.GetDesktopWindow_0040CC78
 0001:0000BC80 _Unit2.user32.GetFocus_0040CC80
 0001:0000BC88 _Unit2.user32.GetForegroundWindow_0040CC88
 0001:0000BC90 _Unit2.user32.GetIconInfo_0040CC90
 0001:0000BC98 _Unit2.user32.GetKeyNameTextW_0040CC98
 0001:0000BCA0 _Unit2.user32.GetKeyState_0040CCA0
 0001:0000BCA8 _Unit2.user32.GetKeyboardLayout_0040CCA8
 0001:0000BCB0 _Unit2.user32.GetKeyboardLayoutList_0040CCB0
 0001:0000BCB8 _Unit2.user32.GetKeyboardLayoutNameW_0040CCB8
 0001:0000BCC0 _Unit2.user32.GetKeyboardState_0040CCC0
 0001:0000BCC8 _Unit2.user32.GetLastActivePopup_0040CCC8
 0001:0000BCD0 _Unit2.user32.GetMenu_0040CCD0
 0001:0000BCD8 _Unit2.user32.GetMenuItemCount_0040CCD8
 0001:0000BCE0 _Unit2.user32.GetMenuItemID_0040CCE0
 0001:0000BCE8 _Unit2.user32.GetMenuItemInfoW_0040CCE8
 0001:0000BCF0 _Unit2.user32.GetMenuState_0040CCF0
 0001:0000BCF8 _Unit2.user32.GetMenuStringW_0040CCF8
 0001:0000BD00 _Unit2.user32.GetMessageW_0040CD00
 0001:0000BD08 _Unit2.user32.GetMessageExtraInfo_0040CD08
 0001:0000BD10 _Unit2.user32.GetMessagePos_0040CD10
 0001:0000BD18 _Unit2.user32.GetMessageTime_0040CD18
 0001:0000BD20 _Unit2.user32.GetWindow_0040CD20
 0001:0000BD28 _Unit2.user32.GetParent_0040CD28
 0001:0000BD30 _Unit2.user32.GetPropW_0040CD30
 0001:0000BD38 _Unit2.user32.GetScrollInfo_0040CD38
 0001:0000BD40 _Unit2.user32.GetScrollPos_0040CD40
 0001:0000BD48 _Unit2.user32.GetScrollRange_0040CD48
 0001:0000BD50 _Unit2.user32.GetSubMenu_0040CD50
 0001:0000BD58 _Unit2.user32.GetSysColor_0040CD58
 0001:0000BD60 _Unit2.user32.GetSysColorBrush_0040CD60
 0001:0000BD68 _Unit2.user32.GetSystemMenu_0040CD68
 0001:0000BD70 _Unit2.user32.GetSystemMetrics_0040CD70
 0001:0000BD78 _Unit2.user32.GetTopWindow_0040CD78
 0001:0000BD80 _Unit2.user32.GetWindow_0040CD80
 0001:0000BD88 _Unit2.user32.GetWindowDC_0040CD88
 0001:0000BD90 _Unit2.user32.GetWindowInfo_0040CD90
 0001:0000BD98 _Unit2.user32.GetWindowLongW_0040CD98
 0001:0000BDA0 _Unit2.user32.GetWindowLongW_0040CDA0
 0001:0000BDA8 _Unit2.user32.GetWindowPlacement_0040CDA8
 0001:0000BDB0 _Unit2.user32.GetWindowRect_0040CDB0
 0001:0000BDB8 _Unit2.user32.GetWindowTextW_0040CDB8
 0001:0000BDC0 _Unit2.user32.GetWindowThreadProcessId_0040CDC0
 0001:0000BDC8 _Unit2.user32.GetWindowThreadProcessId_0040CDC8
 0001:0000BDD0 _Unit2.user32.InflateRect_0040CDD0
 0001:0000BDD8 _Unit2.user32.InsertMenuW_0040CDD8
 0001:0000BDE0 _Unit2.user32.InsertMenuItemW_0040CDE0
 0001:0000BDE8 _Unit2.user32.InvalidateRect_0040CDE8
 0001:0000BDF0 _Unit2.user32.InvalidateRect_0040CDF0
 0001:0000BDF8 _Unit2.user32.IsChild_0040CDF8
 0001:0000BE00 _Unit2.user32.IsDialogMessageA_0040CE00
 0001:0000BE08 _Unit2.user32.IsDialogMessageW_0040CE08
 0001:0000BE10 _Unit2.user32.IsIconic_0040CE10
 0001:0000BE18 _Unit2.user32.IsWindow_0040CE18
 0001:0000BE20 _Unit2.user32.IsWindowEnabled_0040CE20
 0001:0000BE28 _Unit2.user32.IsWindowUnicode_0040CE28
 0001:0000BE30 _Unit2.user32.IsWindowVisible_0040CE30
 0001:0000BE38 _Unit2.user32.IsZoomed_0040CE38
 0001:0000BE40 _Unit2.user32.KillTimer_0040CE40
 0001:0000BE48 _Unit2.user32.LoadBitmapW_0040CE48
 0001:0000BE50 _Unit2.user32.LoadCursorW_0040CE50
 0001:0000BE58 _Unit2.user32.LoadIconW_0040CE58
 0001:0000BE60 _Unit2.user32.LoadKeyboardLayoutW_0040CE60
 0001:0000BE68 _Unit2.user32.LoadStringW_0040CE68
 0001:0000BE70 _Unit2.user32.MapVirtualKeyW_0040CE70
 0001:0000BE78 _Unit2.user32.MapVirtualKeyExW_0040CE78
 0001:0000BE80 _Unit2.user32.MapWindowPoints_0040CE80
 0001:0000BE88 _Unit2.user32.MessageBeep_0040CE88
 0001:0000BE90 _Unit2.user32.MessageBoxW_0040CE90
 0001:0000BE98 _Unit2.user32.MsgWaitForMultipleObjects_0040CE98
 0001:0000BEA0 _Unit2.user32.MsgWaitForMultipleObjectsEx_0040CEA0
 0001:0000BEA8 _Unit2.user32.OffsetRect_0040CEA8
 0001:0000BEB0 _Unit2.user32.OpenClipboard_0040CEB0
 0001:0000BEB8 _Unit2.user32.PeekMessageW_0040CEB8
 0001:0000BEC0 _Unit2.user32.PeekMessageA_0040CEC0
 0001:0000BEC8 _Unit2.user32.PeekMessageW_0040CEC8
 0001:0000BED0 _Unit2.user32.PostMessageW_0040CED0
 0001:0000BED8 _Unit2.user32.PostQuitMessage_0040CED8
 0001:0000BEE0 _Unit2.user32.PtInRect_0040CEE0
 0001:0000BEE8 _Unit2.user32.RedrawWindow_0040CEE8
 0001:0000BEF0 _Unit2.user32.RegisterClassW_0040CEF0
 0001:0000BEF8 _Unit2.user32.RegisterClipboardFormatW_0040CEF8
 0001:0000BF00 _Unit2.user32.RegisterHotKey_0040CF00
 0001:0000BF08 _Unit2.user32.RegisterWindowMessageW_0040CF08
 0001:0000BF10 _Unit2.user32.ReleaseCapture_0040CF10
 0001:0000BF18 _Unit2.user32.ReleaseDC_0040CF18
 0001:0000BF20 _Unit2.user32.RemoveMenu_0040CF20
 0001:0000BF28 _Unit2.user32.RemovePropW_0040CF28
 0001:0000BF30 _Unit2.user32.ScreenToClient_0040CF30
 0001:0000BF38 _Unit2.$thunk_AddClipboardFormatListener_0040CF38
 0001:0000BF48 _Unit2.PhysicalToLogicalPoint_0040CF48
 0001:0000BF50 _Unit2.user32.ScrollWindow_0040CF50
 0001:0000BF58 _Unit2.user32.SendMessageW_0040CF58
 0001:0000BF60 _Unit2.user32.SendMessageA_0040CF60
 0001:0000BF68 _Unit2.user32.SendMessageW_0040CF68
 0001:0000BF70 _Unit2.user32.SetActiveWindow_0040CF70
 0001:0000BF78 _Unit2.user32.SetCapture_0040CF78
 0001:0000BF80 _Unit2.user32.SetClassLongW_0040CF80
 0001:0000BF88 _Unit2.user32.SetClipboardData_0040CF88
 0001:0000BF90 _Unit2.user32.SetCursor_0040CF90
 0001:0000BF98 _Unit2.user32.SetCursorPos_0040CF98
 0001:0000BFA0 _Unit2.user32.SetFocus_0040CFA0
 0001:0000BFA8 _Unit2.user32.SetForegroundWindow_0040CFA8
 0001:0000BFB0 _Unit2.user32.SetMenu_0040CFB0
 0001:0000BFB8 _Unit2.user32.SetMenuItemInfoW_0040CFB8
 0001:0000BFC0 _Unit2.user32.SetParent_0040CFC0
 0001:0000BFC8 _Unit2.user32.SetPropW_0040CFC8
 0001:0000BFD0 _Unit2.user32.SetRect_0040CFD0
 0001:0000BFD8 _Unit2.user32.SetScrollInfo_0040CFD8
 0001:0000BFE0 _Unit2.user32.SetScrollPos_0040CFE0
 0001:0000BFE8 _Unit2.user32.SetScrollRange_0040CFE8
 0001:0000BFF0 _Unit2.user32.SetTimer_0040CFF0
 0001:0000BFF8 _Unit2.user32.SetWindowLongW_0040CFF8
 0001:0000C000 _Unit2.user32.SetWindowLongW_0040D000
 0001:0000C008 _Unit2.user32.SetWindowPlacement_0040D008
 0001:0000C010 _Unit2.user32.SetWindowPos_0040D010
 0001:0000C018 _Unit2.user32.SetWindowTextW_0040D018
 0001:0000C020 _Unit2.user32.SetWindowsHookExW_0040D020
 0001:0000C028 _Unit2.user32.ShowOwnedPopups_0040D028
 0001:0000C030 _Unit2.user32.ShowScrollBar_0040D030
 0001:0000C038 _Unit2.user32.ShowWindow_0040D038
 0001:0000C040 _Unit2.user32.SystemParametersInfoW_0040D040
 0001:0000C048 _Unit2.user32.SystemParametersInfoW_0040D048
 0001:0000C050 _Unit2.user32.SystemParametersInfoW_0040D050
 0001:0000C058 _Unit2.user32.TrackPopupMenu_0040D058
 0001:0000C060 _Unit2.user32.TranslateMDISysAccel_0040D060
 0001:0000C068 _Unit2.user32.TranslateMessage_0040D068
 0001:0000C070 _Unit2.user32.UnhookWindowsHookEx_0040D070
 0001:0000C078 _Unit2.user32.UnloadKeyboardLayout_0040D078
 0001:0000C080 _Unit2.user32.UnregisterClassW_0040D080
 0001:0000C088 _Unit2.user32.UnregisterHotKey_0040D088
 0001:0000C090 _Unit2.user32.UpdateWindow_0040D090
 0001:0000C098 _Unit2.user32.WaitMessage_0040D098
 0001:0000C0A0 _Unit2.user32.WindowFromPoint_0040D0A0
 0001:0000C0A8 _Unit2.GlobalAllocPtr_0040D0A8
 0001:0000C0B8 _Unit2.GlobalFreePtr_0040D0B8
 0001:0000C0CC _Unit2.user32.CreateWindowExW_0040D0CC
 0001:0000C0D4 _Unit2.CreateWindowEx_0040D0D4
 0001:0000C12C _Unit2.HwndMSWheel_0040D12C
 0001:0000C274 _Unit2.$thunk_CalculatePopupWindowPosition_0040D274
 0001:0000C284 _Unit2.GetGestureInfo_0040D284
 0001:0000C28C _Unit2.$thunk_CloseGestureInfoHandle_0040D28C
 0001:0000C29C _Unit2.CloseGestureInfoHandle_0040D29C
 0001:0000C2A4 _Unit2.$thunk_CloseTouchInputHandle_0040D2A4
 0001:0000C2B4 _Unit2.SetGestureConfig_0040D2B4
 0001:0000C2BC _Unit2.InitVersionInfo_0040D2BC
 0001:0000C2F8 _Unit2.tagNONCLIENTMETRICSW.SizeOf_0040D2F8
 0001:0000C310 _Unit2.Finalization_0040D310
 0001:0000C4FC _Unit3.SendTextMessage_0040D4FC
 0001:0000C558 _Unit3.SendStructMessage_0040D558
 0001:0000CAD0 _Unit3.TCharacter.CheckLetter_0040DAD0
 0001:0000CADC _Unit3.TCharacter.CheckLetterOrDigit_0040DADC
 0001:0000CAEC _Unit3.TCharacter.IsLatin1_0040DAEC
 0001:0000CAF8 _Unit3.TCharacter.IsLetter_0040DAF8
 0001:0000CB84 _Unit3.TCharacter.IsLetterOrDigit_0040DB84
 0001:0000CBEC _Unit3.TCharacter.IsAscii_0040DBEC
 0001:0000CBF8 _Unit3.TCharacter.GetUnicodeCategory_0040DBF8
 0001:0000CC58 _Unit3.bin_data_0040DC58
 0001:00015B94 _Unit3.TCharacter.Initialize_00416B94
 0001:00015D98 _Unit3.Finalization_00416D98
 0001:00019B28 SysUtils.InterlockedCompareExchangePointer_0041AB28
 0001:00019B30 SysUtils.sub_0041AB30_0041AB30
 0001:00019B38 SysUtils.sub_0041AB38_0041AB38
 0001:00019B40 SysUtils.InterlockedIncrement_0041AB40
 0001:00019B50 SysUtils.InterlockedDecrement_0041AB50
 0001:00019B60 SysUtils.InterlockedExchange_0041AB60
 0001:00019B6C SysUtils.sub_0041AB6C_0041AB6C
 0001:00019B74 SysUtils.DivMod_0041AB74
 0001:00019B90 SysUtils.ConvertError_0041AB90
 0001:00019BA8 SysUtils.ConvertErrorFmt_0041ABA8
 0001:00019BCC SysUtils.DoExitProc_0041ABCC
 0001:00019BF8 SysUtils.AddExitProc_0041ABF8
 0001:00019C30 SysUtils.IsLeadChar_0041AC30
 0001:00019C40 SysUtils.CharInSet_0041AC40
 0001:00019C50 SysUtils.UpperCase_0041AC50
 0001:00019CA0 SysUtils.LowerCase_0041ACA0
 0001:00019CF0 SysUtils.CompareStr_0041ACF0
 0001:00019D5C SysUtils.CompareMem_0041AD5C
 0001:00019DF0 SysUtils.CompareText_0041ADF0
 0001:00019EA0 SysUtils.CompareText_0041AEA0
 0001:00019EB4 SysUtils.SameText_0041AEB4
 0001:00019ED8 SysUtils.AnsiUpperCase_0041AED8
 0001:00019F14 SysUtils.AnsiLowerCase_0041AF14
 0001:00019F50 SysUtils.AnsiCompareStr_0041AF50
 0001:00019F94 SysUtils.AnsiCompareText_0041AF94
 0001:00019FD8 SysUtils.AnsiStrLIComp_0041AFD8
 0001:00019FF8 SysUtils.Trim_0041AFF8
 0001:0001A068 SysUtils.AnsiQuotedStr_0041B068
 0001:0001A1DC SysUtils.AnsiExtractQuotedStr_0041B1DC
 0001:0001A33C SysUtils.AdjustLineBreaks_0041B33C
 0001:0001A450 SysUtils.IsValidIdent_0041B450
 0001:0001A50C SysUtils.CvtIntW_0041B50C
 0001:0001A56C SysUtils.IntToStr_0041B56C
 0001:0001A590 SysUtils.UIntToStr_0041B590
 0001:0001A5CC SysUtils.CvtInt64W_0041B5CC
 0001:0001A6B0 SysUtils.IntToStr_0041B6B0
 0001:0001A6DC SysUtils.IntToHex_0041B6DC
 0001:0001A708 SysUtils.StrToInt_0041B708
 0001:0001A744 SysUtils.StrToIntDef_0041B744
 0001:0001A75C SysUtils.TryStrToInt_0041B75C
 0001:0001A77C SysUtils.StrToInt64Def_0041B77C
 0001:0001A7B0 SysUtils.TryStrToInt64_0041B7B0
 0001:0001A7D0 SysUtils.VerifyBoolStrArray_0041B7D0
 0001:0001A870 SysUtils.CompareWith_0041B870
 0001:0001A8C0 SysUtils.TryStrToBool_0041B8C0
 0001:0001A968 SysUtils.BoolToStr_0041B968
 0001:0001A9B4 SysUtils.FileOpen_0041B9B4
 0001:0001AA0C SysUtils.FileCreate_0041BA0C
 0001:0001AA1C SysUtils.FileCreate_0041BA1C
 0001:0001AA70 SysUtils.FileRead_0041BA70
 0001:0001AA9C SysUtils.FileWrite_0041BA9C
 0001:0001AAC8 SysUtils.FileSeek_0041BAC8
 0001:0001AAD4 SysUtils.FileSeek_0041BAD4
 0001:0001AB24 SysUtils.ExistsLockedOrShared_0041BB24
 0001:0001AB64 SysUtils.FileExists_0041BB64
 0001:0001ABFC SysUtils.DirectoryExists_0041BBFC
 0001:0001ADC4 SysUtils.FindMatchingFile_0041BDC4
 0001:0001AE48 SysUtils.FindFirst_0041BE48
 0001:0001AE98 SysUtils.FindNext_0041BE98
 0001:0001AEBC SysUtils.FindClose_0041BEBC
 0001:0001AED8 SysUtils.AnsiLastChar_0041BED8
 0001:0001AF1C SysUtils.LastDelimiter_0041BF1C
 0001:0001AF64 SysUtils.FindDelimiter_0041BF64
 0001:0001AFB8 SysUtils.ChangeFileExt_0041BFB8
 0001:0001B054 SysUtils.ExtractFilePath_0041C054
 0001:0001B090 SysUtils.ExtractFileName_0041C090
 0001:0001B0D0 SysUtils.ExtractFileExt_0041C0D0
 0001:0001B124 SysUtils.ExpandFileName_0041C124
 0001:0001B1B8 SysUtils.BackfillGetDiskFreeSpaceEx_0041C1B8
 0001:0001B22C SysUtils.CreateDir_0041C22C
 0001:0001B248 SysUtils.StrLen_0041C248
 0001:0001B278 SysUtils.StrLen_0041C278
 0001:0001B298 SysUtils.StrEnd_0041C298
 0001:0001B2B4 SysUtils.StrMove_0041C2B4
 0001:0001B2C4 SysUtils.StrCopy_0041C2C4
 0001:0001B2FC SysUtils.StrLCopy_0041C2FC
 0001:0001B330 SysUtils.StrLCopy_0041C330
 0001:0001B36C SysUtils.StrPCopy_0041C36C
 0001:0001B394 SysUtils.StrPCopy_0041C394
 0001:0001B3BC SysUtils.StrPLCopy_0041C3BC
 0001:0001B3DC SysUtils.StrComp_0041C3DC
 0001:0001B40C SysUtils.StrLComp_0041C40C
 0001:0001B434 SysUtils.StrLComp_0041C434
 0001:0001B480 SysUtils.StrLIComp_0041C480
 0001:0001B4C4 SysUtils.StrLIComp_0041C4C4
 0001:0001B530 SysUtils.StrScan_0041C530
 0001:0001B54C SysUtils.StrRScan_0041C54C
 0001:0001B57C SysUtils.StrPos_0041C57C
 0001:0001B5D4 SysUtils.StrPosLen_0041C5D4
 0001:0001B634 SysUtils.StrPas_0041C634
 0001:0001B64C SysUtils.StrPas_0041C64C
 0001:0001B660 SysUtils.WideStrAlloc_0041C660
 0001:0001B678 SysUtils.StrAlloc_0041C678
 0001:0001B680 SysUtils.StrBufSize_0041C680
 0001:0001B68C SysUtils.StrNew_0041C68C
 0001:0001B6B8 SysUtils.StrDispose_0041C6B8
 0001:0001B6C8 SysUtils.FormatError_0041C6C8
 0001:0001B710 SysUtils.FormatBuf_0041C710
 0001:0001B730 SysUtils.FormatBuf_0041C730
 0001:0001B750 SysUtils.StrFmt_0041C750
 0001:0001B768 SysUtils.StrFmt_0041C768
 0001:0001B7B0 SysUtils.StrLFmt_0041C7B0
 0001:0001B7CC SysUtils.StrLFmt_0041C7CC
 0001:0001B814 SysUtils.Format_0041C814
 0001:0001B83C SysUtils.Format_0041C83C
 0001:0001B854 SysUtils.FmtStr_0041C854
 0001:0001B86C SysUtils.FmtStr_0041C86C
 0001:0001B964 SysUtils.WideFormatError_0041C964
 0001:0001B9E4 SysUtils.WideFormatVarToStr_0041C9E4
 0001:0001BA08 SysUtils.FloatToTextEx_0041CA08
 0001:0001BA28 SysUtils.WideFormatBuf_0041CA28
 0001:0001BE2C SysUtils.PutExponent_0041CE2C
 0001:0001BE90 SysUtils.FloatToText_0041CE90
 0001:0001C1B0 SysUtils.FloatToDecimal_0041D1B0
 0001:0001C3DC SysUtils.TextToFloat_0041D3DC
 0001:0001C528 SysUtils.FloatToStr_0041D528
 0001:0001C55C SysUtils.CurrToStr_0041D55C
 0001:0001C590 SysUtils.StrToFloat_0041D590
 0001:0001C5D4 SysUtils.TryStrToFloat_0041D5D4
 0001:0001C5E0 SysUtils.TryStrToFloat_0041D5E0
 0001:0001C600 SysUtils.TryStrToFloat_0041D600
 0001:0001C674 SysUtils.TryStrToFloat_0041D674
 0001:0001C6E8 SysUtils.TryStrToCurr_0041D6E8
 0001:0001C708 SysUtils.DateTimeToTimeStamp_0041D708
 0001:0001C74C SysUtils.ValidateTimeStamp_0041D74C
 0001:0001C78C SysUtils.TimeStampToDateTime_0041D78C
 0001:0001C7C8 SysUtils.TryEncodeTime_0041D7C8
 0001:0001C840 SysUtils.EncodeTime_0041D840
 0001:0001C880 SysUtils.DecodeTime_0041D880
 0001:0001C8DC SysUtils.IsLeapYear_0041D8DC
 0001:0001C918 SysUtils.TryEncodeDate_0041D918
 0001:0001C9E4 SysUtils.EncodeDate_0041D9E4
 0001:0001CA14 SysUtils.DecodeDateFully_0041DA14
 0001:0001CB60 SysUtils.DecodeDate_0041DB60
 0001:0001CB80 SysUtils.DayOfWeek_0041DB80
 0001:0001CBA8 SysUtils.Date_0041DBA8
 0001:0001CBD4 SysUtils.Time_0041DBD4
 0001:0001CC08 SysUtils.Now_0041DC08
 0001:0001CC58 SysUtils.CurrentYear_0041DC58
 0001:0001CC6C SysUtils.AppendChars_0041DC6C
 0001:0001CCB0 SysUtils.AppendString_0041DCB0
 0001:0001CCCC SysUtils.AppendNumber_0041DCCC
 0001:0001CD18 SysUtils.GetCount_0041DD18
 0001:0001CD4C SysUtils.GetDate_0041DD4C
 0001:0001CD84 SysUtils.GetTime_0041DD84
 0001:0001CDC4 SysUtils.ConvertEraString_0041DDC4
 0001:0001CF4C SysUtils.ConvertYearString_0041DF4C
 0001:0001D910 SysUtils.DateTimeToString_0041E910
 0001:0001D970 SysUtils.DateToStr_0041E970
 0001:0001D988 SysUtils.TimeToStr_0041E988
 0001:0001D9A0 SysUtils.DateTimeToStr_0041E9A0
 0001:0001D9B8 SysUtils.FormatDateTime_0041E9B8
 0001:0001D9D4 SysUtils.ScanBlanks_0041E9D4
 0001:0001D9FC SysUtils.ScanNumber_0041E9FC
 0001:0001DA94 SysUtils.ScanString_0041EA94
 0001:0001DB2C SysUtils.ScanChar_0041EB2C
 0001:0001DB64 SysUtils.GetDateOrder_0041EB64
 0001:0001DBB8 SysUtils.ScanToNumber_0041EBB8
 0001:0001DC18 SysUtils.GetEraYearOffset_0041EC18
 0001:0001DC6C SysUtils.EraToYear_0041EC6C
 0001:0001DCC8 SysUtils.ScanDate_0041ECC8
 0001:0001E024 SysUtils.ScanTime_0041F024
 0001:0001E224 SysUtils.StrToDate_0041F224
 0001:0001E260 SysUtils.TryStrToDate_0041F260
 0001:0001E2A0 SysUtils.StrToDateTime_0041F2A0
 0001:0001E2DC SysUtils.TryStrToDateTime_0041F2DC
 0001:0001E31C SysUtils.StrToTime_0041F31C
 0001:0001E358 SysUtils.TryStrToTime_0041F358
 0001:0001E574 SysUtils.SysErrorMessage_0041F574
 0001:0001E610 SysUtils.GetLocaleStr_0041F610
 0001:0001E65C SysUtils.GetLocaleChar_0041F65C
 0001:0001E688 SysUtils.TFormatSettings.Create_0041F688
 0001:0001EA64 SysUtils.TFormatSettings.Create_0041FA64
 0001:0001EB0C SysUtils.TFormatSettings.AdjustLocaleName_0041FB0C
 0001:0001EB40 SysUtils.TFormatSettings.GetDayNames_0041FB40
 0001:0001EBFC SysUtils.TFormatSettings.GetMonthNames_0041FBFC
 0001:0001ECA0 SysUtils.TFormatSettings.GetString_0041FCA0
 0001:0001ECDC SysUtils.FixDateSeparator_0041FCDC
 0001:0001ED0C SysUtils.TFormatSettings.TranslateDateFormat_0041FD0C
 0001:0001EFD8 SysUtils.EnumEraNames_0041FFD8
 0001:0001F014 SysUtils.EnumEraYearOffsets_00420014
 0001:0001F08C SysUtils.GetEraNamesAndYearOffsets_0042008C
 0001:0001F140 SysUtils.ConvertAddr_00420140
 0001:0001F14C SysUtils.ExceptionErrorMessage_0042014C
 0001:0001F33C SysUtils.ShowException_0042033C
 0001:0001F480 SysUtils.RaiseEAbort_00420480
 0001:0001F4A0 SysUtils.Abort_004204A0
 0001:0001F4AC SysUtils.OutOfMemoryError_004204AC
 0001:0001F4B8 SysUtils.Exception.Create_004204B8
 0001:0001F4F4 SysUtils.Exception.CreateFmt_004204F4
 0001:0001F574 SysUtils.Exception.CreateRes_00420574
 0001:0001F5B0 SysUtils.Exception.CreateResFmt_004205B0
 0001:0001F644 SysUtils.Exception.CreateHelp_00420644
 0001:0001F68C SysUtils.Exception.Destroy_0042068C
 0001:0001F6D0 SysUtils.Exception.GetBaseException_004206D0
 0001:0001F6DC SysUtils.Exception.GetStackTrace_004206DC
 0001:0001F704 SysUtils.Exception.RaisingException_00420704
 0001:0001F730 SysUtils.Exception.SetInnerException_00420730
 0001:0001F758 SysUtils.Exception.SetStackInfo_00420758
 0001:0001F75C SysUtils.Exception.ToString_0042075C
 0001:0001F7B4 SysUtils.EHeapException.FreeInstance_004207B4
 0001:0001F7C0 SysUtils.EHeapException.RaisingException_004207C0
 0001:0001F7C8 SysUtils.CreateInOutError_004207C8
 0001:0001F828 SysUtils.ErrorHandler_00420828
 0001:0001F888 SysUtils.AssertErrorHandler_00420888
 0001:0001F970 SysUtils.AbstractErrorHandler_00420970
 0001:0001F988 SysUtils.MapException_00420988
 0001:0001FA08 SysUtils.GetExceptionClass_00420A08
 0001:0001FA2C SysUtils.CreateAVObject_00420A2C
 0001:0001FBF8 SysUtils.GetExceptionObject_00420BF8
 0001:0001FCD8 SysUtils.RaiseExceptObject_00420CD8
 0001:0001FCFC SysUtils.ExceptHandler_00420CFC
 0001:0001FD0C SysUtils.InitExceptions_00420D0C
 0001:0001FD9C SysUtils.DoneExceptions_00420D9C
 0001:0001FE1C SysUtils.Finalization_00420E1C
 0001:0001FFEC _Unit4.sub_00420FEC_00420FEC
 0001:0001FFF8 _Unit4.sub_00420FF8_00420FF8
 0001:00020028 _Unit4.sub_00421028_00421028
 0001:00020058 _Unit4.sub_00421058_00421058
 0001:0002008C _Unit4.sub_0042108C_0042108C
 0001:000200FC _Unit4.CheckWin32Version_004210FC
 0001:0002011C _Unit4.GetFileVersion_0042111C
 0001:00020208 _Unit4.sub_00421208_00421208
 0001:0002027C _Unit4.sub_0042127C_0042127C
 0001:000202A0 _Unit4.ByteType_004212A0
 0001:000202F0 _Unit4.sub_004212F0_004212F0
 0001:00020314 _Unit4.ByteToCharLen_00421314
 0001:0002031C _Unit4.sub_0042131C_0042131C
 0001:00020380 _Unit4.sub_00421380_00421380
 0001:00020388 _Unit4.sub_00421388_00421388
 0001:00020414 _Unit4.sub_00421414_00421414
 0001:00020488 _Unit4.CharToByteIndex_00421488
 0001:00020490 _Unit4.sub_00421490_00421490
 0001:000204F4 _Unit4.CharToByteLen_004214F4
 0001:000204FC _Unit4.StrCharLength_004214FC
 0001:0002052C _Unit4.StrNextChar_0042152C
 0001:0002055C _Unit4.CharLength_0042155C
 0001:00020594 _Unit4.NextCharIndex_00421594
 0001:000205D4 _Unit4.IsPathDelimiter_004215D4
 0001:00020620 _Unit4.IsDelimiter_00421620
 0001:0002067C _Unit4.sub_0042167C_0042167C
 0001:000206CC _Unit4.ExcludeTrailingPathDelimiter_004216CC
 0001:0002071C _Unit4.AnsiPos_0042171C
 0001:0002077C _Unit4.AnsiLowerCaseFileName_0042177C
 0001:00020790 _Unit4.AnsiStrPos_00421790
 0001:00020798 _Unit4.AnsiStrRScan_00421798
 0001:000207A0 _Unit4.AnsiStrScan_004217A0
 0001:000207A8 _Unit4.InitLeadBytes_004217A8
 0001:00020804 _Unit4.InitSysLocale_00421804
 0001:00020898 _Unit4.GetFormatSettings_00421898
 0001:00020A68 _Unit4.StringReplace_00421A68
 0001:00020DA8 _Unit4.sub_00421DA8_00421DA8
 0001:00020DE0 _Unit4.sub_00421DE0_00421DE0
 0001:00020EF8 _Unit4.kernel32.Sleep_00421EF8
 0001:00020F00 _Unit4.RaiseLastOSError_00421F00
 0001:00020F0C _Unit4.sub_00421F0C_00421F0C
 0001:00020FA4 _Unit4.Win32Check_00421FA4
 0001:00020FB4 _Unit4.CallTerminateProcs_00421FB4
 0001:00020FD4 _Unit4.sub_00421FD4_00421FD4
 0001:00020FF8 _Unit4.sub_00421FF8_00421FF8
 0001:00021074 _Unit4.TThreadLocalCounter.Destroy_00422074
 0001:000210CC _Unit4.sub_004220CC_004220CC
 0001:000210E8 _Unit4.TThreadLocalCounter.Open_004220E8
 0001:00021160 _Unit4.TThreadLocalCounter.Delete_00422160
 0001:00021170 _Unit4.sub_00422170_00422170
 0001:000211B4 _Unit4.TMultiReadExclusiveWriteSynchronizer.Create_004221B4
 0001:00021228 _Unit4.TMultiReadExclusiveWriteSynchronizer.Destroy_00422228
 0001:00021270 _Unit4.sub_00422270_00422270
 0001:0002127C _Unit4.sub_0042227C_0042227C
 0001:00021288 _Unit4.sub_00422288_00422288
 0001:00021294 _Unit4.sub_00422294_00422294
 0001:000212A4 _Unit4.sub_004222A4_004222A4
 0001:000212B4 _Unit4.TMultiReadExclusiveWriteSynchronizer.BeginWrite_004222B4
 0001:00021360 _Unit4.TMultiReadExclusiveWriteSynchronizer.EndWrite_00422360
 0001:000213B0 _Unit4.TMultiReadExclusiveWriteSynchronizer.BeginRead_004223B0
 0001:00021420 _Unit4.TMultiReadExclusiveWriteSynchronizer.EndRead_00422420
 0001:00021488 _Unit4.FreeAndNil_00422488
 0001:00021498 _Unit4.Supports_00422498
 0001:000214BC _Unit4.Supports_004224BC
 0001:00021554 _Unit4.sub_00422554_00422554
 0001:000215A8 _Unit4.EnumLocalesCallback_004225A8
 0001:000215C0 _Unit4.GetLocaleDataW_004225C0
 0001:000215F8 _Unit4.TLanguages.LocalesCallback_004225F8
 0001:00021780 _Unit4.TLanguages.Create_00422780
 0001:000217C8 _Unit4.TLanguages.Destroy_004227C8
 0001:000217FC _Unit4.TLanguages.GetLocaleID_004227FC
 0001:00021808 _Unit4.TLanguages.IndexOf_00422808
 0001:00021848 _Unit4.Finalization_00422848
 0001:00021864 _Unit5.Languages_00422864
 0001:00021884 _Unit5.SafeLoadLibrary_00422884
 0001:00021908 _Unit5.sub_00422908_00422908
 0001:00021938 _Unit5.TEncoding.Clone_00422938
 0001:0002193C _Unit5.Finalization_0042293C
 0001:00021950 _Unit7.TEncoding.FreeEncodings_00422950
 0001:000219C0 _Unit7.TEncoding.GetASCII_004229C0
 0001:00021A30 _Unit7.TEncoding.GetBigEndianUnicode_00422A30
 0001:00021A68 _Unit7.TEncoding.GetBufferEncoding_00422A68
 0001:00021A84 _Unit7.ContainsPreamble_00422A84
 0001:00021AE0 _Unit7.TEncoding.GetBufferEncoding_00422AE0
 0001:00021BFC _Unit7.TEncoding.GetByteCount_00422BFC
 0001:00021C24 _Unit7.TEncoding.GetByteCount_00422C24
 0001:00021CD4 _Unit7.TEncoding.GetBytes_00422CD4
 0001:00021D24 _Unit7.TEncoding.GetBytes_00422D24
 0001:00021E70 _Unit7.TEncoding.GetCharCount_00422E70
 0001:00021E8C _Unit7.TEncoding.GetCharCount_00422E8C
 0001:00021F58 _Unit7.TEncoding.GetChars_00422F58
 0001:00022058 _Unit7.sub_00423058_00423058
 0001:0002205C _Unit7.TEncoding.GetDefault_0042305C
 0001:000220A0 _Unit7.sub_004230A0_004230A0
 0001:000220AC _Unit7.TEncoding.GetString_004230AC
 0001:000220D0 _Unit7.TEncoding.GetString_004230D0
 0001:00022140 _Unit7.TEncoding.GetUnicode_00423140
 0001:00022178 _Unit7.TEncoding.GetUTF7_00423178
 0001:000221B0 _Unit7.TEncoding.GetUTF8_004231B0
 0001:000221E8 _Unit7.TEncoding.IsStandardEncoding_004231E8
 0001:0002222C _Unit7.sub_0042322C_0042322C
 0001:00022270 _Unit7.TMBCSEncoding.Create_00423270
 0001:000222B8 _Unit7.TMBCSEncoding.Create_004232B8
 0001:00022344 _Unit7.TMBCSEncoding.Clone_00423344
 0001:00022368 _Unit7.sub_00423368_00423368
 0001:00022380 _Unit7.sub_00423380_00423380
 0001:000223A4 _Unit7.sub_004233A4_004233A4
 0001:000223B8 _Unit7.sub_004233B8_004233B8
 0001:000223D8 _Unit7.sub_004233D8_004233D8
 0001:000223DC _Unit7.sub_004233DC_004233DC
 0001:0002241C _Unit7.TMBCSEncoding.GetMaxByteCount_0042341C
 0001:00022424 _Unit7.TMBCSEncoding.GetMaxCharCount_00423424
 0001:00022428 _Unit7.TMBCSEncoding.GetPreamble_00423428
 0001:00022444 _Unit7.TUTF7Encoding.Create_00423444
 0001:00022484 _Unit7.TUTF7Encoding.Clone_00423484
 0001:00022494 _Unit7.TUTF7Encoding.GetMaxByteCount_00423494
 0001:0002249C _Unit7.TUTF7Encoding.GetMaxCharCount_0042349C
 0001:000224A0 _Unit7.TUTF8Encoding.Create_004234A0
 0001:000224E4 _Unit7.TUTF8Encoding.Clone_004234E4
 0001:000224F4 _Unit7.TUTF8Encoding.GetMaxByteCount_004234F4
 0001:000224FC _Unit7.TUTF8Encoding.GetMaxCharCount_004234FC
 0001:00022500 _Unit7.TUTF8Encoding.GetPreamble_00423500
 0001:00022588 _Unit7.TUnicodeEncoding.Create_00423588
 0001:000225B4 _Unit7.TUnicodeEncoding.Clone_004235B4
 0001:000225C4 _Unit7.sub_004235C4_004235C4
 0001:000225CC _Unit7.sub_004235CC_004235CC
 0001:000225E8 _Unit7.sub_004235E8_004235E8
 0001:000225F4 _Unit7.sub_004235F4_004235F4
 0001:00022614 _Unit7.sub_00423614_00423614
 0001:0002261C _Unit7.sub_0042361C_0042361C
 0001:0002265C _Unit7.TUnicodeEncoding.GetMaxByteCount_0042365C
 0001:00022664 _Unit7.TUnicodeEncoding.GetMaxCharCount_00423664
 0001:00022674 _Unit7.TUnicodeEncoding.GetPreamble_00423674
 0001:000226F4 _Unit7.TBigEndianUnicodeEncoding.Clone_004236F4
 0001:00022704 _Unit7.sub_00423704_00423704
 0001:00022738 _Unit7.sub_00423738_00423738
 0001:00022774 _Unit7.sub_00423774_00423774
 0001:0002277C _Unit7.sub_0042377C_0042377C
 0001:000227D8 _Unit7.TBigEndianUnicodeEncoding.GetPreamble_004237D8
 0001:00022A94 _Unit7.Finalization_00423A94
 0001:000233F8 _Unit8.ole32.IsEqualGUID_004243F8
 0001:00023400 _Unit8.ole32.IsEqualGUID_00424400
 0001:00023408 _Unit8.ole32.CoInitialize_00424408
 0001:00023410 _Unit8.ole32.CoUninitialize_00424410
 0001:00023418 _Unit8.ole32.CoGetClassObject_00424418
 0001:00023420 _Unit8.ole32.CoCreateInstance_00424420
 0001:00023428 _Unit8.ole32.StringFromCLSID_00424428
 0001:00023430 _Unit8.ole32.ProgIDFromCLSID_00424430
 0001:00023438 _Unit8.ole32.CLSIDFromProgID_00424438
 0001:00023440 _Unit8.ole32.CoTaskMemAlloc_00424440
 0001:00023448 _Unit8.ole32.CoTaskMemFree_00424448
 0001:00023450 _Unit8.ole32.OleInitialize_00424450
 0001:00023458 _Unit8.ole32.OleUninitialize_00424458
 0001:00023460 _Unit8.ole32.OleSetMenuDescriptor_00424460
 0001:00023468 _Unit8.ole32.OleDraw_00424468
 0001:00023470 _Unit8.ole32.IsAccelerator_00424470
 0001:00023478 _Unit8.ole32.CreateStreamOnHGlobal_00424478
 0001:00023480 _Unit8.oleaut32.SysFreeString_00424480
 0001:00023488 _Unit8.oleaut32.GetActiveObject_00424488
 0001:00023490 _Unit8.oleaut32.GetErrorInfo_00424490
 0001:00023498 _Unit8.oleaut32.VariantInit_00424498
 0001:000234A0 _Unit8.oleaut32.VariantClear_004244A0
 0001:000234A8 _Unit8.oleaut32.VariantCopy_004244A8
 0001:000234B0 _Unit8.oleaut32.VariantChangeType_004244B0
 0001:000234B8 _Unit8.sub_004244B8_004244B8
 0001:00023500 _Unit8.sub_00424500_00424500
 0001:0002350C _Unit8.sub_0042450C_0042450C
 0001:00023518 _Unit8.sub_00424518_00424518
 0001:0002392C _Unit8.oleaut32.SafeArrayCreate_0042492C
 0001:00023934 _Unit8.oleaut32.SafeArrayGetLBound_00424934
 0001:0002393C _Unit8.oleaut32.SafeArrayGetUBound_0042493C
 0001:00023944 _Unit8.oleaut32.SafeArrayGetElement_00424944
 0001:0002394C _Unit8.oleaut32.SafeArrayPtrOfIndex_0042494C
 0001:00023954 _Unit8.sub_00424954_00424954
 0001:00023980 _Unit8.sub_00424980_00424980
 0001:00023C98 _Unit8.Finalization_00424C98
 0001:00024B34 Variants.VarCastError_00425B34
 0001:00024B88 Variants.VarCastError_00425B88
 0001:00024C24 Variants.VarInvalidOp_00425C24
 0001:00024C78 Variants.VarInvalidNullOp_00425C78
 0001:00024CCC Variants.VarOverflowError_00425CCC
 0001:00024D68 Variants.VarArrayCreateError_00425D68
 0001:00024DBC Variants.TranslateResult_00425DBC
 0001:00025010 Variants.VarResultCheck_00426010
 0001:0002501C Variants.VarResultCheck_0042601C
 0001:00025050 Variants.HandleConversionException_00426050
 0001:000250D4 Variants.@DispInvokeError_004260D4
 0001:00025128 Variants.@VarNull_00426128
 0001:0002513C Variants.ElementCount_0042613C
 0001:00025180 Variants.VarArrayClear_00426180
 0001:00025238 Variants.VarClearDeep_00426238
 0001:000252CC Variants.@VarClear_004262CC
 0001:000252E0 Variants.@VarClr_004262E0
 0001:000253EC Variants.InBounds_004263EC
 0001:00025478 Variants.VarArrayCopyForEach_00426478
 0001:00025644 Variants.VarCopyCopyProc_00426644
 0001:0002564C Variants.VarCopyDeep_0042664C
 0001:00025738 Variants.@VarCopy_00426738
 0001:0002577C Variants.VarCastAsAny_0042677C
 0001:000257E8 Variants.VarCastAsOleStr_004267E8
 0001:00025834 Variants.VarCastAsString_00426834
 0001:00025880 Variants.VarCastAsUString_00426880
 0001:000258CC Variants.VarCastAsDispatch_004268CC
 0001:00025918 Variants.VarCastAsInterface_00426918
 0001:00025964 Variants.VarCastViaOS_00426964
 0001:000259E4 Variants.VarCastRare_004269E4
 0001:00025CA4 Variants.VarToIntAsString_00426CA4
 0001:00025D58 Variants.VarToIntViaOS_00426D58
 0001:00025D94 Variants.VarToIntAny_00426D94
 0001:00025DF8 Variants.VarToIntCustom_00426DF8
 0001:000262EC Variants.@VarToShortInt_004272EC
 0001:000263A0 Variants.@VarToByte_004273A0
 0001:00026448 Variants.@VarToSmallInt_00427448
 0001:00026540 Variants.@VarToWord_00427540
 0001:0002661C Variants.@VarToLongWord_0042761C
 0001:00026708 Variants.VarToInt64ViaOS_00427708
 0001:000267B4 Variants.VarToInt64AsString_004277B4
 0001:000268B4 Variants.VarToInt64Any_004278B4
 0001:00026920 Variants.VarToInt64Custom_00427920
 0001:00026DFC Variants.@VarToUInt64_00427DFC
 0001:00026F60 Variants.VarToBoolAsString_00427F60
 0001:00027024 Variants.VarToBoolViaOS_00428024
 0001:00027064 Variants.VarToBoolAny_00428064
 0001:000270C8 Variants.VarToBoolCustom_004280C8
 0001:000274B0 Variants.@VarToBool_004284B0
 0001:000274BC Variants.VarToDoubleAsString_004284BC
 0001:00027588 Variants.VarToDoubleViaOS_00428588
 0001:000275D4 Variants.VarToDoubleAny_004285D4
 0001:00027638 Variants.VarToDoubleCustom_00428638
 0001:00027A74 Variants.@VarToReal_00428A74
 0001:00027A90 Variants.@VarToSingle_00428A90
 0001:00027C54 Variants.VarToDateAsString_00428C54
 0001:00027D4C Variants.VarToDateAsDouble_00428D4C
 0001:00027DAC Variants.VarToDateViaOS_00428DAC
 0001:00027DF8 Variants.VarToDateAny_00428DF8
 0001:00027E5C Variants.VarToDateCustom_00428E5C
 0001:0002828C Variants.VarToCurrencyAsString_0042928C
 0001:00028350 Variants.VarToCurrencyAsDouble_00429350
 0001:000283B0 Variants.VarToCurrencyViaOS_004293B0
 0001:000283FC Variants.VarToCurrencyAny_004293FC
 0001:00028460 Variants.VarToCurrencyCustom_00429460
 0001:00028908 Variants.CurrToWStrViaOS_00429908
 0001:00028940 Variants.DateToWStrViaOS_00429940
 0001:00028978 Variants.BoolToWStrViaOS_00429978
 0001:00028A40 Variants.VarToLStrViaOS_00429A40
 0001:00028AF8 Variants.VarToLStrAny_00429AF8
 0001:00028B5C Variants.VarToLStrCustom_00429B5C
 0001:00029338 Variants.VarToWStrViaOS_0042A338
 0001:00029404 Variants.VarToWStrAny_0042A404
 0001:00029468 Variants.VarToWStrCustom_0042A468
 0001:00029BE8 Variants.VarToUStrAny_0042ABE8
 0001:00029C4C Variants.VarToUStrCustom_0042AC4C
 0001:0002A3C8 Variants.AnyToIntf_0042B3C8
 0001:0002A440 Variants.@VarToIntf_0042B440
 0001:0002A50C Variants.@VarToDisp_0042B50C
 0001:0002A5B8 Variants.@VarFromInt_0042B5B8
 0001:0002A5F4 Variants.@VarFromInteger_0042B5F4
 0001:0002A614 Variants.@VarFromByte_0042B614
 0001:0002A634 Variants.@VarFromWord_0042B634
 0001:0002A654 Variants.@VarFromLongWord_0042B654
 0001:0002A674 Variants.@VarFromUInt64_0042B674
 0001:0002A6A0 Variants.@VarFromShortInt_0042B6A0
 0001:0002A6C0 Variants.@VarFromSmallInt_0042B6C0
 0001:0002A6E0 Variants.@VarFromInt64_0042B6E0
 0001:0002A70C Variants.@VarFromSingle_0042B70C
 0001:0002A730 Variants.@VarFromDouble_0042B730
 0001:0002A75C Variants.@VarFromCurrency_0042B75C
 0001:0002A788 Variants.@VarFromDate_0042B788
 0001:0002A7B4 Variants.@VarFromBool_0042B7B4
 0001:0002A7DC Variants.@VarFromReal_0042B7DC
 0001:0002A7F0 Variants.@VarFromTDateTime_0042B7F0
 0001:0002A804 Variants.@VarFromCurr_0042B804
 0001:0002A818 Variants.@VarFromLStr_0042B818
 0001:0002A844 Variants.@VarFromWStr_0042B844
 0001:0002A87C Variants.@VarFromUStr_0042B87C
 0001:0002A8A8 Variants.@VarFromIntf_0042B8A8
 0001:0002A8D4 Variants.@VarFromDisp_0042B8D4
 0001:0002A900 Variants.@OleVarFromLStr_0042B900
 0001:0002A950 Variants.OleVarFromAny_0042B950
 0001:0002A9B4 Variants.OleVarFromVarArrayProc_0042B9B4
 0001:0002AB84 Variants.CheckType_0042BB84
 0001:0002ABB0 Variants.VarCompareAny_0042BBB0
 0001:0002AC88 Variants.EmptyCompare_0042BC88
 0001:0002AC9C Variants.NullCompare_0042BC9C
 0001:0002AD90 Variants.IntCompare_0042BD90
 0001:0002ADA4 Variants.Int64Compare_0042BDA4
 0001:0002ADE0 Variants.UInt64Compare_0042BDE0
 0001:0002AE14 Variants.RealCompare_0042BE14
 0001:0002AE40 Variants.DateCompare_0042BE40
 0001:0002AE6C Variants.CurrCompare_0042BE6C
 0001:0002AE9C Variants.StringCompare_0042BE9C
 0001:0002AF08 Variants.VarCompareSimple_0042BF08
 0001:0002B0B4 Variants.VarCompareRare_0042C0B4
 0001:0002B540 Variants.@VarAddRef_0042C540
 0001:0002B7BC Variants.VarTypeAsText_0042C7BC
 0001:0002B970 Variants.FindVarData_0042C970
 0001:0002B980 Variants.VarIsClear_0042C980
 0001:0002B9F4 Variants.VarSameValue_0042C9F4
 0001:0002BA6C Variants.SetVarAsError_0042CA6C
 0001:0002BA84 Variants.SetClearVarToEmptyParam_0042CA84
 0001:0002BAD4 Variants.VarArrayAsPSafeArray_0042CAD4
 0001:0002BAFC Variants.VarArrayLowBound_0042CAFC
 0001:0002BB20 Variants.VarArrayHighBound_0042CB20
 0001:0002BB44 Variants.VarIsArray_0042CB44
 0001:0002BB4C Variants.VarIsArray_0042CB4C
 0001:0002BB74 Variants.@VarArrayGet_0042CB74
 0001:0002BC68 Variants.ClearVariantTypeList_0042CC68
 0001:0002BCD4 Variants.TCustomVariantType.BinaryOp_0042CCD4
 0001:0002BCE0 Variants.TCustomVariantType.Cast_0042CCE0
 0001:0002BD18 Variants.TCustomVariantType.CastTo_0042CD18
 0001:0002BD60 Variants.TCustomVariantType.Compare_0042CD60
 0001:0002BD6C Variants.TCustomVariantType.CompareOp_0042CD6C
 0001:0002BDA4 Variants.TCustomVariantType.CastToOle_0042CDA4
 0001:0002BDE0 Variants.TCustomVariantType.Destroy_0042CDE0
 0001:0002BE6C Variants.TCustomVariantType.IsClear_0042CE6C
 0001:0002BE70 Variants.TCustomVariantType.LeftPromotion_0042CE70
 0001:0002BE84 Variants.TCustomVariantType.OlePromotion_0042CE84
 0001:0002BE8C Variants.TCustomVariantType.RaiseCastError_0042CE8C
 0001:0002BE94 Variants.TCustomVariantType.RaiseInvalidOp_0042CE94
 0001:0002BE9C Variants.TCustomVariantType.RaiseDispError_0042CE9C
 0001:0002BEA4 Variants.TCustomVariantType.RightPromotion_0042CEA4
 0001:0002BEB8 Variants.TCustomVariantType.UnaryOp_0042CEB8
 0001:0002BEC0 Variants.TCustomVariantType.DispInvoke_0042CEC0
 0001:0002BECC Variants.TCustomVariantType._AddRef_0042CECC
 0001:0002BED8 Variants.TCustomVariantType._Release_0042CED8
 0001:0002BEE4 Variants.TCustomVariantType.QueryInterface_0042CEE4
 0001:0002BF0C Variants.FindCustomVariantType_0042CF0C
 0001:0002BFC8 Variants.FindCustomVariantType_0042CFC8
 0001:0002C09C Variants.Null_0042D09C
 0001:0002C0A4 Variants.@VarCmpEQ_0042D0A4
 0001:0002C0B4 Variants.Finalization_0042D0B4
 0001:0002C3A4 TypInfo.GetPropName_0042D3A4
 0001:0002C3F4 TypInfo.GetTypeData_0042D3F4
 0001:0002C400 TypInfo.GetEnumName_0042D400
 0001:0002C4F8 TypInfo.UTF8SameText_0042D4F8
 0001:0002C558 TypInfo.GetEnumNameValue_0042D558
 0001:0002C5D0 TypInfo.sub_0042D5D0_0042D5D0
 0001:0002C678 TypInfo.InternalGetPropInfo_0042D678
 0001:0002C72C TypInfo.GetPropInfo_0042D72C
 0001:0002C780 TypInfo.GetPropInfos_0042D780
 0001:0002C7D4 TypInfo.IsStoredProp_0042D7D4
 0001:0002C804 TypInfo.GetOrdProp_0042D804
 0001:0002C878 TypInfo.SetOrdProp_0042D878
 0001:0002C8D4 TypInfo.GetSetElementName_0042D8D4
 0001:0002C968 TypInfo.GetEnumValue_0042D968
 0001:0002CA08 TypInfo.GetShortStrProp_0042DA08
 0001:0002CA4C TypInfo.SetShortStrProp_0042DA4C
 0001:0002CAA0 TypInfo.GetShortStrPropAsLongStr_0042DAA0
 0001:0002CAD0 TypInfo.SetShortStrPropAsLongStr_0042DAD0
 0001:0002CB04 TypInfo.GetLongStrProp_0042DB04
 0001:0002CB44 TypInfo.SetLongStrProp_0042DB44
 0001:0002CB84 TypInfo.GetWideStrPropAsLongStr_0042DB84
 0001:0002CBE0 TypInfo.SetWideStrPropAsLongStr_0042DBE0
 0001:0002CC38 TypInfo.GetUnicodeStrPropAsLongStr_0042DC38
 0001:0002CC94 TypInfo.SetUnicodeStrPropAsLongStr_0042DC94
 0001:0002CCEC TypInfo.GetAnsiStrProp_0042DCEC
 0001:0002CD38 TypInfo.SetAnsiStrProp_0042DD38
 0001:0002CD74 TypInfo.GetWideStrProp_0042DD74
 0001:0002CE88 TypInfo.SetWideStrProp_0042DE88
 0001:0002CF84 TypInfo.GetUnicodeStrProp_0042DF84
 0001:0002D098 TypInfo.SetRawByteStrProp_0042E098
 0001:0002D1A4 TypInfo.SetUnicodeStrProp_0042E1A4
 0001:0002D2C8 TypInfo.GetFloatProp_0042E2C8
 0001:0002D3E0 TypInfo.SetFloatProp_0042E3E0
 0001:0002D5D8 TypInfo.AssignVariant_0042E5D8
 0001:0002D5EC TypInfo.GetVariantProp_0042E5EC
 0001:0002D62C TypInfo.SetVariantProp_0042E62C
 0001:0002D66C TypInfo.GetMethodProp_0042E66C
 0001:0002D6AC TypInfo.SetMethodProp_0042E6AC
 0001:0002D6E4 TypInfo.GetInt64Prop_0042E6E4
 0001:0002D70C TypInfo.SetInt64Prop_0042E70C
 0001:0002D748 TypInfo.GetInterfaceProp_0042E748
 0001:0002D7C8 TypInfo.SetInterfaceProp_0042E7C8
 0001:0002D83C TypInfo.Finalization_0042E83C
 0001:00037FE4 Classes.Point_00438FE4
 0001:00037FEC Classes.Rect_00438FEC
 0001:00038008 Classes.Bounds_00439008
 0001:00038030 Classes.InvalidPoint_00439030
 0001:00038044 Classes.InvalidPoint_00439044
 0001:00038060 Classes.InterlockedCompareExchangePointer_00439060
 0001:00038068 Classes.InterlockedExchange_00439068
 0001:00038074 Classes.sub_00439074_00439074
 0001:000389B8 Classes.TRegGroup.AddClass_004399B8
 0001:000389C4 Classes.TRegGroup.BestClass_004399C4
 0001:00038A24 Classes.TRegGroup.BestGroup_00439A24
 0001:00038A94 Classes.TRegGroup.Create_00439A94
 0001:00038AF0 Classes.TRegGroup.Destroy_00439AF0
 0001:00038B30 Classes.TRegGroup.GetClass_00439B30
 0001:00038B80 Classes.TRegGroup.IndexOfClass_00439B80
 0001:00038BF8 Classes.TRegGroup.InGroup_00439BF8
 0001:00038C3C Classes.TRegGroup.RegisterClass_00439C3C
 0001:00038CF0 Classes.TRegGroup.Registered_00439CF0
 0001:00038D08 Classes.TRegGroup.UnregisterModuleClasses_00439D08
 0001:00038E48 Classes.TRegGroups.Activate_00439E48
 0001:00038E94 Classes.TRegGroups.Create_00439E94
 0001:00038F08 Classes.TRegGroups.Destroy_00439F08
 0001:00038F68 Classes.TRegGroups.FindGroup_00439F68
 0001:00038FAC Classes.TRegGroups.GetClass_00439FAC
 0001:00038FF0 Classes.Error_00439FF0
 0001:00039074 Classes.TRegGroups.GroupWith_0043A074
 0001:00039148 Classes.TRegGroups.RegisterClass_0043A148
 0001:00039160 Classes.TRegGroups.Registered_0043A160
 0001:000391A4 Classes.TRegGroups.StartGroup_0043A1A4
 0001:000391F4 Classes.TRegGroups.UnregisterModuleClasses_0043A1F4
 0001:00039244 Classes.TClassFinder.Create_0043A244
 0001:00039384 Classes.TClassFinder.Destroy_0043A384
 0001:000393B4 Classes.TClassFinder.GetClass_0043A3B4
 0001:00039450 Classes.GetFieldClassTable_0043A450
 0001:0003945C Classes.ClassNotFound_0043A45C
 0001:000394C8 Classes.GetClass_0043A4C8
 0001:00039534 Classes.FindClass_0043A534
 0001:00039554 Classes.RegisterClass_0043A554
 0001:000395DC Classes.UnRegisterModuleClasses_0043A5DC
 0001:00039644 Classes.StartClassGroup_0043A644
 0001:000396AC Classes.GroupDescendentsWith_0043A6AC
 0001:00039718 Classes.ActivateClassGroup_0043A718
 0001:000398D4 Classes.TIntConst.Create_0043A8D4
 0001:0003990C Classes.RegisterIntegerConsts_0043A90C
 0001:00039938 Classes.FindIntToIdent_0043A938
 0001:000399B4 Classes.FindIdentToInt_0043A9B4
 0001:00039A30 Classes.IdentToInt_0043AA30
 0001:00039A70 Classes.IntToIdent_0043AA70
 0001:00039AB4 Classes.RegisterFindGlobalComponentProc_0043AAB4
 0001:00039AF4 Classes.UnregisterFindGlobalComponentProc_0043AAF4
 0001:00039B0C Classes.FindGlobalComponent_0043AB0C
 0001:00039B4C Classes.IsUniqueGlobalComponentName_0043AB4C
 0001:00039B70 Classes.InternalReadComponentRes_0043AB70
 0001:00039BF4 Classes.BeginGlobalLoading_0043ABF4
 0001:00039C4C Classes.NotifyGlobalLoading_0043AC4C
 0001:00039C7C Classes.EndGlobalLoading_0043AC7C
 0001:00039D64 Classes.InitInheritedComponent_0043AD64
 0001:00039E28 Classes.WriteCollection_0043AE28
 0001:00039E94 Classes.CollectionsEqual_0043AE94
 0001:00039FB0 Classes.TListEnumerator.GetCurrent_0043AFB0
 0001:00039FBC Classes.TList.Destroy_0043AFBC
 0001:00039FDC Classes.TList.Add_0043AFDC
 0001:0003A01C Classes.TList.Clear_0043B01C
 0001:0003A034 Classes.TList.Delete_0043B034
 0001:0003A09C Classes.TList.Error_0043B09C
 0001:0003A0E4 Classes.TList.Error_0043B0E4
 0001:0003A168 Classes.TList.Exchange_0043B168
 0001:0003A1B8 Classes.TList.Expand_0043B1B8
 0001:0003A1D0 Classes.TList.Get_0043B1D0
 0001:0003A1F4 Classes.TList.Grow_0043B1F4
 0001:0003A228 Classes.TList.IndexOf_0043B228
 0001:0003A24C Classes.TList.IndexOfItem_0043B24C
 0001:0003A278 Classes.TList.Insert_0043B278
 0001:0003A2F0 Classes.TList.Last_0043B2F0
 0001:0003A314 Classes.TList.Move_0043B314
 0001:0003A36C Classes.TList.Put_0043B36C
 0001:0003A3C8 Classes.TList.Remove_0043B3C8
 0001:0003A3D0 Classes.TList.RemoveItem_0043B3D0
 0001:0003A3F0 Classes.TList.Pack_0043B3F0
 0001:0003A464 Classes.TList.SetCapacity_0043B464
 0001:0003A4A0 Classes.TList.SetCount_0043B4A0
 0001:0003A624 Classes.TList.SortList_0043B624
 0001:0003A644 Classes.TList.Notify_0043B644
 0001:0003A914 Classes.TThreadList.Create_0043B914
 0001:0003A96C Classes.TThreadList.Destroy_0043B96C
 0001:0003A9E8 Classes.TThreadList.Add_0043B9E8
 0001:0003AA70 Classes.TThreadList.Clear_0043BA70
 0001:0003AAB8 Classes.TThreadList.LockList_0043BAB8
 0001:0003AAD8 Classes.TThreadList.RemoveItem_0043BAD8
 0001:0003AB2C Classes.TThreadList.UnlockList_0043BB2C
 0001:0003AB38 Classes.TCollectionEnumerator.Create_0043BB38
 0001:0003AB7C Classes.TInterfaceListEnumerator.GetCurrent_0043BB7C
 0001:0003AB94 Classes.TInterfaceList.Create_0043BB94
 0001:0003ABD8 Classes.TInterfaceList.Destroy_0043BBD8
 0001:0003AC14 Classes.TInterfaceList.Clear_0043BC14
 0001:0003AC88 Classes.TInterfaceList.Delete_0043BC88
 0001:0003ACEC Classes.TInterfaceList.First_0043BCEC
 0001:0003AD00 Classes.TInterfaceList.Get_0043BD00
 0001:0003AD78 Classes.TInterfaceList.GetCapacity_0043BD78
 0001:0003ADCC Classes.TInterfaceList.GetCount_0043BDCC
 0001:0003AE20 Classes.TInterfaceList.GetEnumerator_0043BE20
 0001:0003AE30 Classes.TInterfaceList.IndexOf_0043BE30
 0001:0003AE38 Classes.TInterfaceList.IndexOfItem_0043BE38
 0001:0003AE98 Classes.TInterfaceList.Add_0043BE98
 0001:0003AF08 Classes.TInterfaceList.Insert_0043BF08
 0001:0003AF74 Classes.TInterfaceList.Last_0043BF74
 0001:0003AFD0 Classes.TInterfaceList.Put_0043BFD0
 0001:0003B048 Classes.TInterfaceList.Remove_0043C048
 0001:0003B050 Classes.TInterfaceList.RemoveItem_0043C050
 0001:0003B0D4 Classes.TInterfaceList.SetCapacity_0043C0D4
 0001:0003B128 Classes.TInterfaceList.SetCount_0043C128
 0001:0003B17C Classes.TInterfaceList.Exchange_0043C17C
 0001:0003B1D4 Classes.TInterfaceList.Lock_0043C1D4
 0001:0003B1E0 Classes.TInterfaceList.Unlock_0043C1E0
 0001:0003B1EC Classes.TBits.Destroy_0043C1EC
 0001:0003B21C Classes.TBits.Error_0043C21C
 0001:0003B234 Classes.Min_0043C234
 0001:0003B240 Classes.TBits.SetSize_0043C240
 0001:0003B2E4 Classes.TBits.SetBit_0043C2E4
 0001:0003B310 Classes.TBits.GetBit_0043C310
 0001:0003B328 Classes.TBits.OpenBit_0043C328
 0001:0003B3A0 Classes.TMemoryStream.Destroy_0043C3A0
 0001:0003B3CC Classes.TPersistent.Assign_0043C3CC
 0001:0003B3E0 Classes.TPersistent.AssignError_0043C3E0
 0001:0003B49C Classes.TPersistent.AssignTo_0043C49C
 0001:0003B4A4 Classes.TPersistent.DefineProperties_0043C4A4
 0001:0003B4A8 Classes.TPersistent.GetNamePath_0043C4A8
 0001:0003B540 Classes.TPersistent.sub_0043C540_0043C540
 0001:0003B544 Classes.TInterfacedPersistent.AfterConstruction_0043C544
 0001:0003B594 Classes.TInterfacedPersistent._AddRef_0043C594
 0001:0003B5B4 Classes.TInterfacedPersistent._Release_0043C5B4
 0001:0003B5D4 Classes.TInterfacedPersistent.QueryInterface_0043C5D4
 0001:0003B69C Classes.NotifyDesigner_0043C69C
 0001:0003B700 Classes.TCollectionItem.Create_0043C700
 0001:0003B738 Classes.TCollectionItem.Destroy_0043C738
 0001:0003B768 Classes.TCollectionItem.Changed_0043C768
 0001:0003B78C Classes.TCollectionItem.GetIndex_0043C78C
 0001:0003B7A4 Classes.TCollectionItem.GetDisplayName_0043C7A4
 0001:0003B7B8 Classes.TCollectionItem.GetNamePath_0043C7B8
 0001:0003B864 Classes.TCollectionItem.sub_0043C540_0043C864
 0001:0003B868 Classes.TCollectionItem.SetCollection_0043C868
 0001:0003B890 Classes.TCollectionItem.SetDisplayName_0043C890
 0001:0003B898 Classes.TCollectionItem.SetIndex_0043C898
 0001:0003B8C8 Classes.TCollectionEnumerator.GetCurrent_0043C8C8
 0001:0003B8D4 Classes.TCollection.Create_0043C8D4
 0001:0003B920 Classes.TCollection.Destroy_0043C920
 0001:0003B96C Classes.TCollection.Add_0043C96C
 0001:0003B98C Classes.TCollection.Assign_0043C98C
 0001:0003BA34 Classes.TCollection.BeginUpdate_0043CA34
 0001:0003BA38 Classes.TCollection.Changed_0043CA38
 0001:0003BA48 Classes.TCollection.Clear_0043CA48
 0001:0003BAB0 Classes.TCollection.EndUpdate_0043CAB0
 0001:0003BABC Classes.TCollection.sub_0043CABC_0043CABC
 0001:0003BAC0 Classes.TCollection.GetAttr_0043CAC0
 0001:0003BAD4 Classes.TCollection.GetItemAttr_0043CAD4
 0001:0003BAF4 Classes.TCollection.GetCount_0043CAF4
 0001:0003BAFC Classes.TCollection.GetItem_0043CAFC
 0001:0003BB10 Classes.TCollection.GetNamePath_0043CB10
 0001:0003BBC4 Classes.TCollection.GetPropName_0043CBC4
 0001:0003BD18 Classes.TCollection.InsertItem_0043CD18
 0001:0003BD80 Classes.TCollection.RemoveItem_0043CD80
 0001:0003BDD4 Classes.TCollection.SetCapacity_0043CDD4
 0001:0003BDE4 Classes.sub_0043CDE4_0043CDE4
 0001:0003BDE8 Classes.sub_0043CDE8_0043CDE8
 0001:0003BDEC Classes.TCollection.Owner_0043CDEC
 0001:0003BDF8 Classes.sub_0043CDF8_0043CDF8
 0001:0003BDFC Classes.sub_0043CDFC_0043CDFC
 0001:0003BE00 Classes.TCollection.Notify_0043CE00
 0001:0003BE24 Classes.TOwnedCollection.Create_0043CE24
 0001:0003BE68 Classes.TOwnedCollection.sub_0043C540_0043CE68
 0001:0003BE6C Classes.TComponentEnumerator.Create_0043CE6C
 0001:0003BEB0 Classes.TStringsEnumerator.GetCurrent_0043CEB0
 0001:0003BEC8 Classes.TStringsEnumerator.MoveNext_0043CEC8
 0001:0003BEE4 Classes.TStrings.Create_0043CEE4
 0001:0003BF2C Classes.TStrings.Destroy_0043CF2C
 0001:0003BF9C Classes.TStrings.Add_0043CF9C
 0001:0003BFC0 Classes.TStrings.AddObject_0043CFC0
 0001:0003BFE4 Classes.TStrings.AddStrings_0043CFE4
 0001:0003C09C Classes.TStrings.Assign_0043D09C
 0001:0003C178 Classes.TStrings.BeginUpdate_0043D178
 0001:0003C190 Classes.DoWrite_0043D190
 0001:0003C1E8 Classes.TStrings.DefineProperties_0043D1E8
 0001:0003C240 Classes.TStrings.EndUpdate_0043D240
 0001:0003C254 Classes.TStrings.Equals_0043D254
 0001:0003C2FC Classes.TStrings.Error_0043D2FC
 0001:0003C380 Classes.TStrings.Exchange_0043D380
 0001:0003C46C Classes.sub_0043D46C_0043D46C
 0001:0003C474 Classes.TStrings.GetCommaText_0043D474
 0001:0003C50C Classes.TStrings.GetDelimitedText_0043D50C
 0001:0003C77C Classes.TStrings.GetEnumerator_0043D77C
 0001:0003C78C Classes.sub_0043D78C_0043D78C
 0001:0003C790 Classes.TStrings.GetText_0043D790
 0001:0003C7E4 Classes.TStrings.GetTextStr_0043D7E4
 0001:0003C928 Classes.TStrings.IndexOf_0043D928
 0001:0003C9B4 Classes.TStrings.IndexOfName_0043D9B4
 0001:0003CA88 Classes.TStrings.IndexOfObject_0043DA88
 0001:0003CABC Classes.TStrings.InsertObject_0043DABC
 0001:0003CAEC Classes.TStrings.LoadFromFile_0043DAEC
 0001:0003CB40 Classes.TStrings.LoadFromFile_0043DB40
 0001:0003CB9C Classes.TStrings.LoadFromStream_0043DB9C
 0001:0003CBA8 Classes.TStrings.LoadFromStream_0043DBA8
 0001:0003CCAC Classes.TStrings.Move_0043DCAC
 0001:0003CD6C Classes.TStrings.Put_0043DD6C
 0001:0003CD9C Classes.sub_0043DD9C_0043DD9C
 0001:0003CDA0 Classes.TStrings.ReadData_0043DDA0
 0001:0003CE50 Classes.TStrings.SaveToFile_0043DE50
 0001:0003CE60 Classes.TStrings.SaveToFile_0043DE60
 0001:0003CEC0 Classes.TStrings.SaveToStream_0043DEC0
 0001:0003CED0 Classes.TStrings.SaveToStream_0043DED0
 0001:0003CF8C Classes.sub_0043DF8C_0043DF8C
 0001:0003CF90 Classes.TStrings.SetCommaText_0043DF90
 0001:0003D028 Classes.TStrings.SetStringsAdapter_0043E028
 0001:0003D05C Classes.TStrings.SetText_0043E05C
 0001:0003D0AC Classes.TStrings.SetTextStr_0043E0AC
 0001:0003D258 Classes.sub_0043E258_0043E258
 0001:0003D25C Classes.TStrings.WriteData_0043E25C
 0001:0003D2E0 Classes.TStrings.SetDelimitedText_0043E2E0
 0001:0003D490 Classes.TStrings.GetDelimiter_0043E490
 0001:0003D4AC Classes.TStrings.GetLineBreak_0043E4AC
 0001:0003D4E8 Classes.TStrings.GetQuoteChar_0043E4E8
 0001:0003D504 Classes.TStrings.GetStrictDelimiter_0043E504
 0001:0003D51C Classes.TStrings.SetDefaultEncoding_0043E51C
 0001:0003D564 Classes.TStrings.SetDelimiter_0043E564
 0001:0003D584 Classes.TStrings.SetEncoding_0043E584
 0001:0003D5CC Classes.TStrings.SetLineBreak_0043E5CC
 0001:0003D5F8 Classes.TStrings.SetQuoteChar_0043E5F8
 0001:0003D618 Classes.TStrings.SetStrictDelimiter_0043E618
 0001:0003D634 Classes.TStrings.CompareStrings_0043E634
 0001:0003D640 Classes.TStrings.GetNameValueSeparator_0043E640
 0001:0003D65C Classes.TStrings.SetNameValueSeparator_0043E65C
 0001:0003D67C Classes.TStringList.Destroy_0043E67C
 0001:0003D788 Classes.TStringList.Add_0043E788
 0001:0003D798 Classes.TStringList.AddObject_0043E798
 0001:0003D7FC Classes.TStringList.Assign_0043E7FC
 0001:0003D838 Classes.TStringList.Changed_0043E838
 0001:0003D854 Classes.TStringList.Changing_0043E854
 0001:0003D870 Classes.TStringList.Clear_0043E870
 0001:0003D958 Classes.TStringList.Delete_0043E958
 0001:0003D9E4 Classes.TStringList.Exchange_0043E9E4
 0001:0003DA40 Classes.TStringList.ExchangeItems_0043EA40
 0001:0003DA64 Classes.TStringList.Find_0043EA64
 0001:0003DAE8 Classes.TStringList.Get_0043EAE8
 0001:0003DB18 Classes.sub_0043EB18_0043EB18
 0001:0003DB1C Classes.TStringList.GetCount_0043EB1C
 0001:0003DB20 Classes.TStringList.GetObject_0043EB20
 0001:0003DB44 Classes.TStringList.Grow_0043EB44
 0001:0003DB78 Classes.TStringList.IndexOf_0043EB78
 0001:0003DBB4 Classes.TStringList.Insert_0043EBB4
 0001:0003DBC4 Classes.TStringList.InsertObject_0043EBC4
 0001:0003DC18 Classes.TStringList.InsertItem_0043EC18
 0001:0003DC94 Classes.TStringList.Put_0043EC94
 0001:0003DCEC Classes.TStringList.PutObject_0043ECEC
 0001:0003DDC0 Classes.TStringList.SetCapacity_0043EDC0
 0001:0003DE00 Classes.TStringList.SetSorted_0043EE00
 0001:0003DE20 Classes.TStringList.SetUpdateState_0043EE20
 0001:0003DE40 Classes.StringListCompareStrings_0043EE40
 0001:0003DE60 Classes.TStringList.Sort_0043EE60
 0001:0003DE70 Classes.TStringList.CustomSort_0043EE70
 0001:0003DEA8 Classes.TStringList.CompareStrings_0043EEA8
 0001:0003DEC4 Classes.TStringList.Create_0043EEC4
 0001:0003DEFC Classes.TStringList.SetCaseSensitive_0043EEFC
 0001:0003DF24 Classes.TStream.GetPosition_0043EF24
 0001:0003DF44 Classes.TStream.SetPosition_0043EF44
 0001:0003DF58 Classes.TStream.GetSize_0043EF58
 0001:0003DFA4 Classes.sub_0043EFA4_0043EFA4
 0001:0003DFA8 Classes.TStream.SetSize64_0043EFA8
 0001:0003DFBC Classes.TStream.SetSize_0043EFBC
 0001:0003E010 Classes.RaiseException_0043F010
 0001:0003E084 Classes.TStream.Seek_0043F084
 0001:0003E108 Classes.TStream.Seek_0043F108
 0001:0003E178 Classes.TStream.ReadBuffer_0043F178
 0001:0003E1D8 Classes.TStream.WriteBuffer_0043F1D8
 0001:0003E238 Classes.TStream.CopyFrom_0043F238
 0001:0003E32C Classes.TStream.ReadComponent_0043F32C
 0001:0003E38C Classes.THandleStream.Create_0043F38C
 0001:0003E3C8 Classes.THandleStream.Read_0043F3C8
 0001:0003E3D8 Classes.THandleStream.Write_0043F3D8
 0001:0003E3E8 Classes.THandleStream.Seek_0043F3E8
 0001:0003E414 Classes.THandleStream.SetSize_0043F414
 0001:0003E428 Classes.THandleStream.SetSize_0043F428
 0001:0003E450 Classes.TFileStream.Create_0043F450
 0001:0003E494 Classes.TFileStream.Create_0043F494
 0001:0003E608 Classes.TFileStream.Destroy_0043F608
 0001:0003E63C Classes.TCustomMemoryStream.SetPointer_0043F63C
 0001:0003E644 Classes.TCustomMemoryStream.Read_0043F644
 0001:0003E67C Classes.TCustomMemoryStream.Seek_0043F67C
 0001:0003E6A0 Classes.TCustomMemoryStream.SaveToStream_0043F6A0
 0001:0003E6B8 Classes.TCustomMemoryStream.SaveToFile_0043F6B8
 0001:0003E710 Classes.TPersistent.Destroy_0043F710
 0001:0003E73C Classes.TMemoryStream.Clear_0043F73C
 0001:0003E754 Classes.TMemoryStream.LoadFromStream_0043F754
 0001:0003E78C Classes.TMemoryStream.LoadFromFile_0043F78C
 0001:0003E7E0 Classes.TMemoryStream.SetCapacity_0043F7E0
 0001:0003E808 Classes.TMemoryStream.SetSize_0043F808
 0001:0003E834 Classes.TMemoryStream.Realloc_0043F834
 0001:0003E8B4 Classes.TMemoryStream.Write_0043F8B4
 0001:0003E904 Classes.TResourceStream.Create_0043F904
 0001:0003E95C Classes.Error_0043F95C
 0001:0003E9FC Classes.TResourceStream.Initialize_0043F9FC
 0001:0003EA68 Classes.TResourceStream.Destroy_0043FA68
 0001:0003EA98 Classes.TResourceStream.Write_0043FA98
 0001:0003EAB0 Classes.TFiler.Create_0043FAB0
 0001:0003EAF8 Classes.TFiler.Destroy_0043FAF8
 0001:0003EB20 Classes.TFiler.SetRoot_0043FB20
 0001:0003EE38 Classes.TPropFixup.Create_0043FE38
 0001:0003EE90 Classes.TPropFixup.MakeGlobalReference_0043FE90
 0001:0003EEF0 Classes.TPropFixup.ResolveReference_0043FEF0
 0001:0003EF00 Classes.TPropIntfFixup.ResolveReference_0043FF00
 0001:0003EF84 Classes.FindNestedComponent_0043FF84
 0001:0003F07C Classes.AddFinished_0044007C
 0001:0003F0B4 Classes.AddNotFinished_004400B4
 0001:0003F0FC Classes.GlobalFixupReferences_004400FC
 0001:0003F2CC Classes.RemoveFixupReferences_004402CC
 0001:0003F378 Classes.TMemoryStream.Clear_00440378
 0001:0003F400 Classes.ReadError_00440400
 0001:0003F418 Classes.PropValueError_00440418
 0001:0003F424 Classes.PropertyNotFound_00440424
 0001:0003F450 Classes.EnumValue_00440450
 0001:0003F468 Classes.TReader.Destroy_00440468
 0001:0003F4A4 Classes.TReader.CheckValue_004404A4
 0001:0003F4C8 Classes.TReader.DefineProperty_004404C8
 0001:0003F504 Classes.TReader.DefineBinaryProperty_00440504
 0001:0003F5EC Classes.TReader.EndOfList_004405EC
 0001:0003F600 Classes.TReader.Error_00440600
 0001:0003F624 Classes.TReader.FindMethodInstance_00440624
 0001:0003F694 Classes.TReader.FindMethod_00440694
 0001:0003F6E4 Classes.RemoveGlobalFixup_004406E4
 0001:0003F764 Classes.TReader.DoFixupReferences_00440764
 0001:0003F8A8 Classes.TReader.FlushBuffer_004408A8
 0001:0003F8CC Classes.TReader.FreeFixups_004408CC
 0001:0003F908 Classes.TReader.GetFieldClass_00440908
 0001:0003F99C Classes.TReader.GetPosition_0044099C
 0001:0003F9B4 Classes.TReader.NextValue_004409B4
 0001:0003F9C4 Classes.TReader.PropertyError_004409C4
 0001:0003F9D8 Classes.TReader.Read_004409D8
 0001:0003FA24 Classes.TReader.ReadBuffer_00440A24
 0001:0003FA60 Classes.TReader.ReadBoolean_00440A60
 0001:0003FA84 Classes.TReader.ReadChar_00440A84
 0001:0003FAE4 Classes.TReader.ReadWideChar_00440AE4
 0001:0003FB44 Classes.TReader.ReadCollection_00440B44
 0001:0003FC20 Classes.AddSubComponentsToLoaded_00440C20
 0001:0003FC5C Classes.CheckSubComponents_00440C5C
 0001:0003FCD4 Classes.SetSubComponentState_00440CD4
 0001:0003FD3C Classes.ComponentCreated_00440D3C
 0001:0003FD5C Classes.Recover_00440D5C
 0001:0003FDBC Classes.CreateComponent_00440DBC
 0001:0003FECC Classes.SetCompName_00440ECC
 0001:0003FF6C Classes.FindExistingComponent_00440F6C
 0001:00040010 Classes.TReader.ReadComponent_00441010
 0001:00040250 Classes.TReader.ReadData_00441250
 0001:000402C0 Classes.TReader.ReadDataInner_004412C0
 0001:00040390 Classes.TReader.ReadFloat_00441390
 0001:000403C8 Classes.TReader.ReadDouble_004413C8
 0001:0004040C Classes.TReader.ReadSingle_0044140C
 0001:00040450 Classes.TReader.ReadCurrency_00441450
 0001:000404A0 Classes.TReader.ReadDate_004414A0
 0001:000404E4 Classes.TReader.ReadIdent_004414E4
 0001:00040658 Classes.TReader.ReadInteger_00441658
 0001:000406C4 Classes.TReader.ReadInt64_004416C4
 0001:00040708 Classes.TReader.ReadListBegin_00441708
 0001:00040710 Classes.TReader.ReadListEnd_00441710
 0001:00040718 Classes.TReader.ReadPrefix_00441718
 0001:00040758 Classes.HandleException_00441758
 0001:00040828 Classes.PropPathError_00441828
 0001:00040844 Classes.TReader.ReadProperty_00441844
 0001:00040A9C Classes.SetIntIdent_00441A9C
 0001:00040AE4 Classes.SetObjectIdent_00441AE4
 0001:00040B24 Classes.SetVariantReference_00441B24
 0001:00040B80 Classes.SetInterfaceReference_00441B80
 0001:00040C40 Classes.TReader.ReadPropValue_00441C40
 0001:00040FB8 Classes.FindUniqueName_00441FB8
 0001:00041020 Classes.TReader.ReadRootComponent_00442020
 0001:00041354 Classes.TReader.ReadSet_00442354
 0001:00041410 Classes.TReader.ReadSignature_00442410
 0001:00041434 Classes.TReader.ReadStr_00442434
 0001:000414C4 Classes.TReader.ReadString_004424C4
 0001:000415AC Classes.TReader.ReadWideString_004425AC
 0001:000416EC Classes.TReader.ReadValue_004426EC
 0001:00041700 Classes.TReader.SetPosition_00442700
 0001:00041720 Classes.TReader.SkipSetBody_00442720
 0001:00041768 Classes.SkipList_00442768
 0001:00041794 Classes.SkipBinary_00442794
 0001:000417C4 Classes.SkipCollection_004427C4
 0001:00041828 Classes.TReader.SkipValue_00442828
 0001:000419D8 Classes.TReader.SkipProperty_004429D8
 0001:00041ACC Classes.TReader.FindAncestorComponent_00442ACC
 0001:00041B84 Classes.TReader.ReferenceName_00442B84
 0001:00041B9C Classes.TReader.SetName_00442B9C
 0001:00041BC4 Classes.TReader.FindComponentClass_00442BC4
 0001:00041C38 Classes.TReader.SkipBytes_00442C38
 0001:00041C80 Classes.ReadCustomVariant_00442C80
 0001:00041E48 Classes.TReader.ReadVariant_00442E48
 0001:00042068 Classes.TWriter.Destroy_00443068
 0001:00042094 Classes.TWriter.AddAncestor_00443094
 0001:000420A0 Classes.TWriter.DefineProperty_004430A0
 0001:000420C8 Classes.TWriter.DefineBinaryProperty_004430C8
 0001:000420F4 Classes.TWriter.GetPosition_004430F4
 0001:00042104 Classes.TWriter.FindMethodName_00443104
 0001:0004214C Classes.TWriter.FlushBuffer_0044314C
 0001:00042154 Classes.TWriter.SetPosition_00443154
 0001:00042190 Classes.TWriter.SetRoot_00443190
 0001:000421A8 Classes.TWriter.Write_004431A8
 0001:000421F4 Classes.TWriter.WriteBinary_004431F4
 0001:0004227C Classes.TWriter.WriteBuffer_0044327C
 0001:00042294 Classes.TWriter.WriteBoolean_00443294
 0001:000422A8 Classes.TWriter.WriteChar_004432A8
 0001:000422F8 Classes.TWriter.WriteWideChar_004432F8
 0001:00042348 Classes.TWriter.WriteCollection_00443348
 0001:000423E8 Classes.FindAncestor_004433E8
 0001:00042438 Classes.TWriter.WriteComponent_00443438
 0001:0004258C Classes.TWriter.WriteData_0044358C
 0001:0004294C Classes.TWriter.WriteFloat_0044394C
 0001:00042970 Classes.TWriter.WriteSingle_00443970
 0001:00042994 Classes.TWriter.WriteCurrency_00443994
 0001:000429B8 Classes.TWriter.WriteDate_004439B8
 0001:000429DC Classes.TWriter.WriteIdent_004439DC
 0001:00042AC0 Classes.TWriter.WriteInteger_00443AC0
 0001:00042B34 Classes.TWriter.WriteInteger_00443B34
 0001:00042B8C Classes.TWriter.WriteListBegin_00443B8C
 0001:00042B94 Classes.TWriter.WriteListEnd_00443B94
 0001:00042B9C Classes.TWriter.WritePrefix_00443B9C
 0001:00042BE4 Classes.TWriter.WriteProperties_00443BE4
 0001:00042CAC Classes.AncestorIsValid_00443CAC
 0001:00042CC4 Classes.IsDefaultOrdProp_00443CC4
 0001:00042D1C Classes.IsDefaultFloatProp_00443D1C
 0001:00042D78 Classes.IsDefaultInt64Prop_00443D78
 0001:00042DD0 Classes.IsDefaultStrProp_00443DD0
 0001:00042E60 Classes.ObjectAncestorMatch_00443E60
 0001:00042EA0 Classes.IsDefault_00443EA0
 0001:00042EF8 Classes.IsDefaultObjectProp_00443EF8
 0001:00042F78 Classes.IsDefaultValue_00443F78
 0001:00043044 Classes.IsDefaultInterfaceProp_00444044
 0001:00043120 Classes.FindMethodName_00444120
 0001:00043178 Classes.IsDefaultMethodProp_00444178
 0001:00043218 Classes.IsDefaultVariantProp_00444218
 0001:000432B0 Classes.IsDefaultPropertyValue_004442B0
 0001:00043414 Classes.WritePropPath_00444414
 0001:0004346C Classes.WriteSet_0044446C
 0001:00043500 Classes.WriteIntProp_00444500
 0001:0004356C Classes.WriteCollectionProp_0044456C
 0001:00043610 Classes.WriteOrdProp_00444610
 0001:00043708 Classes.WriteFloatProp_00444708
 0001:00043748 Classes.WriteInt64Prop_00444748
 0001:00043784 Classes.WriteStrProp_00444784
 0001:000437FC Classes.OwnedBy_004447FC
 0001:00043954 Classes.WriteObjectProp_00444954
 0001:00043B68 Classes.WriteInterfaceProp_00444B68
 0001:00043C44 Classes.WriteMethodProp_00444C44
 0001:00043CD4 Classes.WriteVariantProp_00444CD4
 0001:00043D38 Classes.TWriter.WriteProperty_00444D38
 0001:00043E8C Classes.TWriter.WriteVariant_00444E8C
 0001:0004426C Classes.TWriter.WritePropName_0044526C
 0001:000442C0 Classes.TWriter.WriteStr_004452C0
 0001:0004430C Classes.TWriter.WriteMinStr_0044530C
 0001:000443D0 Classes.TWriter.WriteString_004453D0
 0001:00044484 Classes.TWriter.WriteUTF8Str_00445484
 0001:00044518 Classes.TWriter.WriteWideString_00445518
 0001:00044520 Classes.TWriter.WriteValue_00445520
 0001:00044534 Classes.TWriter.GetLookupInfo_00445534
 0001:00044558 Classes.BinToHex_00445558
 0001:00044598 Classes.HexToBin_00445598
 0001:000446F8 Classes.TExternalThread.Create_004456F8
 0001:00044734 Classes.TExternalThread.Execute_00445734
 0001:00044738 Classes.InitThreadSynchronization_00445738
 0001:00044774 Classes.DoneThreadSynchronization_00445774
 0001:0004478C Classes.FreeExternalThreads_0044578C
 0001:0004480C Classes.ResetSyncEvent_0044580C
 0001:00044818 Classes.WaitForSyncEvent_00445818
 0001:00044834 Classes.SignalSyncEvent_00445834
 0001:00044840 Classes.CheckSynchronize_00445840
 0001:00044A6C Classes.ThreadProc_00445A6C
 0001:00044B20 Classes.TThread.Create_00445B20
 0001:00044C24 Classes.TThread.Destroy_00445C24
 0001:00044C98 Classes.Finalization_00445C98
 0001:00044CC0 Classes.TThread.AfterConstruction_00445CC0
 0001:00044CD4 Classes.TThread.CheckThreadError_00445CD4
 0001:00044D50 Classes.TThread.CheckThreadError_00445D50
 0001:00044D68 Classes.TThread.CallOnTerminate_00445D68
 0001:00044D7C Classes.TThread.DoTerminate_00445D7C
 0001:00044D90 Classes.TThread.GetCurrentThread_00445D90
 0001:00044E04 Classes.TThread.InternalStart_00445E04
 0001:00044EB0 Classes.TThread.GetPriority_00445EB0
 0001:00044EEC Classes.TThread.SetPriority_00445EEC
 0001:00044F18 Classes.TThread.Synchronize_00445F18
 0001:000450C0 Classes.TThread.Synchronize_004460C0
 0001:000450F4 Classes.TThread.RemoveQueuedEvents_004460F4
 0001:000451A8 Classes.TThread.SetSuspended_004461A8
 0001:000451C0 Classes.TThread.Sleep_004461C0
 0001:000451C8 Classes.TThread.Suspend_004461C8
 0001:00045238 Classes.TThread.Resume_00446238
 0001:00045260 Classes.TThread.Terminate_00446260
 0001:00045284 Classes.TThread.WaitFor_00446284
 0001:00045348 Classes.TThread.NameThreadForDebugging_00446348
 0001:000453E8 Classes.TComponentEnumerator.GetCurrent_004463E8
 0001:000453F4 Classes.TComponent.Create_004463F4
 0001:00045440 Classes.TComponent.Destroy_00446440
 0001:00045488 Classes.TComponent.BeforeDestruction_00446488
 0001:00045494 Classes.TComponent.RemoveFreeNotifications_00446494
 0001:000454D4 Classes.TComponent.FreeNotification_004464D4
 0001:00045528 Classes.TComponent.ReadLeft_00446528
 0001:0004553C Classes.TComponent.ReadTop_0044653C
 0001:00045550 Classes.TComponent.WriteLeft_00446550
 0001:0004555C Classes.TComponent.WriteTop_0044655C
 0001:00045568 Classes.TComponent.Insert_00446568
 0001:000455A4 Classes.TComponent.Remove_004465A4
 0001:0004561C Classes.TComponent.InsertComponent_0044661C
 0001:00045680 Classes.TComponent.RemoveComponent_00446680
 0001:000456B8 Classes.TComponent.DestroyComponents_004466B8
 0001:00045760 Classes.TComponent.RemoveNotification_00446760
 0001:000457B8 Classes.TComponent.RemoveFreeNotification_004467B8
 0001:000457D4 Classes.TComponent.Notification_004467D4
 0001:00045834 Classes.TComponent.DefineProperties_00446834
 0001:000458CC Classes.TComponent.HasParent_004468CC
 0001:000458D0 Classes.TComponent.sub_004468D0_004468D0
 0001:000458D8 Classes.TComponent.sub_004468D8_004468D8
 0001:000458DC Classes.TComponent.sub_004468DC_004468DC
 0001:000458E0 Classes.TComponent.GetNamePath_004468E0
 0001:000458F4 Classes.TComponent.sub_0043C540_004468F4
 0001:000458F8 Classes.TComponent.sub_004468F8_004468F8
 0001:000458FC Classes.TComponent.GetParentComponent_004468FC
 0001:00045900 Classes.TComponent.sub_00446900_00446900
 0001:00045904 Classes.TComponent.Updating_00446904
 0001:00045910 Classes.TComponent.Updated_00446910
 0001:0004591C Classes.TComponent.Loaded_0044691C
 0001:00045928 Classes.TComponent.sub_00446928_00446928
 0001:0004592C Classes.TComponent.ReadState_0044692C
 0001:00045934 Classes.sub_00446934_00446934
 0001:0004593C Classes.TComponent.ValidateRename_0044693C
 0001:000459C4 Classes.TComponent.ValidateContainer_004469C4
 0001:000459D8 Classes.TComponent.sub_004469D8_004469D8
 0001:00045B4C Classes.TComponent.FindComponent$1499$ActRec.$0$Body_00446B4C
 0001:00045B58 Classes.TComponent.FindComponent_00446B58
 0001:00045C44 Classes.TComponent.FindSortedComponent_00446C44
 0001:00045CBC Classes.TComponent.AddSortedComponent_00446CBC
 0001:00045CE0 Classes.TComponent.SetName_00446CE0
 0001:00045D70 Classes.TComponent.ChangeName_00446D70
 0001:00045DA8 Classes.TComponent.GetComponentIndex_00446DA8
 0001:00045DC4 Classes.TComponent.GetComponent_00446DC4
 0001:00045DF0 Classes.TComponent.GetComponentCount_00446DF0
 0001:00045E00 Classes.TComponent.SetComponentIndex_00446E00
 0001:00045EA4 Classes.TComponent.SetReference_00446EA4
 0001:00045ECC Classes.TComponent.ExecuteAction_00446ECC
 0001:00045EF4 Classes.TComponent.UpdateAction_00446EF4
 0001:00045F1C Classes.TComponent.GetComObject_00446F1C
 0001:00045FD4 Classes.TComponent.SafeCallException_00446FD4
 0001:00045FEC Classes.sub_00446FEC_00446FEC
 0001:00045FF4 Classes.TComponent.QueryInterface_00446FF4
 0001:00046034 Classes.TComponent._AddRef_00447034
 0001:00046054 Classes.TComponent._Release_00447054
 0001:00046074 Classes.sub_00447074_00447074
 0001:00046078 Classes.TBasicActionLink.Create_00447078
 0001:000460BC Classes.sub_004470BC_004470BC
 0001:000460C0 Classes.TBasicActionLink.Destroy_004470C0
 0001:000460F4 Classes.TBasicActionLink.Change_004470F4
 0001:0004610C Classes.TBasicActionLink.Execute_0044710C
 0001:00046128 Classes.TBasicActionLink.SetAction_00447128
 0001:00046154 Classes.TBasicActionLink.IsOnExecuteLinked_00447154
 0001:00046158 Classes.sub_00447158_00447158
 0001:00046160 Classes.TBasicActionLink.Update_00447160
 0001:0004616C Classes.TBasicAction.Create_0044716C
 0001:000461B0 Classes.TBasicAction.Destroy_004471B0
 0001:00046218 Classes.TBasicAction.HandlesTarget_00447218
 0001:0004621C Classes.TBasicAction.ExecuteTarget_0044721C
 0001:00046220 Classes.TBasicAction.Notification_00447220
 0001:00046248 Classes.TBasicAction.UpdateTarget_00447248
 0001:0004624C Classes.TBasicAction.Execute_0044724C
 0001:00046268 Classes.TBasicAction.Update_00447268
 0001:00046284 Classes.TBasicAction.SetOnExecute_00447284
 0001:000462E0 Classes.TBasicAction.Change_004472E0
 0001:000462F4 Classes.TBasicAction.RegisterChanges_004472F4
 0001:00046300 Classes.TBasicAction.UnRegisterChanges_00447300
 0001:00046340 Classes.TBasicAction.SetActionComponent_00447340
 0001:0004636C Classes.TStreamAdapter.Create_0044736C
 0001:000463B8 Classes.TStreamAdapter.Destroy_004473B8
 0001:000463F0 Classes.TStreamAdapter.Read_004473F0
 0001:00046458 Classes.TStreamAdapter.Write_00447458
 0001:000464C0 Classes.TStreamAdapter.Seek_004474C0
 0001:00046544 Classes.TStreamAdapter.SetSize_00447544
 0001:000465A8 Classes.TStreamAdapter.CopyTo_004475A8
 0001:000467B0 Classes.TStreamAdapter.Commit_004477B0
 0001:000467BC Classes.TStreamAdapter.Revert_004477BC
 0001:000467C8 Classes.TStreamAdapter.LockRegion_004477C8
 0001:000467D4 Classes.TStreamAdapter.UnlockRegion_004477D4
 0001:000467E0 Classes.TStreamAdapter.Stat_004477E0
 0001:0004685C Classes.TStreamAdapter.Clone_0044785C
 0001:00046874 Classes.FreeIntConstList_00447874
 0001:000468E4 Classes.ModuleUnload_004478E4
 0001:000468EC Classes.StdWndProc_004478EC
 0001:0004690C Classes.CalcJmpOffset_0044790C
 0001:00046914 Classes.MakeObjectInstance_00447914
 0001:000469AC Classes.FreeObjectInstance_004479AC
 0001:000469C0 Classes.CleanupInstFreeList_004479C0
 0001:000469FC Classes.GetFreeInstBlockItemCount_004479FC
 0001:00046A2C Classes.ReleaseObjectInstanceBlocks_00447A2C
 0001:00046AAC Classes.AllocateHWnd_00447AAC
 0001:00046B60 Classes.DeallocateHWnd_00447B60
 0001:00046B88 Classes.Finalization_00447B88
 0001:00046CE8 _Unit13.WICConvertBitmapSource_00447CE8
 0001:00046CF0 _Unit13.AnsiReplaceText_00447CF0
 0001:00046D20 _Unit13.LeftStr_00447D20
 0001:00046D3C _Unit13.PosEx_00447D3C
 0001:00046EA0 _Unit13.sub_00447EA0_00447EA0
 0001:00046EC8 _Unit13.sub_00447EC8_00447EC8
 0001:00046EF0 _Unit13.Finalization_00447EF0
 0001:000477B8 SyncObjs.GetOleThreadWindow_004487B8
 0001:0004788C SyncObjs.InternalCoWaitForMultipleHandles_0044888C
 0001:00047970 SyncObjs.LookupProc_00448970
 0001:000479F0 SyncObjs.CoWaitForMultipleHandles_004489F0
 0001:00047A24 SyncObjs.TSynchroObject.Acquire_00448A24
 0001:00047A30 SyncObjs.TSynchroObject.Release_00448A30
 0001:00047A34 SyncObjs.TSynchroObject.WaitFor_00448A34
 0001:00047A38 SyncObjs.THandleObject.Create_00448A38
 0001:00047A7C SyncObjs.THandleObject.Destroy_00448A7C
 0001:00047AAC SyncObjs.THandleObject.WaitFor_00448AAC
 0001:00047B40 SyncObjs.TEvent.Create_00448B40
 0001:00047BA8 SyncObjs.TEvent.Create_00448BA8
 0001:00047BE8 SyncObjs.TEvent.SetEvent_00448BE8
 0001:00047BF4 SyncObjs.TEvent.ResetEvent_00448BF4
 0001:00047C00 SyncObjs.TCriticalSection.Create_00448C00
 0001:00047C40 SyncObjs.TCriticalSection.Destroy_00448C40
 0001:00047C70 SyncObjs.TCriticalSection.Acquire_00448C70
 0001:00047C7C SyncObjs.TCriticalSection.Release_00448C7C
 0001:00047C88 SyncObjs.InternalInitConditionVariable_00448C88
 0001:00047C98 SyncObjs.InternalWakeConditionVariable_00448C98
 0001:00047CA8 SyncObjs.InternalWakeAllConditionVariable_00448CA8
 0001:00047CB8 SyncObjs.InternalSleepConditionVariableCS_00448CB8
 0001:00047CD4 SyncObjs.TInternalConditionVariable.DequeueWaiter_00448CD4
 0001:00047D2C SyncObjs.TInternalConditionVariable.DequeueWaiterNoLock_00448D2C
 0001:00047D48 SyncObjs.TInternalConditionVariable.LockQueue_00448D48
 0001:00047DAC SyncObjs.TInternalConditionVariable.QueueWaiter_00448DAC
 0001:00047E14 SyncObjs.TInternalConditionVariable.RemoveWaiter_00448E14
 0001:00047EA0 SyncObjs.TInternalConditionVariable.SleepCriticalSection_00448EA0
 0001:00047F98 SyncObjs.TInternalConditionVariable.UnlockQueue_00448F98
 0001:00047FA0 SyncObjs.TInternalConditionVariable.Wake_00448FA0
 0001:00047FB4 SyncObjs.TInternalConditionVariable.WakeAll_00448FB4
 0001:00048028 SyncObjs.TInterlocked.Add_00449028
 0001:00048034 SyncObjs.InitConditionVariableProcs_00449034
 0001:000481A0 SyncObjs.Finalization_004491A0
 0001:00048210 _Unit15.sub_00449210_00449210
 0001:00048888 _Unit15.sub_00449888_00449888
 0001:000488B4 _Unit15.sub_004498B4_004498B4
 0001:00049068 _Unit15.sub_0044A068_0044A068
 0001:00049A94 _Unit15.InvalidMask_0044AA94
 0001:00049AEC _Unit15.Reset_0044AAEC
 0001:00049B38 _Unit15.WriteScan_0044AB38
 0001:00049C94 _Unit15.ScanSet_0044AC94
 0001:00049E4C _Unit15.InitMaskStates_0044AE4C
 0001:00049F14 _Unit15.Push_0044AF14
 0001:00049F3C _Unit15.Pop_0044AF3C
 0001:00049F7C _Unit15.Matches_0044AF7C
 0001:0004A0FC _Unit15.MatchesMaskStates_0044B0FC
 0001:0004A16C _Unit15.DoneMaskStates_0044B16C
 0001:0004A194 _Unit15.TMask.Create_0044B194
 0001:0004A20C _Unit15.TMask.Destroy_0044B20C
 0001:0004A248 _Unit15.TMask.Matches_0044B248
 0001:0004A258 _Unit15.MatchesMask_0044B258
 0001:0004A310 _Unit15.Finalization_0044B310
 0001:0004A35C IOUtils.TDirectory.CheckGetFilesParameters_0044B35C
 0001:0004A5C4 IOUtils.TDirectory.DoGetFiles$5178$ActRec.$0$Body_0044B5C4
 0001:0004A68C IOUtils.TDirectory.DoGetDirectories_0044B68C
 0001:0004A93C IOUtils.TDirectory.Exists_0044B93C
 0001:0004A944 IOUtils.sub_0044B944_0044B944
 0001:0004A988 IOUtils.TDirectory.InternalCheckDirPathParam_0044B988
 0001:0004AA64 IOUtils.TDirectory.CheckGetAttributesParameters_0044BA64
 0001:0004AA6C IOUtils.TDirectory.CheckGetCreationTimeParameters_0044BA6C
 0001:0004AA74 IOUtils.TFile.DoReadAllBytes_0044BA74
 0001:0004AAE8 IOUtils.TFile.Exists_0044BAE8
 0001:0004AAF0 IOUtils.TFile.InternalCheckFilePathParam_0044BAF0
 0001:0004AC10 IOUtils.TFile.OpenRead_0044BC10
 0001:0004AC7C IOUtils.TFile.ReadAllBytes_0044BC7C
 0001:0004ACE0 IOUtils.TPath.CheckPathLength_0044BCE0
 0001:0004AD18 IOUtils.TPath.DoCombine_0044BD18
 0001:0004AE48 IOUtils.TPath.DoGetDirectoryName_0044BE48
 0001:0004B040 IOUtils.TPath.DoGetFullPath_0044C040
 0001:0004B0BC IOUtils.TPath.DoIsPathRooted_0044C0BC
 0001:0004B190 IOUtils.TPath.DoMatchesPattern_0044C190
 0001:0004B1E4 IOUtils.TPath.GetPosAfterExtendedPrefix_0044C1E4
 0001:0004B244 IOUtils.TPath.GetPosAfterExtendedPrefix_0044C244
 0001:0004B250 IOUtils.TPath.HasValidFileNameChars_0044C250
 0001:0004B2C8 IOUtils.TPath.HasValidPathChars_0044C2C8
 0001:0004B340 IOUtils.TPath.HasPathValidColon_0044C340
 0001:0004B3D0 IOUtils.TPath.IsCharInOrderedArray_0044C3D0
 0001:0004B434 IOUtils.TPath.IsDriveRooted_0044C434
 0001:0004B4A8 IOUtils.TPath.IsExtendedPrefixed_0044C4A8
 0001:0004B4BC IOUtils.TPath.GetExtendedPrefix_0044C4BC
 0001:0004B578 IOUtils.TPath.IsFileNameWildcardChar_0044C578
 0001:0004B584 IOUtils.TPath.IsPathWildcardChar_0044C584
 0001:0004B590 IOUtils.TPath.IsUNCRooted_0044C590
 0001:0004B5E8 IOUtils.TPath.IsValidFileNameChar_0044C5E8
 0001:0004B5FC IOUtils.TPath.IsValidPathChar_0044C5FC
 0001:0004B610 IOUtils.TPath.PrefixExtendsPath_0044C610
 0001:0004B618 IOUtils.TPath.IsPathRooted_0044C618
 0001:0004B620 IOUtils.TPath.IsPathSeparator_0044C620
 0001:0004B644 IOUtils.Finalization_0044C644
 0001:0004C620 IniFiles.TCustomIniFile.Create_0044D620
 0001:0004C65C IniFiles.TCustomIniFile.ReadInteger_0044D65C
 0001:0004C738 IniFiles.TCustomIniFile.WriteInteger_0044D738
 0001:0004C794 IniFiles.TCustomIniFile.ReadBool_0044D794
 0001:0004C7C0 IniFiles.TCustomIniFile.ReadDate_0044D7C0
 0001:0004C88C IniFiles.TCustomIniFile.ReadDateTime_0044D88C
 0001:0004C958 IniFiles.TCustomIniFile.ReadFloat_0044D958
 0001:0004CA20 IniFiles.TCustomIniFile.ReadTime_0044DA20
 0001:0004CAEC IniFiles.TCustomIniFile.WriteDate_0044DAEC
 0001:0004CB50 IniFiles.TCustomIniFile.WriteDateTime_0044DB50
 0001:0004CBB4 IniFiles.TCustomIniFile.WriteFloat_0044DBB4
 0001:0004CC1C IniFiles.TCustomIniFile.WriteTime_0044DC1C
 0001:0004CCA0 IniFiles.TCustomIniFile.WriteBool_0044DCA0
 0001:0004CCBC IniFiles.TCustomIniFile.ValueExists_0044DCBC
 0001:0004CD2C IniFiles.TCustomIniFile.ReadBinaryStream_0044DD2C
 0001:0004CEAC IniFiles.TCustomIniFile.WriteBinaryStream_0044DEAC
 0001:0004D024 IniFiles.TCustomIniFile.InternalReadSections_0044E024
 0001:0004D204 IniFiles.TCustomIniFile.ReadSections_0044E204
 0001:0004D210 IniFiles.TCustomIniFile.ReadSubSections_0044E210
 0001:0004D224 IniFiles.TIniFile.Destroy_0044E224
 0001:0004D250 IniFiles.TIniFile.ReadString_0044E250
 0001:0004D2B0 IniFiles.TIniFile.WriteString_0044E2B0
 0001:0004D31C IniFiles.TIniFile.ReadSections_0044E31C
 0001:0004D49C IniFiles.ReadStringData_0044E49C
 0001:0004D55C IniFiles.TIniFile.ReadSection_0044E55C
 0001:0004D604 IniFiles.TIniFile.ReadSectionValues_0044E604
 0001:0004D758 IniFiles.TIniFile.EraseSection_0044E758
 0001:0004D7AC IniFiles.TIniFile.DeleteKey_0044E7AC
 0001:0004D7DC IniFiles.TIniFile.UpdateFile_0044E7DC
 0001:0004D7F8 IniFiles.Finalization_0044E7F8
 0001:0004E9F8 Registry.ReadError_0044F9F8
 0001:0004EA24 Registry.IsRelative_0044FA24
 0001:0004EA3C Registry.DataTypeToRegData_0044FA3C
 0001:0004EA64 Registry.TRegistry.Create_0044FA64
 0001:0004EAA8 Registry.TRegistry.Destroy_0044FAA8
 0001:0004EAD4 Registry.TRegistry.CheckResult_0044FAD4
 0001:0004EAE0 Registry.TRegistry.CloseKey_0044FAE0
 0001:0004EB10 Registry.TRegistry.SetRootKey_0044FB10
 0001:0004EB3C Registry.TRegistry.ChangeKey_0044FB3C
 0001:0004EB60 Registry.TRegistry.GetBaseKey_0044FB60
 0001:0004EB74 Registry.TRegistry.OpenKeyReadOnly_0044FB74
 0001:0004ED5C Registry.TRegistry.GetLastErrorMsg_0044FD5C
 0001:0004EECC Registry.TRegistry.GetRootKeyName_0044FECC
 0001:0004EF04 Registry.TRegistry.GetDataInfo_0044FF04
 0001:0004EF58 Registry.TRegistry.GetDataSize_0044FF58
 0001:0004EF80 Registry.TRegistry.ReadString_0044FF80
 0001:0004F000 Registry.TRegistry.GetData_00450000
 0001:0004F09C Registry.Finalization_0045009C
 0001:00054FB4 Graphics.InternalDeletePalette_00455FB4
 0001:00055370 Graphics.GetHashCode_00456370
 0001:00055384 Graphics.TResourceManager.Create_00456384
 0001:000553C0 Graphics.TResourceManager.Destroy_004563C0
 0001:000553E4 Graphics.TResourceManager.AllocResource_004563E4
 0001:000554F4 Graphics.TResourceManager.FreeResource_004564F4
 0001:000555C4 Graphics.TResourceManager.ChangeResource_004565C4
 0001:0005564C Graphics.sub_0045664C_0045664C
 0001:00055650 Graphics.TResourceManager.AssignResource_00456650
 0001:000556E4 Graphics.TBrushResourceManager.FreeObjects_004566E4
 0001:000556FC Graphics.ClearColor_004566FC
 0001:00055780 Graphics.PaletteChanged_00456780
 0001:00055F7C Graphics.ColorToRGB_00456F7C
 0001:00055F8C Graphics.StringToColor_00456F8C
 0001:00055FB0 Graphics.ColorToIdent_00456FB0
 0001:00055FC0 Graphics.IdentToColor_00456FC0
 0001:00055FD0 Graphics.TCustomCanvas.Changed_00456FD0
 0001:00055FE4 Graphics.TGraphicsObject.Lock_00456FE4
 0001:00055FF4 Graphics.TGraphicsObject.Unlock_00456FF4
 0001:00056310 Graphics.CharsetToIdent_00457310
 0001:00056320 Graphics.IdentToCharset_00457320
 0001:00056330 Graphics.GetFontData_00457330
 0001:0005643C Graphics.TFont.Create_0045743C
 0001:0005649C Graphics.TFont.Destroy_0045749C
 0001:000564D0 Graphics.TFont.Changed_004574D0
 0001:000564EC Graphics.TFont.Assign_004574EC
 0001:000565C0 Graphics.TFont.GetData_004575C0
 0001:000565D8 Graphics.TFont.SetData_004575D8
 0001:00056628 Graphics.TFont.SetColor_00457628
 0001:00056638 Graphics.IsDefaultFont_00457638
 0001:00056664 Graphics.TFont.GetHandle_00457664
 0001:00056898 Graphics.TFont.SetHandle_00457898
 0001:000568C0 Graphics.TFont.GetHeight_004578C0
 0001:000568C8 Graphics.TFont.SetHeight_004578C8
 0001:000568FC Graphics.TFont.GetName_004578FC
 0001:00056950 Graphics.TFont.SetName_00457950
 0001:000569AC Graphics.TFont.GetSize_004579AC
 0001:000569C8 Graphics.TFont.SetSize_004579C8
 0001:000569E8 Graphics.TFont.GetStyle_004579E8
 0001:000569F4 Graphics.TFont.SetStyle_004579F4
 0001:00056A34 Graphics.TFont.GetPitch_00457A34
 0001:00056A3C Graphics.TFont.GetQuality_00457A3C
 0001:00056A48 Graphics.TFont.SetPitch_00457A48
 0001:00056A80 Graphics.TFont.SetQuality_00457A80
 0001:00056ABC Graphics.TFont.GetCharset_00457ABC
 0001:00056AC4 Graphics.TFont.SetCharset_00457AC4
 0001:00056AFC Graphics.TFont.GetOrientation_00457AFC
 0001:00056B04 Graphics.TFont.SetOrientation_00457B04
 0001:00056B3C Graphics.GetPenData_00457B3C
 0001:00056C4C Graphics.TPen.Create_00457C4C
 0001:00056C98 Graphics.TPen.Destroy_00457C98
 0001:00056CCC Graphics.TPen.Assign_00457CCC
 0001:00056D84 Graphics.TPen.GetData_00457D84
 0001:00056D9C Graphics.TBrush.SetData_00457D9C
 0001:00056DEC Graphics.TPen.GetColor_00457DEC
 0001:00056DF4 Graphics.TPen.SetColor_00457DF4
 0001:00056E24 Graphics.TPen.GetHandle_00457E24
 0001:00056EF8 Graphics.TPen.SetMode_00457EF8
 0001:00056F08 Graphics.TBrush.GetStyle_00457F08
 0001:00056F10 Graphics.TPen.SetStyle_00457F10
 0001:00056F40 Graphics.TPen.GetWidth_00457F40
 0001:00056F48 Graphics.TPen.SetWidth_00457F48
 0001:00056F7C Graphics.GetBrushData_00457F7C
 0001:00057004 Graphics.TBrush.Create_00458004
 0001:0005704C Graphics.TBrush.Destroy_0045804C
 0001:00057080 Graphics.TBrush.Assign_00458080
 0001:00057128 Graphics.TBrush.GetData_00458128
 0001:00057144 Graphics.TPen.SetData_00458144
 0001:0005719C Graphics.TBrush.SetBitmap_0045819C
 0001:000571C0 Graphics.TBrush.GetColor_004581C0
 0001:000571C8 Graphics.TBrush.SetColor_004581C8
 0001:00057228 Graphics.TBrush.GetHandle_00458228
 0001:00057340 Graphics.TPen.GetStyle_00458340
 0001:00057348 Graphics.TBrush.SetStyle_00458348
 0001:000573A0 Graphics.TGraphicsObject.Changed_004583A0
 0001:000573B4 Graphics.TCustomCanvas.Changing_004583B4
 0001:000573C8 Graphics.TCustomCanvas.Lock_004583C8
 0001:000573F0 Graphics.TCustomCanvas.TextHeight_004583F0
 0001:00057410 Graphics.TCustomCanvas.TextWidth_00458410
 0001:00057430 Graphics.TCustomCanvas.TryLock_00458430
 0001:0005748C Graphics.TCustomCanvas.Unlock_0045848C
 0001:000574B4 Graphics.TCanvas.Create_004584B4
 0001:00057578 Graphics.TCanvas.Destroy_00458578
 0001:000575D8 Graphics.TCanvas.Arc_004585D8
 0001:00057630 Graphics.TCanvas.ArcTo_00458630
 0001:00057688 Graphics.TCanvas.AngleArc_00458688
 0001:000576D0 Graphics.TCanvas.BrushCopy_004586D0
 0001:00057994 Graphics.TCanvas.Chord_00458994
 0001:000579EC Graphics.TCanvas.CopyRect_004589EC
 0001:00057A74 Graphics.TCanvas.Draw_00458A74
 0001:00057B20 Graphics.TCanvas.Draw_00458B20
 0001:00057BD4 Graphics.TCanvas.DrawFocusRect_00458BD4
 0001:00057C08 Graphics.TCanvas.Ellipse_00458C08
 0001:00057C50 Graphics.TCanvas.FillRect_00458C50
 0001:00057C8C Graphics.TCanvas.FloodFill_00458C8C
 0001:00057CDC Graphics.TCanvas.FrameRect_00458CDC
 0001:00057D18 Graphics.TCanvas.LineTo_00458D18
 0001:00057D50 Graphics.TCanvas.MoveTo_00458D50
 0001:00057D7C Graphics.TCanvas.Pie_00458D7C
 0001:00057DD4 Graphics.TCanvas.Polygon_00458DD4
 0001:00057E10 Graphics.TCanvas.Polyline_00458E10
 0001:00057E4C Graphics.TCanvas.PolyBezier_00458E4C
 0001:00057E88 Graphics.TCanvas.PolyBezierTo_00458E88
 0001:00057EC4 Graphics.TCanvas.Rectangle_00458EC4
 0001:00057F0C Graphics.TCanvas.Refresh_00458F0C
 0001:00057F14 Graphics.TCanvas.RoundRect_00458F14
 0001:00057F64 Graphics.TCanvas.StretchDraw_00458F64
 0001:00057FA0 Graphics.TCanvas.GetCanvasOrientation_00458FA0
 0001:00057FCC Graphics.TCanvas.TextOut_00458FCC
 0001:00058068 Graphics.TCanvas.TextRect_00459068
 0001:00058114 Graphics.TCanvas.TextRect_00459114
 0001:000581B0 Graphics.TCanvas.TextExtent_004591B0
 0001:000581F8 Graphics.TCanvas.SetFont_004591F8
 0001:00058208 Graphics.TCanvas.SetPen_00459208
 0001:00058214 Graphics.TCanvas.SetBrush_00459214
 0001:00058220 Graphics.TCanvas.GetPenPos_00459220
 0001:00058248 Graphics.TCanvas.SetPenPos_00459248
 0001:00058268 Graphics.TCanvas.GetPixel_00459268
 0001:00058294 Graphics.TCanvas.SetPixel_00459294
 0001:000582DC Graphics.TCanvas.GetClipRect_004592DC
 0001:00058304 Graphics.TCanvas.GetHandle_00459304
 0001:00058328 Graphics.TCanvas.DeselectHandles_00459328
 0001:00058388 Graphics.TCanvas.CreateHandle_00459388
 0001:0005838C Graphics.TCanvas.SetHandle_0045938C
 0001:000583E0 Graphics.TCanvas.RequiredState_004593E0
 0001:0005845C Graphics.TCanvas.CreateFont_0045945C
 0001:00058488 Graphics.TCanvas.CreatePen_00459488
 0001:000584B8 Graphics.TCanvas.CreateBrush_004594B8
 0001:0005852C Graphics.TCanvas.FontChanged_0045952C
 0001:0005854C Graphics.TCanvas.PenChanged_0045954C
 0001:0005856C Graphics.TCanvas.BrushChanged_0045956C
 0001:0005858C Graphics.InvalidOperation_0045958C
 0001:000585A4 Graphics.InvalidGraphic_004595A4
 0001:000585BC Graphics.InvalidBitmap_004595BC
 0001:000585C8 Graphics.InvalidIcon_004595C8
 0001:000585D4 Graphics.InvalidMetafile_004595D4
 0001:000585E0 Graphics.OutOfResources_004595E0
 0001:00058634 Graphics.GDIError_00459634
 0001:000586DC Graphics.GDICheck_004596DC
 0001:000586EC Graphics.DupBits_004596EC
 0001:0005884C Graphics.GetDInColors_0045984C
 0001:0005886C Graphics.BytesPerScanline_0045986C
 0001:0005888C Graphics.TransparentStretchBlt_0045988C
 0001:00058B18 Graphics.RGBTripleToQuad_00459B18
 0001:00058B54 Graphics.RGBQuadToTriple_00459B54
 0001:00058BD0 Graphics.ByteSwapColors_00459BD0
 0001:00058C24 Graphics.CreateSystemPalette_00459C24
 0001:00058D3C Graphics.SystemPaletteOverride_00459D3C
 0001:00058DD4 Graphics.PaletteFromDIBColorTable_00459DD4
 0001:00058E78 Graphics.PaletteToDIBColorTable_00459E78
 0001:00058ECC Graphics.TwoBitsFromDIB_00459ECC
 0001:0005908C Graphics.BetterSize_0045A08C
 0001:00059170 Graphics.ReadIcon_0045A170
 0001:000594A8 Graphics.ComputeAldusChecksum_0045A4A8
 0001:000594E0 Graphics.InitializeBitmapInfoHeader_0045A4E0
 0001:000595C4 Graphics.InternalGetDIBSizes_0045A5C4
 0001:0005962C Graphics.GetDIBSizes_0045A62C
 0001:00059634 Graphics.InternalGetDIB_0045A634
 0001:000596E8 Graphics.GetDIB_0045A6E8
 0001:000596FC Graphics.WinError_0045A6FC
 0001:00059700 Graphics.CheckBool_0045A700
 0001:0005970C Graphics.WriteIcon_0045A70C
 0001:0005990C Graphics.TGraphic.Create_0045A90C
 0001:00059944 Graphics.TGraphic.Changed_0045A944
 0001:0005995C Graphics.DoWrite_0045A95C
 0001:000599B4 Graphics.TGraphic.DefineProperties_0045A9B4
 0001:00059A08 Graphics.TGraphic.DrawTransparent_0045AA08
 0001:00059A1C Graphics.TGraphic.Equals_0045AA1C
 0001:00059B5C Graphics.TGraphic.Equals_0045AB5C
 0001:00059B8C Graphics.sub_0045AB8C_0045AB8C
 0001:00059B90 Graphics.sub_0045AB90_0045AB90
 0001:00059B94 Graphics.sub_0045AB94_0045AB94
 0001:00059B9C Graphics.TGraphic.LoadFromFile_0045AB9C
 0001:00059BF0 Graphics.TGraphic.Progress_0045ABF0
 0001:00059C1C Graphics.TGraphic.ReadData_0045AC1C
 0001:00059C28 Graphics.TGraphic.SaveToFile_0045AC28
 0001:00059C80 Graphics.sub_0045AC80_0045AC80
 0001:00059C84 Graphics.TGraphic.SetModified_0045AC84
 0001:00059C98 Graphics.TGraphic.SetSize_0045AC98
 0001:00059CB4 Graphics.TGraphic.SetTransparent_0045ACB4
 0001:00059CC4 Graphics.TGraphic.WriteData_0045ACC4
 0001:0005A008 Graphics.TFileFormatsList.Create_0045B008
 0001:0005A1D0 Graphics.TFileFormatsList.Destroy_0045B1D0
 0001:0005A21C Graphics.TFileFormatsList.Add_0045B21C
 0001:0005A2B0 Graphics.TFileFormatsList.FindExt_0045B2B0
 0001:0005A348 Graphics.TFileFormatsList.FindClassName_0045B348
 0001:0005A3C4 Graphics.TFileFormatsList.Remove_0045B3C4
 0001:0005A600 Graphics.TClipboardFormats.Create_0045B600
 0001:0005A688 Graphics.TClipboardFormats.Destroy_0045B688
 0001:0005A6C0 Graphics.TClipboardFormats.Add_0045B6C0
 0001:0005A728 Graphics.TClipboardFormats.FindFormat_0045B728
 0001:0005A764 Graphics.TClipboardFormats.Remove_0045B764
 0001:0005A7AC Graphics.GetFileFormats_0045B7AC
 0001:0005A7CC Graphics.GetClipboardFormats_0045B7CC
 0001:0005A7EC Graphics.TPicture.Create_0045B7EC
 0001:0005A82C Graphics.TPicture.Destroy_0045B82C
 0001:0005A85C Graphics.TPicture.AssignTo_0045B85C
 0001:0005A894 Graphics.TPicture.ForceType_0045B894
 0001:0005A8F8 Graphics.TPicture.GetBitmap_0045B8F8
 0001:0005A910 Graphics.TPicture.GetIcon_0045B910
 0001:0005A928 Graphics.TPicture.GetMetafile_0045B928
 0001:0005A958 Graphics.TPicture.SetGraphic_0045B958
 0001:0005AA04 Graphics.TPicture.LoadFromFile_0045BA04
 0001:0005AB3C Graphics.TPicture.LoadFromClipboardFormat_0045BB3C
 0001:0005AC00 Graphics.TPicture.SaveToClipboardFormat_0045BC00
 0001:0005AC24 Graphics.TPicture.SupportsClipboardFormat_0045BC24
 0001:0005AC3C Graphics.TPicture.LoadFromStream_0045BC3C
 0001:0005AC54 Graphics.TPicture.SaveToStream_0045BC54
 0001:0005AC6C Graphics.TPicture.Assign_0045BC6C
 0001:0005ACC8 Graphics.TPicture.RegisterFileFormat_0045BCC8
 0001:0005ACEC Graphics.TPicture.RegisterClipboardFormat_0045BCEC
 0001:0005AD04 Graphics.TPicture.UnregisterGraphicClass_0045BD04
 0001:0005AD34 Graphics.TPicture.Changed_0045BD34
 0001:0005AD58 Graphics.TPicture.Progress_0045BD58
 0001:0005AD84 Graphics.TPicture.ReadData_0045BD84
 0001:0005AED0 Graphics.TPicture.WriteData_0045BED0
 0001:0005AF80 Graphics.DoWrite_0045BF80
 0001:0005AFFC Graphics.TPicture.DefineProperties_0045BFFC
 0001:0005B050 Graphics.TPicture.GetWidth_0045C050
 0001:0005B068 Graphics.TPicture.GetHeight_0045C068
 0001:0005B080 Graphics.TMetafileImage.Destroy_0045C080
 0001:0005B0BC Graphics.TMetafileImage.FreeHandle_0045C0BC
 0001:0005B0C0 Graphics.TMetafileCanvas.Create_0045C0C0
 0001:0005B158 Graphics.TMetafileCanvas.CreateWithComment_0045C158
 0001:0005B3C4 Graphics.TMetafileCanvas.Destroy_0045C3C4
 0001:0005B410 Graphics.TMetafile.Create_0045C410
 0001:0005B458 Graphics.TMetafile.Destroy_0045C458
 0001:0005B488 Graphics.TMetafile.Assign_0045C488
 0001:0005B51C Graphics.TMetafile.Draw_0045C51C
 0001:0005B5AC Graphics.TMetafile.GetAuthor_0045C5AC
 0001:0005B614 Graphics.TMetafile.GetDesc_0045C614
 0001:0005B694 Graphics.TMetafile.GetEmpty_0045C694
 0001:0005B69C Graphics.TMetafile.GetHandle_0045C69C
 0001:0005B6AC Graphics.TMetafile.GetHeight_0045C6AC
 0001:0005B710 Graphics.TMetafile.GetInch_0045C710
 0001:0005B720 Graphics.TMetafile.GetMMHeight_0045C720
 0001:0005B738 Graphics.TMetafile.GetMMWidth_0045C738
 0001:0005B750 Graphics.TMetafile.GetPalette_0045C750
 0001:0005B7DC Graphics.TMetafile.GetWidth_0045C7DC
 0001:0005B840 Graphics.TMetafile.LoadFromStream_0045C840
 0001:0005B894 Graphics.TMetafile.NewImage_0045C894
 0001:0005B8BC Graphics.TMetafile.ReadData_0045C8BC
 0001:0005B928 Graphics.TMetafile.ReadEMFStream_0045C928
 0001:0005B9F8 Graphics.TMetafile.ReadWMFStream_0045C9F8
 0001:0005BB78 Graphics.TMetafile.SaveToFile_0045CB78
 0001:0005BC48 Graphics.TMetafile.SaveToStream_0045CC48
 0001:0005BC64 Graphics.TMetafile.SetHandle_0045CC64
 0001:0005BCF4 Graphics.TMetafile.SetHeight_0045CCF4
 0001:0005BD68 Graphics.TMetafile.SetInch_0045CD68
 0001:0005BDA0 Graphics.TMetafile.SetMMHeight_0045CDA0
 0001:0005BDDC Graphics.TMetafile.SetMMWidth_0045CDDC
 0001:0005BE18 Graphics.TMetafile.SetTransparent_0045CE18
 0001:0005BE1C Graphics.TMetafile.SetWidth_0045CE1C
 0001:0005BE90 Graphics.TMetafile.TestEMF_0045CE90
 0001:0005BEF0 Graphics.TMetafile.UniqueImage_0045CEF0
 0001:0005BF74 Graphics.TMetafile.WriteData_0045CF74
 0001:0005BFF8 Graphics.TMetafile.WriteEMFStream_0045CFF8
 0001:0005C084 Graphics.TMetafile.WriteWMFStream_0045D084
 0001:0005C1CC Graphics.TMetafile.LoadFromClipboardFormat_0045D1CC
 0001:0005C250 Graphics.TMetafile.SaveToClipboardFormat_0045D250
 0001:0005C284 Graphics.TMetafile.ReleaseHandle_0045D284
 0001:0005C2A0 Graphics.TMetafile.SetSize_0045D2A0
 0001:0005C538 Graphics.FreeMemoryContexts_0045D538
 0001:0005C5E4 Graphics.DeselectBitmap_0045D5E4
 0001:0005C664 Graphics.TBitmapCanvas.Create_0045D664
 0001:0005C6A0 Graphics.TBitmapCanvas.Destroy_0045D6A0
 0001:0005C6CC Graphics.TBitmapCanvas.FreeContext_0045D6CC
 0001:0005C770 Graphics.TBitmapCanvas.CreateHandle_0045D770
 0001:0005C85C Graphics.TSharedImage.Destroy_0045D85C
 0001:0005C884 Graphics.TSharedImage.Reference_0045D884
 0001:0005C888 Graphics.TSharedImage.Release_0045D888
 0001:0005C8A8 Graphics.TBitmapImage.Destroy_0045D8A8
 0001:0005C90C Graphics.TBitmapImage.FreeHandle_0045D90C
 0001:0005C958 Graphics.UpdateDIBColorTable_0045D958
 0001:0005CA14 Graphics.FixupBitFields_0045DA14
 0001:0005CA60 Graphics.CopyBitmap_0045DA60
 0001:0005D0C4 Graphics.CopyPalette_0045E0C4
 0001:0005D128 Graphics.CopyBitmapAsMask_0045E128
 0001:0005D334 Graphics.TBitmap.Create_0045E334
 0001:0005D3A8 Graphics.TBitmap.Destroy_0045E3A8
 0001:0005D3E4 Graphics.TBitmap.Assign_0045E3E4
 0001:0005D4F8 Graphics.TBitmap.CopyImage_0045E4F8
 0001:0005D5B8 Graphics.TBitmap.Changing_0045E5B8
 0001:0005D5E4 Graphics.TBitmap.Changed_0045E5E4
 0001:0005D5F0 Graphics.TBitmap.Dormant_0045E5F0
 0001:0005D66C Graphics.TBitmap.Draw_0045E66C
 0001:0005D918 Graphics.TBitmap.DrawTransparent_0045E918
 0001:0005DBD4 Graphics.TBitmap.FreeImage_0045EBD4
 0001:0005DC38 Graphics.TBitmap.GetEmpty_0045EC38
 0001:0005DC54 Graphics.TBitmap.GetCanvas_0045EC54
 0001:0005DC9C Graphics.TBitmap.GetHandle_0045EC9C
 0001:0005DCC0 Graphics.TBitmap.GetHandleType_0045ECC0
 0001:0005DCEC Graphics.TBitmap.GetHeight_0045ECEC
 0001:0005DCFC Graphics.TBitmap.GetMaskHandle_0045ECFC
 0001:0005DD10 Graphics.TBitmap.GetMonochrome_0045ED10
 0001:0005DD2C Graphics.TBitmap.GetPalette_0045ED2C
 0001:0005DD40 Graphics.TBitmap.GetPixelFormat_0045ED40
 0001:0005DDC4 Graphics.TBitmap.GetScanline_0045EDC4
 0001:0005DE2C Graphics.TBitmap.GetSupportsPartialTransparency_0045EE2C
 0001:0005DE48 Graphics.TBitmap.PreMultiplyAlpha_0045EE48
 0001:0005DEEC Graphics.TBitmap.UnPreMultiplyAlpha_0045EEEC
 0001:0005DFAC Graphics.TBitmap.SetAlphaFormat_0045EFAC
 0001:0005E008 Graphics.TBitmap.GetTransparentColor_0045F008
 0001:0005E050 Graphics.TBitmap.GetWidth_0045F050
 0001:0005E058 Graphics.TBitmap.DIBNeeded_0045F058
 0001:0005E0CC Graphics.TBitmap.FreeContext_0045F0CC
 0001:0005E0DC Graphics.TBitmap.HandleNeeded_0045F0DC
 0001:0005E17C Graphics.TBitmap.Mask_0045F17C
 0001:0005E260 Graphics.TBitmap.MaskHandleNeeded_0045F260
 0001:0005E2C0 Graphics.TBitmap.PaletteNeeded_0045F2C0
 0001:0005E378 Graphics.TBitmap.LoadFromClipboardFormat_0045F378
 0001:0005E3FC Graphics.TBitmap.LoadFromStream_0045F3FC
 0001:0005E420 Graphics.TBitmap.NewImage_0045F420
 0001:0005E520 Graphics.TBitmap.ReadData_0045F520
 0001:0005E548 Graphics.TBitmap.ReadDIB_0045F548
 0001:0005EAD8 Graphics.TBitmap.ReadStream_0045FAD8
 0001:0005EB48 Graphics.TBitmap.SetHandle_0045FB48
 0001:0005EC0C Graphics.TBitmap.SetHandleType_0045FC0C
 0001:0005ED48 Graphics.TBitmap.SetHeight_0045FD48
 0001:0005ED58 Graphics.TBitmap.SetMaskHandle_0045FD58
 0001:0005ED6C Graphics.TBitmap.SetMonochrome_0045FD6C
 0001:0005EDE8 Graphics.TBitmap.SetPalette_0045FDE8
 0001:0005EEBC Graphics.TBitmap.SetPixelFormat_0045FEBC
 0001:0005F024 Graphics.TBitmap.SetTransparentColor_00460024
 0001:0005F074 Graphics.TBitmap.SetTransparentMode_00460074
 0001:0005F0A0 Graphics.TBitmap.SetWidth_004600A0
 0001:0005F0B0 Graphics.TBitmap.WriteData_004600B0
 0001:0005F0B8 Graphics.TBitmap.WriteStream_004600B8
 0001:0005F394 Graphics.TBitmap.ReleaseHandle_00460394
 0001:0005F3C8 Graphics.TBitmap.ReleasePalette_004603C8
 0001:0005F3EC Graphics.TBitmap.SaveToStream_004603EC
 0001:0005F3F4 Graphics.TBitmap.SaveToClipboardFormat_004603F4
 0001:0005F494 Graphics.TBitmap.SetSize_00460494
 0001:0005F4F4 Graphics.TBitmap.TransparentColorStored_004604F4
 0001:0005F4FC Graphics.TIconImage.Destroy_004604FC
 0001:0005F52C Graphics.TIconImage.FreeHandle_0046052C
 0001:0005F544 Graphics.HasAlpha_00460544
 0001:0005F57C Graphics.TIcon.AssignTo_0046057C
 0001:0005F844 Graphics.TIcon.Create_00460844
 0001:0005F898 Graphics.TIcon.Destroy_00460898
 0001:0005F8C8 Graphics.TIcon.Assign_004608C8
 0001:0005F924 Graphics.TIcon.Draw_00460924
 0001:0005F968 Graphics.TIcon.GetEmpty_00460968
 0001:0005F980 Graphics.TIcon.GetHandle_00460980
 0001:0005F994 Graphics.TIcon.GetHeight_00460994
 0001:0005F9C0 Graphics.TIcon.GetWidth_004609C0
 0001:0005F9EC Graphics.TIcon.HandleNeeded_004609EC
 0001:0005FA64 Graphics.TIcon.ImageNeeded_00460A64
 0001:0005FB18 Graphics.TIcon.LoadFromStream_00460B18
 0001:0005FBD0 Graphics.TIcon.NewImage_00460BD0
 0001:0005FC44 Graphics.TIcon.SetHandle_00460C44
 0001:0005FCD8 Graphics.TIcon.SetHeight_00460CD8
 0001:0005FCF0 Graphics.TIcon.SetSize_00460CF0
 0001:0005FD10 Graphics.TIcon.SetTransparent_00460D10
 0001:0005FD14 Graphics.TIcon.SetWidth_00460D14
 0001:0005FD2C Graphics.TIcon.SaveToStream_00460D2C
 0001:0005FD54 Graphics.TIcon.LoadFromClipboardFormat_00460D54
 0001:0005FD68 Graphics.TIcon.SaveToClipboardFormat_00460D68
 0001:0005FD7C Graphics.TWICImage.Assign_00460D7C
 0001:0005FEFC Graphics.TWICImage.AssignTo_00460EFC
 0001:0005FF34 Graphics.TWICImage.Create_00460F34
 0001:0005FFD8 Graphics.TWICImage.Destroy_00460FD8
 0001:00060068 Graphics.TWICImage.CreateWicBitmap_00461068
 0001:000601B4 Graphics.TWICImage.Draw_004611B4
 0001:000601E0 Graphics.TWICImage.GetEmpty_004611E0
 0001:000601E8 Graphics.TWICImage.GetHandle_004611E8
 0001:000601FC Graphics.TWICImage.GetHeight_004611FC
 0001:00060200 Graphics.TWICImage.GetWidth_00461200
 0001:00060204 Graphics.WicCheck_00461204
 0001:00060260 Graphics.TWICImage.LoadFromStream_00461260
 0001:000603A0 Graphics.TWICImage.SaveToStream_004613A0
 0001:00060550 Graphics.TWICImage.LoadFromClipboardFormat_00461550
 0001:000605E0 Graphics.TWICImage.SaveToClipboardFormat_004615E0
 0001:0006060C Graphics.TWICImage.SetEncoderContainerFormat_0046160C
 0001:000606C0 Graphics.TWICImage.SetImageFormat_004616C0
 0001:000607C0 Graphics.TWICImage.SetHeight_004617C0
 0001:000607CC Graphics.TWICImage.SetWidth_004617CC
 0001:0006080C Graphics.TWICImage.RequireBitmap_0046180C
 0001:000609D8 Graphics.InitScreenLogPixels_004619D8
 0001:00060A3C Graphics.GetDefFontCharSet_00461A3C
 0001:00060A80 Graphics.InitDefFontData_00461A80
 0001:00060EE4 Graphics.TPatternManager.Create_00461EE4
 0001:00060F1C Graphics.TPatternManager.Destroy_00461F1C
 0001:00060F48 Graphics.TPatternManager.Lock_00461F48
 0001:00060F54 Graphics.TPatternManager.Unlock_00461F54
 0001:00060F60 Graphics.TPatternManager.AllocPattern_00461F60
 0001:00061014 Graphics.TPatternManager.CreateBitmap_00462014
 0001:00061120 Graphics.TPatternManager.FreePatterns_00462120
 0001:000611A0 Graphics.AllocPatternBitmap_004621A0
 0001:000611D8 Graphics.Finalization_004621D8
 0001:000619C8 _Unit20.TObjectList.Create_004629C8
 0001:00061A0C _Unit20.TObjectList.Notify_00462A0C
 0001:00061A38 _Unit20.TOrderedList.Push_00462A38
 0001:00061A48 _Unit20.TOrderedList.Create_00462A48
 0001:00061A8C _Unit20.TOrderedList.Destroy_00462A8C
 0001:00061ABC _Unit20.TOrderedList.PeekItem_00462ABC
 0001:00061AD0 _Unit20.TOrderedList.PopItem_00462AD0
 0001:00061AF0 _Unit20.TStack.PushItem_00462AF0
 0001:00061BF8 _Unit20.comctl32.InitCommonControls_00462BF8
 0001:00061C00 _Unit20.InitComCtl_00462C00
 0001:00061C80 _Unit20.InitCommonControlsEx_00462C80
 0001:00061CB4 _Unit20.comctl32.ImageList_Create_00462CB4
 0001:00061CBC _Unit20.comctl32.ImageList_Destroy_00462CBC
 0001:00061CC4 _Unit20.comctl32.ImageList_GetImageCount_00462CC4
 0001:00061CCC _Unit20.comctl32.ImageList_SetImageCount_00462CCC
 0001:00061CD4 _Unit20.comctl32.ImageList_Add_00462CD4
 0001:00061CDC _Unit20.comctl32.ImageList_SetBkColor_00462CDC
 0001:00061CE4 _Unit20.comctl32.ImageList_GetBkColor_00462CE4
 0001:00061CEC _Unit20.comctl32.ImageList_Draw_00462CEC
 0001:00061CF4 _Unit20.comctl32.ImageList_Replace_00462CF4
 0001:00061CFC _Unit20.comctl32.ImageList_DrawEx_00462CFC
 0001:00061D04 _Unit20.comctl32.ImageList_Remove_00462D04
 0001:00061D0C _Unit20.comctl32.ImageList_BeginDrag_00462D0C
 0001:00061D14 _Unit20.comctl32.ImageList_EndDrag_00462D14
 0001:00061D1C _Unit20.comctl32.ImageList_DragEnter_00462D1C
 0001:00061D24 _Unit20.comctl32.ImageList_DragLeave_00462D24
 0001:00061D2C _Unit20.comctl32.ImageList_DragMove_00462D2C
 0001:00061D34 _Unit20.comctl32.ImageList_DragShowNolock_00462D34
 0001:00061D3C _Unit20.comctl32.ImageList_GetDragImage_00462D3C
 0001:00061D44 _Unit20.comctl32.ImageList_Read_00462D44
 0001:00061D4C _Unit20.comctl32.ImageList_Write_00462D4C
 0001:00061D54 _Unit20.comctl32.ImageList_GetIconSize_00462D54
 0001:00061D5C _Unit20.comctl32.ImageList_SetIconSize_00462D5C
 0001:00061D64 _Unit20.TreeView_GetItemRect_00462D64
 0001:00061D88 _Unit20.TreeView_GetChild_00462D88
 0001:00061DA0 _Unit20.TreeView_GetNextSibling_00462DA0
 0001:00061DB8 _Unit20.TreeView_GetPrevSibling_00462DB8
 0001:00061DD0 _Unit20.TreeView_GetParent_00462DD0
 0001:00061DE8 _Unit20.TreeView_GetFirstVisible_00462DE8
 0001:00061DFC _Unit20.TreeView_GetNextVisible_00462DFC
 0001:00061E14 _Unit20.TreeView_GetPrevVisible_00462E14
 0001:00061E2C _Unit20.TreeView_GetSelection_00462E2C
 0001:00061E40 _Unit20.TreeView_GetDropHilite_00462E40
 0001:00061E54 _Unit20.TreeView_GetRoot_00462E54
 0001:00061E68 _Unit20.TreeView_SelectItem_00462E68
 0001:00061E80 _Unit20.TreeView_SelectDropTarget_00462E80
 0001:00061E98 _Unit20.TreeView_SelectSetFirstVisible_00462E98
 0001:00061EB0 _Unit20.comctl32._TrackMouseEvent_00462EB0
 0001:00061EB8 _Unit20.comctl32.FlatSB_GetScrollInfo_00462EB8
 0001:00061EC0 _Unit20.comctl32.FlatSB_GetScrollPos_00462EC0
 0001:00061EC8 _Unit20.comctl32.FlatSB_SetScrollInfo_00462EC8
 0001:00061ED0 _Unit20.comctl32.FlatSB_SetScrollPos_00462ED0
 0001:00061ED8 _Unit20.comctl32.FlatSB_SetScrollProp_00462ED8
 0001:00061EE0 _Unit20.comctl32.InitializeFlatSB_00462EE0
 0001:00061EE8 _Unit20.TaskDialogIndirect_00462EE8
 0001:00061F88 _Unit20.uxtheme.dll_00462F88
 0001:00061F98 _Unit20.$thunk_BeginBufferedAnimation_00462F98
 0001:00061FA8 _Unit20.DrawThemeTextEx_00462FA8
 0001:00061FB0 _Unit20.$thunk_BeginBufferedPaint_00462FB0
 0001:00061FC0 _Unit20.BeginBufferedPaint_00462FC0
 0001:00061FC8 _Unit20.$thunk_BeginPanningFeedback_00462FC8
 0001:00061FD8 _Unit20.EndBufferedPaint_00462FD8
 0001:00061FE0 _Unit20.$thunk_BufferedPaintClear_00462FE0
 0001:00061FF0 _Unit20.BufferedPaintSetAlpha_00462FF0
 0001:00061FF8 _Unit20.FreeThemeLibrary_00462FF8
 0001:000621B8 _Unit20.InitThemeLibrary_004631B8
 0001:00062C8C _Unit20.UseThemes_00463C8C
 0001:00062CB4 _Unit20.Finalization_00463CB4
 0001:00062CFC ActnList.user32.MonitorFromWindow_00463CFC
 0001:00062D04 ActnList.user32.MonitorFromPoint_00463D04
 0001:00062D0C ActnList.user32.GetMonitorInfoW_00463D0C
 0001:00062D14 ActnList.user32.EnumDisplayMonitors_00463D14
 0001:0006400C ActnList.TContainedAction.Destroy_0046500C
 0001:00064040 ActnList.TContainedAction.GetIndex_00465040
 0001:00064058 ActnList.TContainedAction.IsStoredCategory_00465058
 0001:0006405C ActnList.TContainedAction.GetParentComponent_0046505C
 0001:0006406C ActnList.TContainedAction.HasParent_0046506C
 0001:0006407C ActnList.TContainedAction.ReadState_0046507C
 0001:000640B0 ActnList.TContainedAction.SetIndex_004650B0
 0001:000640F8 ActnList.TContainedAction.SetCategory_004650F8
 0001:00064124 ActnList.TContainedAction.SetActionList_00465124
 0001:0006414C ActnList.TContainedAction.SetParentComponent_0046514C
 0001:00064178 ActnList.TContainedAction.Execute_00465178
 0001:000641D0 ActnList.TContainedAction.Update_004651D0
 0001:00064220 ActnList.TActionListEnumerator.GetCurrent_00465220
 0001:0006422C ActnList.TCustomActionList.Create_0046522C
 0001:00064298 ActnList.TCustomActionList.Destroy_00465298
 0001:000642F0 ActnList.TCustomActionList.GetChildren_004652F0
 0001:00064338 ActnList.TCustomActionList.SetChildOrder_00465338
 0001:00064368 ActnList.TCustomActionList.GetAction_00465368
 0001:0006437C ActnList.TCustomActionList.GetActionCount_0046537C
 0001:00064384 ActnList.TCustomActionList.SetImages_00465384
 0001:000643B8 ActnList.TCustomActionList.ImageListChange_004653B8
 0001:000643C4 ActnList.TCustomActionList.Notification_004653C4
 0001:00064414 ActnList.TCustomActionList.AddAction_00465414
 0001:00064434 ActnList.TCustomActionList.RemoveAction_00465434
 0001:0006445C ActnList.TCustomActionList.Change_0046545C
 0001:000644C4 ActnList.TCustomActionList.IsShortCut_004654C4
 0001:00064568 ActnList.TCustomActionList.ExecuteAction_00465568
 0001:00064588 ActnList.TCustomActionList.UpdateAction_00465588
 0001:000645A8 ActnList.TCustomActionList.SetState_004655A8
 0001:0006464C ActnList.TActionLink.IsCaptionLinked_0046564C
 0001:00064660 ActnList.TActionLink.IsCheckedLinked_00465660
 0001:00064674 ActnList.TActionLink.IsEnabledLinked_00465674
 0001:00064688 ActnList.TActionLink.IsGroupIndexLinked_00465688
 0001:0006469C ActnList.TActionLink.IsHelpContextLinked_0046569C
 0001:000646B0 ActnList.TActionLink.IsHelpLinked_004656B0
 0001:000646C4 ActnList.TActionLink.IsHintLinked_004656C4
 0001:000646D8 ActnList.TActionLink.IsImageIndexLinked_004656D8
 0001:000646EC ActnList.TActionLink.IsShortCutLinked_004656EC
 0001:00064700 ActnList.TActionLink.IsVisibleLinked_00465700
 0001:00064714 ActnList.sub_00465714_00465714
 0001:00064718 ActnList.sub_00465718_00465718
 0001:0006471C ActnList.sub_0046571C_0046571C
 0001:00064720 ActnList.sub_00465720_00465720
 0001:00064724 ActnList.sub_00465724_00465724
 0001:00064728 ActnList.sub_00465728_00465728
 0001:0006472C ActnList.sub_0046572C_0046572C
 0001:00064730 ActnList.sub_00465730_00465730
 0001:00064734 ActnList.sub_00465734_00465734
 0001:00064738 ActnList.sub_00465738_00465738
 0001:0006473C ActnList.sub_0046573C_0046573C
 0001:00064740 ActnList.sub_00465740_00465740
 0001:00064744 ActnList.TCustomAction.Create_00465744
 0001:00064798 ActnList.TCustomAction.Destroy_00465798
 0001:000647F0 ActnList.TCustomAction.AssignTo_004657F0
 0001:000648FC ActnList.TCustomAction.SetAutoCheck_004658FC
 0001:0006495C ActnList.TCustomAction.SetCaption_0046595C
 0001:00064AC4 ActnList.TCustomAction.SetEnabled_00465AC4
 0001:00064B40 ActnList.TCustomAction.SetGroupIndex_00465B40
 0001:00064B98 ActnList.TCustomAction.SetHelpType_00465B98
 0001:00064BF0 ActnList.TCustomAction.SetHelpKeyword_00465BF0
 0001:00064C58 ActnList.TCustomAction.SetHelpContext_00465C58
 0001:00064CB0 ActnList.TCustomAction.SetHint_00465CB0
 0001:00064D10 ActnList.TCustomAction.SetImageIndex_00465D10
 0001:00064D6C ActnList.TCustomAction.SetShortCut_00465D6C
 0001:00064DD0 ActnList.TCustomAction.SetVisible_00465DD0
 0001:00064E30 ActnList.TCustomAction.SetName_00465E30
 0001:00064E7C ActnList.TCustomAction.DoHint_00465E7C
 0001:00064EA4 ActnList.TCustomAction.Execute_00465EA4
 0001:00064F08 ActnList.TCustomAction.GetSecondaryShortCuts_00465F08
 0001:00064F30 ActnList.TCustomAction.SetSecondaryShortCuts_00465F30
 0001:00064F64 ActnList.TCustomAction.IsSecondaryShortCutsStored_00465F64
 0001:00064F88 ActnList.TCustomAction.HandleShortCut_00465F88
 0001:00064F94 ActnList.TShortCutList.Add_00465F94
 0001:00064FC0 ActnList.TShortCutList.IndexOfShortCut_00465FC0
 0001:00065004 ActnList.Finalization_00466004
 0001:0006500C _Unit22.DWMAPI.DLL_0046600C
 0001:0006501C _Unit22.$thunk_DwmAttachMilContent_0046601C
 0001:0006502C _Unit22.DwmExtendFrameIntoClientArea_0046602C
 0001:00065034 _Unit22.$thunk_DwmDefWindowProc_00466034
 0001:00065044 _Unit22.DwmIsCompositionEnabled_00466044
 0001:0006504C _Unit22.DwmCompositionEnabled_0046604C
 0001:0006E998 _Unit22.TCustomPanningWindow.GetIsPanning_0046F998
 0001:0006E9A0 _Unit22.TCustomPanningWindow.StartPanning_0046F9A0
 0001:0006E9A8 _Unit22.TCustomPanningWindow.StopPanning_0046F9A8
 0001:0006FB54 _Unit22.MouseOriginToShiftState_00470B54
 0001:0006FB90 _Unit22.ChangeBiDiModeAlignment_00470B90
 0001:0006FBA4 _Unit22.InitWndProc_00470BA4
 0001:0006FCB4 _Unit22.ObjectFromHWnd_00470CB4
 0001:0006FCE8 _Unit22.FindControl_00470CE8
 0001:0006FD44 _Unit22.IsVCLControl_00470D44
 0001:0006FD74 _Unit22.SendAppMessage_00470D74
 0001:00070058 _Unit22.CursorToIdent_00471058
 0001:00070068 _Unit22.IdentToCursor_00471068
 0001:00070078 _Unit22.GetShortHint_00471078
 0001:000700C0 _Unit22.GetLongHint_004710C0
 0001:00070108 _Unit22.PerformEraseBackground_00471108
 0001:00070158 _Unit22.PerformBufferedPrintClient_00471158
 0001:0007020C _Unit22.GetCaptureControl_0047120C
 0001:00070234 _Unit22.SetCaptureControl_00471234
 0001:00070404 _Unit22.TSiteList.Find_00471404
 0001:0007043C _Unit22.GetTopParent_0047143C
 0001:00070468 _Unit22.TSiteList.AddSite_00471468
 0001:000704EC _Unit22.TSiteList.Clear_004714EC
 0001:00070520 _Unit22.TSiteList.GetTopSite_00471520
 0001:00070584 _Unit22.TDragObject.Assign_00471584
 0001:000705C4 _Unit22.TDragObject.Capture_004715C4
 0001:000705DC _Unit22.sub_004715DC_004715DC
 0001:000705E4 _Unit22.TDragObject.GetName_004715E4
 0001:000705F8 _Unit22.TDragObject.ReleaseCapture_004715F8
 0001:0007060C _Unit22.TDragObject.WndProc_0047160C
 0001:0007073C _Unit22.sub_0047173C_0047173C
 0001:00070740 _Unit22.TDragObject.GetDragCursor_00471740
 0001:00070758 _Unit22.TDragObject.HideDragImage_00471758
 0001:0007075C _Unit22.TDragObject.Instance_0047175C
 0001:00070764 _Unit22.TDragObject.ShowDragImage_00471764
 0001:00070768 _Unit22.TDragObject.MainWndProc_00471768
 0001:000707B4 _Unit22.TDragObject.BeforeDestruction_004717B4
 0001:000707C4 _Unit22.TDragObject.AfterConstruction_004717C4
 0001:000707D4 _Unit22.TBaseDragControlObject.Create_004717D4
 0001:00070810 _Unit22.TBaseDragControlObject.Assign_00471810
 0001:0007083C _Unit22.TBaseDragControlObject.EndDrag_0047183C
 0001:00070868 _Unit22.TBaseDragControlObject.Finished_00471868
 0001:0007089C _Unit22.TDragControlObject.GetDragCursor_0047189C
 0001:000708B4 _Unit22.TDragControlObject.GetDragImages_004718B4
 0001:000708C0 _Unit22.TDragControlObject.HideDragImage_004718C0
 0001:000708E4 _Unit22.TDragControlObject.ShowDragImage_004718E4
 0001:00070908 _Unit22.TDragControlObjectEx.BeforeDestruction_00471908
 0001:0007090C _Unit22.TDragDockObject.Create_0047190C
 0001:00070974 _Unit22.TDragDockObject.Destroy_00471974
 0001:000709A4 _Unit22.TDragDockObject.Assign_004719A4
 0001:00070A04 _Unit22.TDragDockObject.SetBrush_00471A04
 0001:00070A10 _Unit22.TDragDockObject.EndDrag_00471A10
 0001:00070A2C _Unit22.AbsMin_00471A2C
 0001:00070A50 _Unit22.TDragDockObject.AdjustDockRect_00471A50
 0001:00070ACC _Unit22.TDragDockObject.DrawDragDockImage_00471ACC
 0001:00070AE0 _Unit22.TDragDockObject.EraseDragDockImage_00471AE0
 0001:00070AF4 _Unit22.TDragDockObject.GetDragCursor_00471AF4
 0001:00070B00 _Unit22.sub_00471B00_00471B00
 0001:00070B04 _Unit22.sub_00471B04_00471B04
 0001:00070B0C _Unit22.TDragDockObjectEx.BeforeDestruction_00471B0C
 0001:00070B10 _Unit22.IsBeforeTargetWindow_00471B10
 0001:00070B70 _Unit22.ValidDockTarget_00471B70
 0001:00070D0C _Unit22.IsSiteChildOfClient_00471D0C
 0001:00070D50 _Unit22.GetDockSiteAtPos_00471D50
 0001:00070E9C _Unit22.RegisterDockSite_00471E9C
 0001:00070EF8 _Unit22.DragMessage_00471EF8
 0001:00070F50 _Unit22.IsDelphiHandle_00471F50
 0001:00070FB0 _Unit22.DragFindWindow_00471FB0
 0001:00070FDC _Unit22.DragFindTarget_00471FDC
 0001:0007102C _Unit22.DoDragOver_0047202C
 0001:00071068 _Unit22.GetDropCtl_00472068
 0001:00071108 _Unit22.DragTo_00472108
 0001:000713F0 _Unit22.DragInit_004723F0
 0001:00071560 _Unit22.DragInitControl_00472560
 0001:00071718 _Unit22.CheckUndock_00472718
 0001:0007178C _Unit22.DragDone_0047278C
 0001:00071AB0 _Unit22.CancelDrag_00472AB0
 0001:00071AC8 _Unit22.FindVCLWindow_00472AC8
 0001:00071AFC _Unit22.FindDragTarget_00472AFC
 0001:00071B48 _Unit22.ListAdd_00472B48
 0001:00071B70 _Unit22.ListRemove_00472B70
 0001:00071BC0 _Unit22.MoveWindowOrg_00472BC0
 0001:00071BF0 _Unit22.FreeDeviceContext_00472BF0
 0001:00071CB0 _Unit22.FreeDeviceContexts_00472CB0
 0001:00071D5C _Unit22.TControlCanvas.Destroy_00472D5C
 0001:00071D88 _Unit22.TControlCanvas.CreateHandle_00472D88
 0001:00071E5C _Unit22.TControlCanvas.FreeHandle_00472E5C
 0001:00071E90 _Unit22.TControlCanvas.SetControl_00472E90
 0001:00071EA8 _Unit22.TControlCanvas.UpdateTextFlags_00472EA8
 0001:00071ED4 _Unit22.TSizeConstraints.Create_00472ED4
 0001:00071F10 _Unit22.TSizeConstraints.AssignTo_00472F10
 0001:00071F58 _Unit22.TSizeConstraints.SetConstraints_00472F58
 0001:00071FE4 _Unit22.TMargins.Change_00472FE4
 0001:00071FF8 _Unit22.TControlActionLink.AssignClient_00472FF8
 0001:00072014 _Unit22.TControlActionLink.DoShowHint_00473014
 0001:00072110 _Unit22.TControlActionLink.IsCaptionLinked_00473110
 0001:00072178 _Unit22.TControlActionLink.IsDropdownMenuLinked_00473178
 0001:0007218C _Unit22.TControlActionLink.IsEnabledLinked_0047318C
 0001:000721B4 _Unit22.TControlActionLink.IsEnableDropdownLinked_004731B4
 0001:000721C8 _Unit22.TControlActionLink.IsHintLinked_004731C8
 0001:000721F4 _Unit22.TControlActionLink.IsPopupMenuLinked_004731F4
 0001:00072224 _Unit22.TControlActionLink.IsVisibleLinked_00473224
 0001:0007224C _Unit22.TControlActionLink.IsOnExecuteLinked_0047324C
 0001:00072274 _Unit22.TControlActionLink.SetCaption_00473274
 0001:00072294 _Unit22.sub_00473294_00473294
 0001:00072298 _Unit22.TControlActionLink.SetEnabled_00473298
 0001:000722B8 _Unit22.sub_004732B8_004732B8
 0001:000722BC _Unit22.TControlActionLink.SetHint_004732BC
 0001:000722E0 _Unit22.TControlActionLink.SetVisible_004732E0
 0001:00072300 _Unit22.TControlActionLink.SetOnExecute_00473300
 0001:0007232C _Unit22.TControlActionLink.IsHelpLinked_0047332C
 0001:0007237C _Unit22.TControlActionLink.SetHelpContext_0047337C
 0001:0007239C _Unit22.TControlActionLink.SetHelpKeyword_0047339C
 0001:000723BC _Unit22.TControlActionLink.SetHelpType_004733BC
 0001:000723DC _Unit22.TControlActionLink.SetPopupMenu_004733DC
 0001:00072400 _Unit22.TControl.Create_00473400
 0001:00072548 _Unit22.TControl.Destroy_00473548
 0001:00072644 _Unit22.sub_00473644_00473644
 0001:00072648 _Unit22.TGroupBox.GetEnabled_00473648
 0001:00072650 _Unit22.TControl.sub_00473650_00473650
 0001:00072654 _Unit22.TControl.HasParent_00473654
 0001:0007265C _Unit22.TControl.GetParentComponent_0047365C
 0001:00072660 _Unit22.TControl.SetParentComponent_00473660
 0001:00072688 _Unit22.TControl.PaletteChanged_00473688
 0001:00072704 _Unit22.TControl.GetAction_00473704
 0001:00072714 _Unit22.TControl.SetAnchors_00473714
 0001:000727B4 _Unit22.TControl.SetAction_004737B4
 0001:00072830 _Unit22.TControl.IsAnchorsStored_00473830
 0001:00072848 _Unit22.TControl.IsTouchPropertyStored_00473848
 0001:000728A8 _Unit22.TControl.SetDesignVisible_004738A8
 0001:000728E0 _Unit22.TControl.SetDragMode_004738E0
 0001:000728E4 _Unit22.TControl.RequestAlign_004738E4
 0001:000728F4 _Unit22.TControl.GetDragMode_004738F4
 0001:000728FC _Unit22.TControl.Resize_004738FC
 0001:0007291C _Unit22.TControl.ReadState_0047391C
 0001:000729CC _Unit22.TControl.Notification_004739CC
 0001:00072A48 _Unit22.TControl.SetAlign_00473A48
 0001:00072B30 _Unit22.TControl.SetBounds_00473B30
 0001:00072BD0 _Unit22.TControl.SetTextBuf_00473BD0
 0001:00072BF4 _Unit22.TControl.UpdateAnchorRules_00473BF4
 0001:00072D78 _Unit22.TControl.SetLeft_00473D78
 0001:00072DAC _Unit22.TControl.SetTop_00473DAC
 0001:00072DE0 _Unit22.TControl.SetWidth_00473DE0
 0001:00072E14 _Unit22.TControl.SetHeight_00473E14
 0001:00072E48 _Unit22.TControl.Dock_00473E48
 0001:00072F78 _Unit22.TControl.DoDock_00473F78
 0001:00072FD0 _Unit22.TControl.SetHelpKeyword_00473FD0
 0001:00072FE4 _Unit22.TControl.SetHelpContext_00473FE4
 0001:00073008 _Unit22.TControl.SetHostDockSite_00474008
 0001:00073030 _Unit22.TControl.GetBoundsRect_00474030
 0001:00073050 _Unit22.TControl.SetBoundsRect_00474050
 0001:00073074 _Unit22.TControl.GetClientRect_00474074
 0001:0007308C _Unit22.TControl.GetClientWidth_0047408C
 0001:000730A4 _Unit22.TControl.SetClientWidth_004740A4
 0001:000730CC _Unit22.TControl.GetClientHeight_004740CC
 0001:000730E4 _Unit22.TControl.SetClientHeight_004740E4
 0001:0007310C _Unit22.TControl.GetClientOrigin_0047410C
 0001:0007319C _Unit22.TControl.ClientToScreen_0047419C
 0001:000731C8 _Unit22.TControl.ScaleConstraints_004741C8
 0001:0007324C _Unit22.TControl.ScaleMargins_0047424C
 0001:000732D0 _Unit22.TControl.ScreenToClient_004742D0
 0001:000732FC _Unit22.TControl.SendCancelMode_004742FC
 0001:0007332C _Unit22.TControl.SendDockNotification_0047432C
 0001:00073398 _Unit22.TControl.Changed_00474398
 0001:000733A8 _Unit22.TControl.ChangeScale_004743A8
 0001:00073570 _Unit22.TControl.SetAutoSize_00474570
 0001:00073588 _Unit22.TControl.SetName_00474588
 0001:0007362C _Unit22.TControl.SetClientSize_0047462C
 0001:00073674 _Unit22.TControl.SetParent_00474674
 0001:000736C0 _Unit22.TControl.SetVisible_004746C0
 0001:000736F8 _Unit22.TControl.SetEnabled_004746F8
 0001:00073710 _Unit22.TControl.GetTextLen_00474710
 0001:00073720 _Unit22.TControl.GetTextBuf_00474720
 0001:0007372C _Unit22.TControl.GetUndockHeight_0047472C
 0001:00073740 _Unit22.TControl.GetUndockWidth_00474740
 0001:00073754 _Unit22.TControl.GetTBDockHeight_00474754
 0001:00073768 _Unit22.TControl.GetLRDockWidth_00474768
 0001:0007377C _Unit22.TControl.SetPopupMenu_0047477C
 0001:000737A0 _Unit22.TControl.GetText_004747A0
 0001:000737D8 _Unit22.TControl.SetText_004747D8
 0001:0007383C _Unit22.TControl.SetBiDiMode_0047483C
 0001:00073858 _Unit22.TControl.FontChanged_00474858
 0001:0007389C _Unit22.TControl.SetFont_0047489C
 0001:000738AC _Unit22.TControl.IsFontStored_004748AC
 0001:000738C0 _Unit22.TControl.IsShowHintStored_004748C0
 0001:000738CC _Unit22.TGroupBox.IsStoredBiDiMode_004748CC
 0001:000738D4 _Unit22.TControl.SetParentFont_004748D4
 0001:000738F8 _Unit22.TControl.SetShowHint_004748F8
 0001:0007391C _Unit22.TControl.SetParentShowHint_0047491C
 0001:00073948 _Unit22.TControl.SetParentCustomHint_00474948
 0001:00073958 _Unit22.TControl.SetColor_00474958
 0001:000739A4 _Unit22.TGroupBox.IsStoredColor_004749A4
 0001:000739AC _Unit22.TControl.SetParentColor_004749AC
 0001:000739D0 _Unit22.TControl.SetParentBiDiMode_004749D0
 0001:000739F4 _Unit22.TControl.SetCursor_004749F4
 0001:00073A10 _Unit22.TControl.GetMouseCapture_00474A10
 0001:00073A20 _Unit22.TControl.SetMouseCapture_00474A20
 0001:00073A48 _Unit22.TControl.BringToFront_00474A48
 0001:00073A58 _Unit22.TControl.SetZOrderPosition_00474A58
 0001:00073AE4 _Unit22.TControl.SetZOrder_00474AE4
 0001:00073B08 _Unit22.TControl.SetCustomHint_00474B08
 0001:00073B40 _Unit22.TControl.GetDeviceContext_00474B40
 0001:00073BE8 _Unit22.BackgroundClipped_00474BE8
 0001:00073C70 _Unit22.TControl.InvalidateControl_00474C70
 0001:00073D04 _Unit22.TControl.Invalidate_00474D04
 0001:00073D18 _Unit22.TControl.MouseActivate_00474D18
 0001:00073D60 _Unit22.TControl.MouseWheelHandler_00474D60
 0001:00073DCC _Unit22.TControl.Update_00474DCC
 0001:00073DE0 _Unit22.TControl.Refresh_00474DE0
 0001:00073DEC _Unit22.TControl.Repaint_00474DEC
 0001:00073EE8 _Unit22.TControl.GetControlsAlignment_00474EE8
 0001:00073EEC _Unit22.TControl.UseRightToLeftReading_00474EEC
 0001:00073F04 _Unit22.TControl.UseRightToLeftAlignment_00474F04
 0001:00073F1C _Unit22.TControl.UseRightToLeftScrollBar_00474F1C
 0001:00073F38 _Unit22.TControl.BeginAutoDrag_00474F38
 0001:00073F54 _Unit22.TControl.BeginDrag_00474F54
 0001:00074034 _Unit22.TControl.sub_00475034_00475034
 0001:00074038 _Unit22.TControl.Dragging_00475038
 0001:00074044 _Unit22.TControl.DragOver_00475044
 0001:00074080 _Unit22.TControl.DragDrop_00475080
 0001:000740AC _Unit22.TControl.DoStartDrag_004750AC
 0001:000740CC _Unit22.sub_004750CC_004750CC
 0001:000740D0 _Unit22.TControl.DoGetGestureOptions_004750D0
 0001:000740EC _Unit22.TControl.DoEndDrag_004750EC
 0001:00074118 _Unit22.TControl.PositionDockRect_00475118
 0001:000741EC _Unit22.TControl.DockTrackNoTarget_004751EC
 0001:00074204 _Unit22.TControl.DoEndDock_00475204
 0001:00074230 _Unit22.TControl.DoStartDock_00475230
 0001:00074260 _Unit22.TControl.DoMouseActivate_00475260
 0001:00074294 _Unit22.TControl.DoMouseWheel_00475294
 0001:00074368 _Unit22.TControl.DoMouseWheelDown_00475368
 0001:000743B4 _Unit22.TControl.DoMouseWheelUp_004753B4
 0001:00074400 _Unit22.TControl.DefaultDockImage_00475400
 0001:0007452C _Unit22.TControl.DrawDragDockImage_0047552C
 0001:0007453C _Unit22.TControl.EraseDragDockImage_0047553C
 0001:0007454C _Unit22.TControl.DoDragMsg_0047554C
 0001:0007463C _Unit22.TControl.ManualDock_0047563C
 0001:00074850 _Unit22.TControl.ManualFloat_00475850
 0001:000748F0 _Unit22.TControl.DoConstraintsChange_004758F0
 0001:000748FC _Unit22.sub_004758FC_004758FC
 0001:00074900 _Unit22.TControl.CanResize_00475900
 0001:00074930 _Unit22.TControl.DoCanAutoSize_00475930
 0001:0007499C _Unit22.TControl.DoCanResize_0047599C
 0001:000749CC _Unit22.TControl.ConstrainedResize_004759CC
 0001:000749FC _Unit22.TControl.CalcCursorPos_004759FC
 0001:00074A28 _Unit22.TControl.DesignWndProc_00475A28
 0001:00074A5C _Unit22.TControl.DoConstrainedResize_00475A5C
 0001:00074B30 _Unit22.TControl.Perform_00475B30
 0001:00074B64 _Unit22.TControl.Perform_00475B64
 0001:00074BA0 _Unit22.TControl.CalcDockSizes_00475BA0
 0001:00074C14 _Unit22.TControl.UpdateBoundsRect_00475C14
 0001:00074C44 _Unit22.TControl.sub_00475C44_00475C44
 0001:00074C48 _Unit22.TControl.WndProc_00475C48
 0001:00074F30 _Unit22.TControl.DefaultHandler_00475F30
 0001:00074FC4 _Unit22.TControl.ReadIsControl_00475FC4
 0001:00074FD8 _Unit22.TControl.WriteIsControl_00475FD8
 0001:00074FE4 _Unit22.DoWriteIsControl_00475FE4
 0001:00075018 _Unit22.DoWriteExplicit_00476018
 0001:00075238 _Unit22.TControl.DefineProperties_00476238
 0001:00075418 _Unit22.TControl.Click_00476418
 0001:00075490 _Unit22.TControl.DblClick_00476490
 0001:000754B0 _Unit22.TControl.MouseDown_004764B0
 0001:000754E8 _Unit22.TControl.DoMouseDown_004764E8
 0001:00075584 _Unit22.TControl.WMLButtonDown_00476584
 0001:000755D0 _Unit22.TControl.WMNCLButtonDown_004765D0
 0001:000755EC _Unit22.TControl.WMLButtonDblClk_004765EC
 0001:00075640 _Unit22.TControl.sub_00476640_00476640
 0001:00075644 _Unit22.TControl.CheckNewSize_00476644
 0001:000756E0 _Unit22.TControl.WMRButtonDown_004766E0
 0001:0007570C _Unit22.TControl.WMRButtonDblClk_0047670C
 0001:00075738 _Unit22.TControl.WMMButtonDown_00476738
 0001:00075764 _Unit22.TControl.WMMButtonDblClk_00476764
 0001:00075790 _Unit22.TControl.MouseMove_00476790
 0001:000757C4 _Unit22.TControl.WMMouseMove_004767C4
 0001:0007584C _Unit22.TControl.MouseUp_0047684C
 0001:00075884 _Unit22.TControl.DoMouseUp_00476884
 0001:000758C8 _Unit22.TControl.WMLButtonUp_004768C8
 0001:00075944 _Unit22.TControl.WMRButtonUp_00476944
 0001:00075964 _Unit22.TControl.WMMButtonUp_00476964
 0001:00075984 _Unit22.TControl.WMMouseWheel_00476984
 0001:000759DC _Unit22.TControl.WMCancelMode_004769DC
 0001:00075A18 _Unit22.TControl.WMWindowPosChanged_00476A18
 0001:00075AC8 _Unit22.TControl.CMVisibleChanged_00476AC8
 0001:00075AF0 _Unit22.TControl.CMColorChanged_00476AF0
 0001:00075AFC _Unit22.TControl.CMEnabledChanged_00476AFC
 0001:00075B08 _Unit22.TControl.CMFontChanged_00476B08
 0001:00075B14 _Unit22.SetParentColor_00476B14
 0001:00075B4C _Unit22.TControl.CMParentColorChanged_00476B4C
 0001:00075B88 _Unit22.TControl.CMParentBiDiModeChanged_00476B88
 0001:00075BAC _Unit22.TControl.CMMouseWheel_00476BAC
 0001:00075C1C _Unit22.TControl.CMGesture_00476C1C
 0001:00075C90 _Unit22.TControl.CMBiDiModeChanged_00476C90
 0001:00075CAC _Unit22.TControl.CMParentShowHintChanged_00476CAC
 0001:00075CE8 _Unit22.TControl.CMParentFontChanged_00476CE8
 0001:00075D18 _Unit22.TControl.CMSysFontChanged_00476D18
 0001:00075D3C _Unit22.TControl.CMHitTest_00476D3C
 0001:00075D44 _Unit22.TControl.CMMouseEnter_00476D44
 0001:00075DA8 _Unit22.TControl.CMMouseLeave_00476DA8
 0001:00075E0C _Unit22.TControl.CMDesignHitTest_00476E0C
 0001:00075E14 _Unit22.TControl.CMParentTabletOptionsChanged_00476E14
 0001:00075E48 _Unit22.TControl.CreateFloatingDockSite_00476E48
 0001:00075EC8 _Unit22.TControl.CreateTouchManager_00476EC8
 0001:00075EE4 _Unit22.UpdateFloatingDockSitePos_00476EE4
 0001:00075F6C _Unit22.TControl.CMFloat_00476F6C
 0001:00075FCC _Unit22.TControl.ActionChange_00476FCC
 0001:000760CC _Unit22.TControl.DoActionChange_004770CC
 0001:000760F0 _Unit22.TControl.sub_004770F0_004770F0
 0001:000760F8 _Unit22.TControl.IsCaptionStored_004770F8
 0001:00076118 _Unit22.TControl.IsEnabledStored_00477118
 0001:00076138 _Unit22.TControl.IsHintStored_00477138
 0001:00076158 _Unit22.TControl.IsHelpContextStored_00477158
 0001:00076178 _Unit22.TControl.IsVisibleStored_00477178
 0001:00076198 _Unit22.TControl.IsOnClickStored_00477198
 0001:000761B8 _Unit22.TControl.Loaded_004771B8
 0001:000761F0 _Unit22.TControl.AssignTo_004771F0
 0001:0007629C _Unit22.MinVar_0047729C
 0001:000762D8 _Unit22.TControl.GetDockEdge_004772D8
 0001:00076388 _Unit22.TControl.GetFloating_00477388
 0001:000763B4 _Unit22.sub_004773B4_004773B4
 0001:000763BC _Unit22.TControl.AdjustSize_004773BC
 0001:000763DC _Unit22.TControl.DrawTextBiDiModeFlags_004773DC
 0001:0007641C _Unit22.TControl.DrawTextBiDiModeFlagsReadingOnly_0047741C
 0001:00076438 _Unit22.TControl.InitiateAction_00477438
 0001:00076448 _Unit22.TControl.CMHintShow_00477448
 0001:00076478 _Unit22.TControl.WMContextMenu_00477478
 0001:000765B8 _Unit22.TControl.DoContextPopup_004775B8
 0001:000765EC _Unit22.TControl.SetConstraints_004775EC
 0001:000765F8 _Unit22.TControl.ClientToParent_004775F8
 0001:00076708 _Unit22.TControl.CMMouseActivate_00477708
 0001:0007672C _Unit22.TControl.DoMarginChange_0047772C
 0001:00076738 _Unit22.TControl.SetMargins_00477738
 0001:00076744 _Unit22.TControl.SetTouchManager_00477744
 0001:00076750 _Unit22.TControl.GetAlignWithMargins_00477750
 0001:00076758 _Unit22.TControl.SetAlignWithMargins_00477758
 0001:00076784 _Unit22.TControl.UpdateExplicitBounds_00477784
 0001:000767B8 _Unit22.TControl.WriteExplicitTop_004777B8
 0001:000767C8 _Unit22.TControl.WriteExplicitHeight_004777C8
 0001:000767D8 _Unit22.TControl.WriteExplicitLeft_004777D8
 0001:000767E8 _Unit22.TControl.ReadExplicitWidth_004777E8
 0001:00076800 _Unit22.TControl.WriteExplicitWidth_00477800
 0001:00076810 _Unit22.TControl.ReadExplicitTop_00477810
 0001:00076828 _Unit22.TControl.ReadExplicitHeight_00477828
 0001:00076840 _Unit22.TControl.ReadExplicitLeft_00477840
 0001:00076858 _Unit22.TWinControlActionLink.AssignClient_00477858
 0001:0007687C _Unit22.TWinControlActionLink.IsHelpContextLinked_0047787C
 0001:00076884 _Unit22.TWinControlActionLink.SetHelpKeyword_00477884
 0001:0007688C _Unit22.TWinControl.Create_0047788C
 0001:000769E8 _Unit22.TWinControl.GetAlignDisabled_004779E8
 0001:000769F4 _Unit22.TWinControl.Destroy_004779F4
 0001:00076B08 _Unit22.TWinControl.FixupTabList_00477B08
 0001:00076BDC _Unit22.TWinControl.ReadState_00477BDC
 0001:00076C54 _Unit22.TWinControl.AdjustClientRect_00477C54
 0001:00076C84 _Unit22.TWinControl.ArrangeControl_00477C84
 0001:000770AC _Unit22.GetClientSize_004780AC
 0001:00077114 _Unit22.InsertBefore_00478114
 0001:00077244 _Unit22.DoPosition_00478244
 0001:0007728C _Unit22.DoAlign_0047828C
 0001:00077418 _Unit22.AlignWork_00478418
 0001:0007746C _Unit22.AlignNestedControls_0047846C
 0001:000776E4 _Unit22.DoAdjustSize_004786E4
 0001:000777B0 _Unit22.TWinControl.AlignControls_004787B0
 0001:0007798C _Unit22.TWinControl.AlignControl_0047898C
 0001:00077A20 _Unit22.TWinControl.DisableAlign_00478A20
 0001:00077A28 _Unit22.TWinControl.EnableAlign_00478A28
 0001:00077A48 _Unit22.TWinControl.Realign_00478A48
 0001:00077A50 _Unit22.TWinControl.DoFlipChildren_00478A50
 0001:00077B24 _Unit22.TWinControl.FlipChildren_00478B24
 0001:00077C6C _Unit22.TWinControl.ContainsControl_00478C6C
 0001:00077C80 _Unit22.TWinControl.RemoveFocus_00478C80
 0001:00077CA0 _Unit22.TWinControl.Insert_00478CA0
 0001:00077CEC _Unit22.TWinControl.Remove_00478CEC
 0001:00077D34 _Unit22.TWinControl.InsertControl_00478D34
 0001:00077E54 _Unit22.TWinControl.RemoveControl_00478E54
 0001:00077EF4 _Unit22.TWinControl.GetControl_00478EF4
 0001:00077F30 _Unit22.TWinControl.GetControlCount_00478F30
 0001:00077F50 _Unit22.TWinControl.Broadcast_00478F50
 0001:00077F90 _Unit22.TWinControl.Notification_00478F90
 0001:00077FC0 _Unit22.TWinControl.NotifyControls_00478FC0
 0001:00077FE8 _Unit22.TWinControl.CreateSubClass_00478FE8
 0001:00078054 _Unit22.TWinControl.AddBiDiModeExStyle_00479054
 0001:000780BC _Unit22.TWinControl.CreateParams_004790BC
 0001:000781D0 _Unit22.TWinControl.CreateWnd_004791D0
 0001:000783D8 _Unit22.TWinControl.CreateWindowHandle_004793D8
 0001:00078418 _Unit22.TWinControl.ReadDesignSize_00479418
 0001:00078454 _Unit22.TWinControl.WriteDesignSize_00479454
 0001:000784AC _Unit22.PointsEqual_004794AC
 0001:000784C0 _Unit22.DoWriteDesignSize_004794C0
 0001:000785A0 _Unit22.TWinControl.DefineProperties_004795A0
 0001:0007860C _Unit22.TWinControl.DestroyWnd_0047960C
 0001:00078674 _Unit22.TWinControl.DestroyWindowHandle_00479674
 0001:000786F0 _Unit22.TWinControl.PrecedingWindow_004796F0
 0001:00078738 _Unit22.TWinControl.CreateHandle_00479738
 0001:000787D0 _Unit22.TWinControl.CustomAlignInsertBefore_004797D0
 0001:000787F4 _Unit22.TWinControl.CustomAlignPosition_004797F4
 0001:00078844 _Unit22.DestroyChildWindow_00479844
 0001:00078888 _Unit22.TWinControl.DestroyHandle_00479888
 0001:000788FC _Unit22.TWinControl.RecreateWnd_004798FC
 0001:00078914 _Unit22.TWinControl.CMRecreateWnd_00479914
 0001:00078B00 _Unit22.TWinControl.UpdateControlState_00479B00
 0001:00078BC8 _Unit22.TWinControl.SetParentDoubleBuffered_00479BC8
 0001:00078BF4 _Unit22.TWinControl.SetParentWindow_00479BF4
 0001:00078CD8 _Unit22.TWinControl.MainWndProc_00479CD8
 0001:00078D50 _Unit22.GetControlAtPos_00479D50
 0001:00078EE4 _Unit22.TWinControl.IsControlMouseMsg_00479EE4
 0001:00078FA4 _Unit22.TWinControl.IsControlActivateMsg_00479FA4
 0001:000790FC _Unit22.TWinControl.WndProc_0047A0FC
 0001:0007968C _Unit22.TWinControl.DefaultHandler_0047A68C
 0001:00079794 _Unit22.DoControlMsg_0047A794
 0001:000797C8 _Unit22.TWinControl.PaintHandler_0047A7C8
 0001:00079938 _Unit22.TWinControl.PaintWindow_0047A938
 0001:00079970 _Unit22.TWinControl.PaintControls_0047A970
 0001:00079C50 _Unit22.DrawThemeEdge_0047AC50
 0001:0007A1A8 _Unit22.TWinControl.WMCharToItem_0047B1A8
 0001:0007A1C8 _Unit22.TWinControl.WMNotify_0047B1C8
 0001:0007A1EC _Unit22.TWinControl.WMSysColorChange_0047B1EC
 0001:0007A208 _Unit22.TWinControl.WMWinIniChange_0047B208
 0001:0007A21C _Unit22.TWinControl.WMFontChange_0047B21C
 0001:0007A22C _Unit22.TWinControl.WMTimeChange_0047B22C
 0001:0007A23C _Unit22.TWinControl.WMCommand_0047B23C
 0001:0007A25C _Unit22.TWinControl.WMHScroll_0047B25C
 0001:0007A27C _Unit22.TWinControl.WMCompareItem_0047B27C
 0001:0007A2A0 _Unit22.TWinControl.WMDeleteItem_0047B2A0
 0001:0007A2C4 _Unit22.TWinControl.WMDrawItem_0047B2C4
 0001:0007A2E8 _Unit22.TWinControl.WMMeasureItem_0047B2E8
 0001:0007A308 _Unit22.TWinControl.WMMouseActivate_0047B308
 0001:0007A33C _Unit22.TWinControl.WMEraseBkgnd_0047B33C
 0001:0007A3DC _Unit22.TWinControl.WMWindowPosChanged_0047B3DC
 0001:0007A494 _Unit22.TWinControl.WMWindowPosChanging_0047B494
 0001:0007A4E8 _Unit22.TWinControl.WMSize_0047B4E8
 0001:0007A564 _Unit22.TWinControl.WMMove_0047B564
 0001:0007A580 _Unit22.TWinControl.WMSetCursor_0047B580
 0001:0007A688 _Unit22.TWinControl.WMSetFocus_0047B688
 0001:0007A6A4 _Unit22.TWinControl.WMKillFocus_0047B6A4
 0001:0007A6C0 _Unit22.TWinControl.WMIMEStartComp_0047B6C0
 0001:0007A6D4 _Unit22.TWinControl.WMInputLangChange_0047B6D4
 0001:0007A72C _Unit22.TWinControl.WMIMEEndComp_0047B72C
 0001:0007A740 _Unit22.TWinControl.RequestAlign_0047B740
 0001:0007A7C8 _Unit22.TWinControl.SetIme_0047B7C8
 0001:0007A8B8 _Unit22.TWinControl.ResetIme_0047B8B8
 0001:0007A950 _Unit22.TWinControl.DoAddDockClient_0047B950
 0001:0007A958 _Unit22.TWinControl.DoRemoveDockClient_0047B958
 0001:0007A95C _Unit22.TWinControl.DoEnter_0047B95C
 0001:0007A97C _Unit22.TWinControl.DoExit_0047B97C
 0001:0007A99C _Unit22.TWinControl.DockDrop_0047B99C
 0001:0007A9F4 _Unit22.TWinControl.DoDockOver_0047B9F4
 0001:0007AA28 _Unit22.TWinControl.DockOver_0047BA28
 0001:0007AA68 _Unit22.TWinControl.DoUnDock_0047BA68
 0001:0007AAC4 _Unit22.TWinControl.ReloadDockedControl_0047BAC4
 0001:0007AAE8 _Unit22.TWinControl.GetDockClientCount_0047BAE8
 0001:0007AAFC _Unit22.TWinControl.GetDockClients_0047BAFC
 0001:0007AB20 _Unit22.TWinControl.GetSiteInfo_0047BB20
 0001:0007AB7C _Unit22.TWinControl.GetVisibleDockClientCount_0047BB7C
 0001:0007ABB8 _Unit22.TWinControl.sub_0047BBB8_0047BBB8
 0001:0007ABBC _Unit22.TWinControl.CreateDockManager_0047BBBC
 0001:0007AC28 _Unit22.TWinControl.SetDesignVisible_0047BC28
 0001:0007AC5C _Unit22.TWinControl.SetDockSite_0047BC5C
 0001:0007AD14 _Unit22.TWinControl.SetDoubleBuffered_0047BD14
 0001:0007AD38 _Unit22.TWinControl.CMDockClient_0047BD38
 0001:0007AE28 _Unit22.TWinControl.CMUnDockClient_0047BE28
 0001:0007AE50 _Unit22.TWinControl.CMFloat_0047BE50
 0001:0007AED0 _Unit22.TWinControl.KeyDown_0047BED0
 0001:0007AFB0 _Unit22.TWinControl.WMKeyDown_0047BFB0
 0001:0007AFDC _Unit22.TWinControl.WMSysKeyDown_0047BFDC
 0001:0007B008 _Unit22.TWinControl.KeyUp_0047C008
 0001:0007B0E8 _Unit22.TWinControl.WMKeyUp_0047C0E8
 0001:0007B108 _Unit22.TWinControl.WMSysKeyUp_0047C108
 0001:0007B128 _Unit22.TWinControl.KeyPress_0047C128
 0001:0007B1B0 _Unit22.TWinControl.WMChar_0047C1B0
 0001:0007B280 _Unit22.TWinControl.WMSysCommand_0047C280
 0001:0007B32C _Unit22.TWinControl.WMVKeyToItem_0047C32C
 0001:0007B34C _Unit22.TWinControl.WMParentNotify_0047C34C
 0001:0007B380 _Unit22.TWinControl.WMVScroll_0047C380
 0001:0007B3A0 _Unit22.TWinControl.WMDestroy_0047C3A0
 0001:0007B40C _Unit22.TWinControl.WMNCDestroy_0047C40C
 0001:0007B428 _Unit22.TWinControl.WMNCHitTest_0047C428
 0001:0007B44C _Unit22.TWinControl.PaletteChanged_0047C44C
 0001:0007B4A4 _Unit22.TWinControl.WMQueryNewPalette_0047C4A4
 0001:0007B4C8 _Unit22.TWinControl.WMPaletteChanged_0047C4C8
 0001:0007B4E8 _Unit22.TWinControl.CMShowHintChanged_0047C4E8
 0001:0007B500 _Unit22.TWinControl.CMBiDiModeChanged_0047C500
 0001:0007B538 _Unit22.TWinControl.CMDoubleBufferedChanged_0047C538
 0001:0007B55C _Unit22.TWinControl.CMEnter_0047C55C
 0001:0007B5E0 _Unit22.TWinControl.CMExit_0047C5E0
 0001:0007B5EC _Unit22.TWinControl.CMDesignHitTest_0047C5EC
 0001:0007B60C _Unit22.TWinControl.CMChanged_0047C60C
 0001:0007B620 _Unit22.TWinControl.CMChildKey_0047C620
 0001:0007B634 _Unit22.TWinControl.CMDialogKey_0047C634
 0001:0007B63C _Unit22.TWinControl.CMDialogChar_0047C63C
 0001:0007B644 _Unit22.TWinControl.CMFocusChanged_0047C644
 0001:0007B64C _Unit22.TWinControl.CMVisibleChanged_0047C64C
 0001:0007B67C _Unit22.TWinControl.CMShowingChanged_0047C67C
 0001:0007B6A4 _Unit22.TWinControl.CMEnabledChanged_0047C6A4
 0001:0007B6EC _Unit22.TWinControl.CMColorChanged_0047C6EC
 0001:0007B714 _Unit22.TWinControl.CMFontChanged_0047C714
 0001:0007B750 _Unit22.TWinControl.CMCursorChanged_0047C750
 0001:0007B790 _Unit22.TWinControl.CMBorderChanged_0047C790
 0001:0007B7D0 _Unit22.TWinControl.CMCtl3DChanged_0047C7D0
 0001:0007B810 _Unit22.TWinControl.CMParentCtl3DChanged_0047C810
 0001:0007B850 _Unit22.TWinControl.CMParentDoubleBufferedChanged_0047C850
 0001:0007B87C _Unit22.TWinControl.CMSysColorChange_0047C87C
 0001:0007B884 _Unit22.TWinControl.CMWinIniChange_0047C884
 0001:0007B88C _Unit22.TWinControl.CMFontChange_0047C88C
 0001:0007B894 _Unit22.TWinControl.CMTabletOptionsChanged_0047C894
 0001:0007B8B0 _Unit22.TWinControl.CMTimeChange_0047C8B0
 0001:0007B8B8 _Unit22.TWinControl.CMDrag_0047C8B8
 0001:0007B918 _Unit22.TWinControl.CMControlListChange_0047C918
 0001:0007B92C _Unit22.TWinControl.CMControlListChanging_0047C92C
 0001:0007B940 _Unit22.TWinControl.CMSysFontChanged_0047C940
 0001:0007B95C _Unit22.TWinControl.IsMenuKey_0047C95C
 0001:0007B9F4 _Unit22.TWinControl.CNKeyDown_0047C9F4
 0001:0007BAD8 _Unit22.TWinControl.CNKeyUp_0047CAD8
 0001:0007BB2C _Unit22.TWinControl.CNChar_0047CB2C
 0001:0007BB7C _Unit22.TWinControl.CNSysKeyDown_0047CB7C
 0001:0007BBD8 _Unit22.TWinControl.CNSysChar_0047CBD8
 0001:0007BC0C _Unit22.TWinControl.SetBounds_0047CC0C
 0001:0007BCE8 _Unit22.TWinControl.ScaleControls_0047CCE8
 0001:0007BD30 _Unit22.TWinControl.ScalePadding_0047CD30
 0001:0007BDB4 _Unit22.TWinControl.ChangeScale_0047CDB4
 0001:0007BE6C _Unit22.TWinControl.ScrollBy_0047CE6C
 0001:0007BF48 _Unit22.TWinControl.ShowControl_0047CF48
 0001:0007BF64 _Unit22.TWinControl.SetZOrderPosition_0047CF64
 0001:0007C03C _Unit22.TWinControl.SetZOrder_0047D03C
 0001:0007C09C _Unit22.TWinControl.GetDeviceContext_0047D09C
 0001:0007C0F0 _Unit22.TWinControl.GetParentHandle_0047D0F0
 0001:0007C108 _Unit22.TWinControl.GetTopParentHandle_0047D108
 0001:0007C128 _Unit22.TWinControl.Invalidate_0047D128
 0001:0007C138 _Unit22.TWinControl.CMInputLangChange_0047D138
 0001:0007C18C _Unit22.TWinControl.CMInvalidate_0047D18C
 0001:0007C220 _Unit22.TWinControl.Update_0047D220
 0001:0007C23C _Unit22.TWinControl.Repaint_0047D23C
 0001:0007C258 _Unit22.TWinControl.InvalidateFrame_0047D258
 0001:0007C290 _Unit22.TWinControl.CanFocus_0047D290
 0001:0007C2D0 _Unit22.TWinControl.SetFocus_0047D2D0
 0001:0007C30C _Unit22.TWinControl.Focused_0047D30C
 0001:0007C354 _Unit22.TWinControl.GetHandle_0047D354
 0001:0007C368 _Unit22.TWinControl.GetControlExtents_0047D368
 0001:0007C49C _Unit22.TWinControl.GetClientOrigin_0047D49C
 0001:0007C4BC _Unit22.TWinControl.GetClientRect_0047D4BC
 0001:0007C4D4 _Unit22.TWinControl.AdjustSize_0047D4D4
 0001:0007C510 _Unit22.TWinControl.SetBorderWidth_0047D510
 0001:0007C530 _Unit22.TWinControl.SetCtl3D_0047D530
 0001:0007C554 _Unit22.TWinControl.IsCtl3DStored_0047D554
 0001:0007C560 _Unit22.TWinControl.IsDoubleBufferedStored_0047D560
 0001:0007C56C _Unit22.TWinControl.SetParentCtl3D_0047D56C
 0001:0007C598 _Unit22.TWinControl.GetTabOrder_0047D598
 0001:0007C5BC _Unit22.TWinControl.UpdateTabOrder_0047D5BC
 0001:0007C618 _Unit22.TWinControl.SetTabOrder_0047D618
 0001:0007C630 _Unit22.TWinControl.SetTabStop_0047D630
 0001:0007C690 _Unit22.TWinControl.SetUseDockManager_0047D690
 0001:0007C700 _Unit22.TWinControl.HandleAllocated_0047D700
 0001:0007C70C _Unit22.TWinControl.UpdateBounds_0047D70C
 0001:0007C828 _Unit22.TWinControl.GetTabControlList_0047D828
 0001:0007C864 _Unit22.TWinControl.GetTabOrderList_0047D864
 0001:0007C8C4 _Unit22.TWinControl.FindNextControl_0047D8C4
 0001:0007C9D0 _Unit22.TWinControl.SelectNext_0047D9D0
 0001:0007CA00 _Unit22.TWinControl.SelectFirst_0047DA00
 0001:0007CA48 _Unit22.TWinControl.GetChildren_0047DA48
 0001:0007CA90 _Unit22.TWinControl.SetChildOrder_0047DA90
 0001:0007CAD0 _Unit22.TWinControl.CanResize_0047DAD0
 0001:0007CAD8 _Unit22.DoCalcConstraints_0047DAD8
 0001:0007CB9C _Unit22.TWinControl.CalcConstraints_0047DB9C
 0001:0007D028 _Unit22.TWinControl.ConstrainedResize_0047E028
 0001:0007D064 _Unit22.TWinControl.ActionChange_0047E064
 0001:0007D0A4 _Unit22.TWinControl.sub_004770F0_0047E0A4
 0001:0007D0AC _Unit22.TWinControl.AssignTo_0047E0AC
 0001:0007D0DC _Unit22.TWinControl.CanAutoSize_0047E0DC
 0001:0007D2A0 _Unit22.TWinControl.SetBevelCut_0047E2A0
 0001:0007D2E4 _Unit22.TWinControl.SetBevelEdges_0047E2E4
 0001:0007D314 _Unit22.TWinControl.SetBevelKind_0047E314
 0001:0007D334 _Unit22.TWinControl.SetBevelWidth_0047E334
 0001:0007D354 _Unit22.TWinControl.WMNCCalcSize_0047E354
 0001:0007D3E8 _Unit22.TWinControl.WMNCPaint_0047E3E8
 0001:0007D6E0 _Unit22.TWinControl.WMContextMenu_0047E6E0
 0001:0007D798 _Unit22.TWinControl.UpdateUIState_0047E798
 0001:0007D7E4 _Unit22.TWinControl.WMPrintClient_0047E7E4
 0001:0007D8C0 _Unit22.TWinControl.WMGesture_0047E8C0
 0001:0007DCB0 _Unit22.TWinControl.WMGestureNotify_0047ECB0
 0001:0007E08C _Unit22.TWinControl.WMTabletQuerySystemGestureStatus_0047F08C
 0001:0007E134 _Unit22.TWinControl.GetParentBackground_0047F134
 0001:0007E13C _Unit22.TWinControl.SetParentBackground_0047F13C
 0001:0007E178 _Unit22.TWinControl.CMTextChanged_0047F178
 0001:0007E190 _Unit22.TWinControl.InvalidateDockHostSite_0047F190
 0001:0007E1C4 _Unit22.TWinControl.DockReplaceDockClient_0047F1C4
 0001:0007E1D0 _Unit22.TWinControl.PreProcessMessage_0047F1D0
 0001:0007E1D4 _Unit22.TWinControl.RemoveWindowProps_0047F1D4
 0001:0007E204 _Unit22.TWinControl.IsQualifyingSite_0047F204
 0001:0007E228 _Unit22.TWinControl.DoPaddingChange_0047F228
 0001:0007E230 _Unit22.TWinControl.SetPadding_0047F230
 0001:0007E28C _Unit22.TWinControl.UpdateControlOriginalParentSize_0047F28C
 0001:0007E308 _Unit22.TWinControl.SetParent_0047F308
 0001:0007E384 _Unit22.TGraphicControl.Create_0047F384
 0001:0007E3E0 _Unit22.TGraphicControl.Destroy_0047F3E0
 0001:0007E420 _Unit22.TGraphicControl.WMPaint_0047F420
 0001:0007E4D4 _Unit22.sub_0047F4D4_0047F4D4
 0001:0007E4D8 _Unit22.THintWindow.Create_0047F4D8
 0001:0007E540 _Unit22.THintWindow.CreateParams_0047F540
 0001:0007E594 _Unit22.TCustomHintWindow.WMNCHitTest_0047F594
 0001:0007E59C _Unit22.TCustomHintWindow.WMNCPaint_0047F59C
 0001:0007E600 _Unit22.THintWindow.Paint_0047F600
 0001:0007E724 _Unit22.THintWindow.IsHintMsg_0047F724
 0001:0007E788 _Unit22.THintWindow.ReleaseHandle_0047F788
 0001:0007E794 _Unit22.THintWindow.CMTextChanged_0047F794
 0001:0007E82C _Unit22.THintWindow.ActivateHint_0047F82C
 0001:0007EAA8 _Unit22.THintWindow.ActivateHintData_0047FAA8
 0001:0007EAD0 _Unit22.THintWindow.CalcHintRect_0047FAD0
 0001:0007EB30 _Unit22.THintWindow.NCPaint_0047FB30
 0001:0007EB98 _Unit22.TCustomHintWindow.WMPrint_0047FB98
 0001:0007EBBC _Unit22.THintWindow.ShouldHideHint_0047FBBC
 0001:0007EBC0 _Unit22.ClientToWindow_0047FBC0
 0001:0007EC00 _Unit22.TDragImageList.Initialize_0047FC00
 0001:0007EC18 _Unit22.TDragImageList.SetDragImage_0047FC18
 0001:0007EC68 _Unit22.TDragImageList.SetDragCursor_0047FC68
 0001:0007EC8C _Unit22.TDragImageList.GetHotSpot_0047FC8C
 0001:0007ECB8 _Unit22.TDragImageList.BeginDrag_0047FCB8
 0001:0007ED38 _Unit22.TDragImageList.DragLock_0047FD38
 0001:0007ED9C _Unit22.TDragImageList.DragUnlock_0047FD9C
 0001:0007EDC0 _Unit22.TDragImageList.DragMove_0047FDC0
 0001:0007EE04 _Unit22.TDragImageList.ShowDragImage_0047FE04
 0001:0007EE1C _Unit22.TDragImageList.HideDragImage_0047FE1C
 0001:0007EE34 _Unit22.TDragImageList.EndDrag_0047FE34
 0001:0007EE88 _Unit22.TCustomControl.Create_0047FE88
 0001:0007EEE4 _Unit22.TCustomControl.Destroy_0047FEE4
 0001:0007EF14 _Unit22.TCustomControl.WMPaint_0047FF14
 0001:0007EF34 _Unit22.TCustomControl.PaintWindow_0047FF34
 0001:0007EFE0 _Unit22.sub_0047FFE0_0047FFE0
 0001:0007EFE4 _Unit22.NextVisibleZone_0047FFE4
 0001:0007F000 _Unit22.IsOrientationSet_00480000
 0001:0007F024 _Unit22.TDockZone.Create_00480024
 0001:0007F060 _Unit22.TDockZone.GetChildCount_00480060
 0001:0007F074 _Unit22.TDockZone.GetVisibleChildCount_00480074
 0001:0007F0D0 _Unit22.TDockZone.GetLimitBegin_004800D0
 0001:0007F118 _Unit22.TDockZone.GetLimitSize_00480118
 0001:0007F160 _Unit22.TDockZone.GetTopLeft_00480160
 0001:0007F1E4 _Unit22.TDockZone.GetHeightWidth_004801E4
 0001:0007F29C _Unit22.TDockZone.ResetChildren_0048029C
 0001:0007F344 _Unit22.TDockZone.GetControlName_00480344
 0001:0007F388 _Unit22.TDockZone.SetControlName_00480388
 0001:0007F40C _Unit22.ParentNotLast_0048040C
 0001:0007F43C _Unit22.TDockZone.Update_0048043C
 0001:0007F5B8 _Unit22.TDockZone.GetZoneLimit_004805B8
 0001:0007F5E0 _Unit22.TDockZone.SetZoneLimit_004805E0
 0001:0007F5E4 _Unit22.GetLastChildZone_004805E4
 0001:0007F690 _Unit22.TDockZone.NextVisible_00480690
 0001:0007F69C _Unit22.TDockZone.PrevVisible_0048069C
 0001:0007F6B8 _Unit22.TDockZone.FirstVisibleChild_004806B8
 0001:0007F6C4 _Unit22.TDockTree.Create_004806C4
 0001:0007F82C _Unit22.TDockTree.Destroy_0048082C
 0001:0007F884 _Unit22.TDockTree.AdjustDockRect_00480884
 0001:0007F89C _Unit22.TDockTree.BeginUpdate_0048089C
 0001:0007F8A0 _Unit22.TDockTree.EndUpdate_004808A0
 0001:0007F90C _Unit22.TDockTree.FindControlZone_0048090C
 0001:0007F974 _Unit22.TDockTree.ForEachAt_00480974
 0001:0007F98C _Unit22.TDockTree.GetControlBounds_0048098C
 0001:0007FA04 _Unit22.TDockTree.HitTest_00480A04
 0001:0007FA14 _Unit22.TDockTree.InsertControl_00480A14
 0001:0007FC28 _Unit22.TDockTree.InsertNewParent_00480C28
 0001:0007FDCC _Unit22.TDockTree.InsertSibling_00480DCC
 0001:0007FE44 _Unit22.TDockTree.ZoneCaptionHitTest_00480E44
 0001:0007FF48 _Unit22.TDockTree.FindControlAtPos_00480F48
 0001:000800F4 _Unit22.TDockTree.InternalHitTest_004810F4
 0001:0008017C _Unit22.ReadControlName_0048117C
 0001:0008022C _Unit22.TDockTree.LoadFromStream_0048122C
 0001:00080568 _Unit22.DrawCloseButton_00481568
 0001:000805FC _Unit22.DrawGrabberLine_004815FC
 0001:00080688 _Unit22.DrawThemedGrabber_00481688
 0001:000806E4 _Unit22.TDockTree.PaintDockFrame_004816E4
 0001:00080838 _Unit22.TDockTree.PaintSite_00481838
 0001:0008096C _Unit22.TDockTree.PositionDockRect_0048196C
 0001:00080B1C _Unit22.TDockTree.PruneZone_00481B1C
 0001:00080B78 _Unit22.TDockTree.RemoveControl_00481B78
 0001:00080BB8 _Unit22.TDockTree.RemoveZone_00481BB8
 0001:00080E58 _Unit22.TDockTree.ResetBounds_00481E58
 0001:00080F38 _Unit22.TDockTree.ScaleZone_00481F38
 0001:00080FA8 _Unit22.WriteControlName_00481FA8
 0001:00081144 _Unit22.TDockTree.SaveToStream_00482144
 0001:000813B4 _Unit22.TDockTree.SetNewBounds_004823B4
 0001:000813E4 _Unit22.TDockTree.SetReplacingControl_004823E4
 0001:000813FC _Unit22.TDockTree.ShiftZone_004823FC
 0001:0008142C _Unit22.TDockTree.SplitterMouseDown_0048242C
 0001:0008148C _Unit22.TDockTree.SplitterMouseUp_0048248C
 0001:00081504 _Unit22.TDockTree.UpdateAll_00482504
 0001:0008152C _Unit22.TDockTree.UpdateZone_0048252C
 0001:0008153C _Unit22.TDockTree.WindowProc_0048253C
 0001:00081550 _Unit22.TDockTree.DrawSizeSplitter_00482550
 0001:000816CC _Unit22.TDockTree.GetNextLimit_004826CC
 0001:00081724 _Unit22.GetDockAlign_00482724
 0001:00081958 _Unit22.TDockTree.ControlVisibilityChanged_00482958
 0001:000819E0 _Unit22.TDockTree.WndProc_004829E0
 0001:00081C78 _Unit22.TDockTree.ActualSize_00482C78
 0001:00081CA8 _Unit22.TDockTree.RelativeSize_00482CA8
 0001:00081CE0 _Unit22.TDockTree.ReferenceFromOrient_00482CE0
 0001:00081D0C _Unit22.TDockTree.AdjustFrameRect_00482D0C
 0001:00081D4C _Unit22.TDockTree.MouseDown_00482D4C
 0001:00081E74 _Unit22.CalcSplitterPos_00482E74
 0001:00081F04 _Unit22.TDockTree.MouseMove_00482F04
 0001:00081F50 _Unit22.TDockTree.MouseUp_00482F50
 0001:00081FBC _Unit22.TDockTree.ShowHint_00482FBC
 0001:000820B0 _Unit22.TMouse.Create_004830B0
 0001:00082140 _Unit22.TMouse.CreatePanningWindow_00483140
 0001:0008216C _Unit22.TMouse.Destroy_0048316C
 0001:0008219C _Unit22.TMouse.GetCapture_0048319C
 0001:000821A4 _Unit22.TMouse.GetCursorPos_004831A4
 0001:000821D0 _Unit22.TMouse.GetIsDragging_004831D0
 0001:000821DC _Unit22.TMouse.GetIsPanning_004831DC
 0001:00082200 _Unit22.TMouse.GetMouseData_00483200
 0001:00082218 _Unit22.TMouse.GetNativeData_00483218
 0001:00082244 _Unit22.TMouse.GetRegisteredData_00483244
 0001:0008226C _Unit22.TMouse.SetCapture_0048326C
 0001:00082294 _Unit22.TMouse.SetCursorPos_00483294
 0001:000822A4 _Unit22.TMouse.SetPanningWindow_004832A4
 0001:000822CC _Unit22.TMouse.SettingChanged_004832CC
 0001:00082330 _Unit22.InitIMM32_00483330
 0001:00082670 _Unit22.Win32NLSEnableIME_00483670
 0001:0008268C _Unit22.SetImeMode_0048368C
 0001:00082764 _Unit22.Imm32IsIME_00483764
 0001:00082778 _Unit22.DoneControls_00483778
 0001:00082814 _Unit22.InitControls_00483814
 0001:00082A30 _Unit22.TMargins.Create_00483A30
 0001:00082A74 _Unit22.TMargins.AssignTo_00483A74
 0001:00082ABC _Unit22.TSizeConstraints.Change_00483ABC
 0001:00082AD0 _Unit22.TMargins.InitDefaults_00483AD0
 0001:00082AF0 _Unit22.TMargins.SetMargin_00483AF0
 0001:00082B48 _Unit22.TMargins.SetControlBounds_00483B48
 0001:00082C34 _Unit22.TMargins.GetControlBound_00483C34
 0001:00082DC4 _Unit22.TPadding.InitDefaults_00483DC4
 0001:00082DC8 _Unit22.TCustomHintWindow.AutoSize_00483DC8
 0001:00082DD8 _Unit22.TCustomHintWindow.CMTextChanged_00483DD8
 0001:00082DE0 _Unit22.TCustomHintWindow.Create_00483DE0
 0001:00082E64 _Unit22.TCustomHintWindow.CreateParams_00483E64
 0001:00082E80 _Unit22.TCustomHintWindow.CreateWnd_00483E80
 0001:00082ED8 _Unit22.TCustomHintWindow.NCPaint_00483ED8
 0001:00082EF0 _Unit22.TCustomHintWindow.Paint_00483EF0
 0001:00082F00 _Unit22.TCustomHintWindow.PositionAt_00483F00
 0001:00082FA4 _Unit22.THintWindow.WMNCHitTest_00483FA4
 0001:00082FAC _Unit22.THintWindow.WMNCPaint_00483FAC
 0001:00083010 _Unit22.THintWindow.WMPrint_00484010
 0001:00083034 _Unit22.TCustomHint.SetHintSize_00484034
 0001:00083180 _Unit22.TCustomHint.SetImages_00484180
 0001:00083198 _Unit22.TCustomHint.Create_00484198
 0001:000831E8 _Unit22.TCustomHint.Destroy_004841E8
 0001:0008323C _Unit22.TCustomHint.HideHint_0048423C
 0001:00083248 _Unit22.TCustomHint.HideHint_00484248
 0001:00083250 _Unit22.TCustomHint.NCPaintHint_00484250
 0001:00083254 _Unit22.TCustomHint.Notification_00484254
 0001:00083280 _Unit22.TCustomHint.PaintHint_00484280
 0001:000834CC _Unit22.TCustomHint.ShowAnotherHint_004844CC
 0001:000834D4 _Unit22.TCustomHint.ShowHint_004844D4
 0001:00083630 _Unit22.TCustomHint.ShowHint_00484630
 0001:000836C8 _Unit22.TCustomHint.ShowHint_004846C8
 0001:00083704 _Unit22.TCustomHintShowHideThread.Create_00484704
 0001:00083788 _Unit22.TCustomHintShowHideThread.Destroy_00484788
 0001:0008384C _Unit22.LatestHintWindow_0048484C
 0001:00083958 _Unit22.TCustomHintShowHideThread.Execute_00484958
 0001:00083DC4 _Unit22.TCustomHintShowHideThread.QueHintWindow_00484DC4
 0001:00083DD0 _Unit22.TCustomHintShowHideThread.ResumeWork_00484DD0
 0001:00083DDC _Unit22.TCustomGestureEngine.Supported_00484DDC
 0001:00083DE0 _Unit22.TCustomTouchManager.Create_00484DE0
 0001:00083E4C _Unit22.TCustomTouchManager.Destroy_00484E4C
 0001:00083E90 _Unit22.TCustomTouchManager.AssignTo_00484E90
 0001:00083EFC _Unit22.TCustomTouchManager.GetGestureList_00484EFC
 0001:00083F28 _Unit22.TCustomTouchManager.GetStandardGestures_00484F28
 0001:00083F64 _Unit22.TCustomTouchManager.IsInteractiveGestureOptionsStored_00484F64
 0001:00083F78 _Unit22.TCustomTouchManager.IsInteractiveGesturesStored_00484F78
 0001:00083F8C _Unit22.TCustomTouchManager.IsParentTabletOptionsStored_00484F8C
 0001:00083FA0 _Unit22.TCustomTouchManager.IsTabletOptionsStored_00484FA0
 0001:00083FB4 _Unit22.TCustomTouchManager.SetGestureEngine_00484FB4
 0001:00083FF8 _Unit22.TCustomTouchManager.SetGestureManager_00484FF8
 0001:0008406C _Unit22.TCustomTouchManager.SetParentTabletOptions_0048506C
 0001:00084094 _Unit22.TCustomTouchManager.SetStandardGestures_00485094
 0001:000840C8 _Unit22.TCustomTouchManager.SetTabletOptions_004850C8
 0001:000840FC _Unit22.Finalization_004850FC
 0001:000881A4 Themes.UnthemedDesigner_004891A4
 0001:00088210 Themes.ThemeServices_00489210
 0001:00088230 Themes.TThemeServices.Create_00489230
 0001:000882B4 Themes.TThemeServices.Destroy_004892B4
 0001:000882DC Themes.TThemeServices.GetTheme_004892DC
 0001:0008831C Themes.TThemeServices.GetThemesEnabled_0048931C
 0001:00088334 Themes.TThemeServices.DoOnThemeChange_00489334
 0001:00088348 Themes.TThemeServices.UnloadThemeData_00489348
 0001:00088378 Themes.TThemeServices.ApplyThemeChange_00489378
 0001:0008838C Themes.TThemeServices.ContentRect_0048938C
 0001:000883DC Themes.TThemeServices.DrawEdge_004893DC
 0001:00088428 Themes.TThemeServices.DrawElement_00489428
 0001:0008846C Themes.TThemeServices.DrawElement_0048946C
 0001:000884BC Themes.TThemeServices.DrawElement_004894BC
 0001:00088500 Themes.TThemeServices.DrawIcon_00489500
 0001:00088548 Themes.TThemeServices.DrawParentBackground_00489548
 0001:000885B0 Themes.TThemeServices.DrawText_004895B0
 0001:00088620 Themes.TThemeServices.GetElementDetails_00489620
 0001:000886A4 Themes.TThemeServices.GetElementDetails_004896A4
 0001:000886E0 Themes.TThemeServices.GetElementDetails_004896E0
 0001:0008877C Themes.TThemeServices.GetElementDetails_0048977C
 0001:00088814 Themes.TThemeServices.GetElementDetails_00489814
 0001:000888DC Themes.TThemeServices.GetElementDetails_004898DC
 0001:00088C68 Themes.TThemeServices.PaintBorder_00489C68
 0001:00088E0C Themes.TThemeServices.UpdateThemes_00489E0C
 0001:00088E28 Themes.ThemeControl_00489E28
 0001:00088E74 Themes.Finalization_00489E74
 0001:0008A4E0 _Unit24.GetRGBColor_0048B4E0
 0001:0008A500 _Unit24.GetColor_0048B500
 0001:0008A520 _Unit24.TCustomImageList.Create_0048B520
 0001:0008A56C _Unit24.TCustomImageList.CreateSize_0048B56C
 0001:0008A5C0 _Unit24.TCustomImageList.Destroy_0048B5C0
 0001:0008A62C _Unit24.TCustomImageList.Initialize_0048B62C
 0001:0008A6E8 _Unit24.TCustomImageList.HandleAllocated_0048B6E8
 0001:0008A6F0 _Unit24.TCustomImageList.HandleNeeded_0048B6F0
 0001:0008A6FC _Unit24.TCustomImageList.InitBitmap_0048B6FC
 0001:0008A7C0 _Unit24.TCustomImageList.SetNewDimensions_0048B7C0
 0001:0008A7F8 _Unit24.TCustomImageList.SetShareImages_0048B7F8
 0001:0008A804 _Unit24.TCustomImageList.SetWidth_0048B804
 0001:0008A840 _Unit24.TCustomImageList.SetHeight_0048B840
 0001:0008A87C _Unit24.TCustomImageList.SetHandle_0048B87C
 0001:0008A8A8 _Unit24.TCustomImageList.GetBitmapHandle_0048B8A8
 0001:0008A8B8 _Unit24.TCustomImageList.GetHandle_0048B8B8
 0001:0008A8C8 _Unit24.TCustomImageList.GetImageHandle_0048B8C8
 0001:0008A950 _Unit24.TCustomImageList.FreeHandle_0048B950
 0001:0008A980 _Unit24.TCustomImageList.CreateImageList_0048B980
 0001:0008AA24 _Unit24.TCustomImageList.Add_0048BA24
 0001:0008AAF0 _Unit24.TCustomImageList.AddMasked_0048BAF0
 0001:0008AC0C _Unit24.TCustomImageList.GetCount_0048BC0C
 0001:0008AC28 _Unit24.TCustomImageList.ReplaceMasked_0048BC28
 0001:0008AE4C _Unit24.TCustomImageList.Delete_0048BE4C
 0001:0008AED4 _Unit24.TCustomImageList.Clear_0048BED4
 0001:0008AEE0 _Unit24.TCustomImageList.SetBkColor_0048BEE0
 0001:0008AF10 _Unit24.TCustomImageList.SetColorDepth_0048BF10
 0001:0008AF30 _Unit24.TCustomImageList.SetSize_0048BF30
 0001:0008AF74 _Unit24.TCustomImageList.GetBkColor_0048BF74
 0001:0008AF98 _Unit24.TCustomImageList.DoDraw_0048BF98
 0001:0008B164 _Unit24.TCustomImageList.Draw_0048C164
 0001:0008B18C _Unit24.TCustomImageList.Draw_0048C18C
 0001:0008B1D0 _Unit24.TCustomImageList.CopyImages_0048C1D0
 0001:0008B384 _Unit24.TCustomImageList.AddImage_0048C384
 0001:0008B3BC _Unit24.TCustomImageList.Assign_0048C3BC
 0001:0008B44C _Unit24.TCustomImageList.AssignTo_0048C44C
 0001:0008B4D0 _Unit24.TCustomImageList.CheckImage_0048C4D0
 0001:0008B548 _Unit24.TCustomImageList.SetDrawingStyle_0048C548
 0001:0008B560 _Unit24.TCustomImageList.GetHotSpot_0048C560
 0001:0008B580 _Unit24.TCustomImageList.Change_0048C580
 0001:0008B5D0 _Unit24.TCustomImageList.UnRegisterChanges_0048C5D0
 0001:0008B614 _Unit24.TCustomImageList.RegisterChanges_0048C614
 0001:0008B628 _Unit24.StreamsEqual_0048C628
 0001:0008B66C _Unit24.TCustomImageList.Equal_0048C66C
 0001:0008B75C _Unit24.DoWrite_0048C75C
 0001:0008B7B8 _Unit24.TCustomImageList.DefineProperties_0048C7B8
 0001:0008B81C _Unit24.TCustomImageList.ReadD2Stream_0048C81C
 0001:0008BAB0 _Unit24.TCustomImageList.ReadD3Stream_0048CAB0
 0001:0008BC74 _Unit24.TCustomImageList.ReadData_0048CC74
 0001:0008BD24 _Unit24.TCustomImageList.WriteData_0048CD24
 0001:0008BE94 _Unit24.TCustomImageList.BeginUpdate_0048CE94
 0001:0008BE98 _Unit24.TCustomImageList.EndUpdate_0048CE98
 0001:0008BEB8 _Unit24.TChangeLink.Destroy_0048CEB8
 0001:0008BEEC _Unit24.TChangeLink.Change_0048CEEC
 0001:0008E708 _Unit24.FindPopupControl_0048F708
 0001:0008E73C _Unit24.ReturnAddr_0048F73C
 0001:0008E744 _Unit24.Error_0048F744
 0001:0008E764 _Unit24.ShortCut_0048F764
 0001:0008E79C _Unit24.GetSpecialName_0048F79C
 0001:0008E7EC _Unit24.ShortCutToText_0048F7EC
 0001:0008E9E8 _Unit24.CompareFront_0048F9E8
 0001:0008EA70 _Unit24.TextToShortCut_0048FA70
 0001:0008EB6C _Unit24.UniqueCommand_0048FB6C
 0001:0008EB8C _Unit24.Iterate_0048FB8C
 0001:0008EBF0 _Unit24.IterateMenus_0048FBF0
 0001:0008ECFC _Unit24.TMenuActionLink.AssignClient_0048FCFC
 0001:0008ED18 _Unit24.TMenuActionLink.IsAutoCheckLinked_0048FD18
 0001:0008ED4C _Unit24.TMenuActionLink.IsCaptionLinked_0048FD4C
 0001:0008ED78 _Unit24.TMenuActionLink.IsCheckedLinked_0048FD78
 0001:0008EDA0 _Unit24.TMenuActionLink.IsEnabledLinked_0048FDA0
 0001:0008EDC8 _Unit24.TMenuActionLink.IsHelpContextLinked_0048FDC8
 0001:0008EDEC _Unit24.TMenuActionLink.IsHintLinked_0048FDEC
 0001:0008EE18 _Unit24.TMenuActionLink.IsGroupIndexLinked_0048FE18
 0001:0008EE48 _Unit24.TMenuActionLink.IsImageIndexLinked_0048FE48
 0001:0008EE70 _Unit24.TMenuActionLink.IsShortCutLinked_0048FE70
 0001:0008EE9C _Unit24.TMenuActionLink.IsVisibleLinked_0048FE9C
 0001:0008EEC4 _Unit24.TMenuActionLink.IsOnExecuteLinked_0048FEC4
 0001:0008EEEC _Unit24.TMenuActionLink.SetAutoCheck_0048FEEC
 0001:0008EF0C _Unit24.TMenuActionLink.SetCaption_0048FF0C
 0001:0008EF2C _Unit24.TMenuActionLink.SetChecked_0048FF2C
 0001:0008EF4C _Unit24.TMenuActionLink.SetEnabled_0048FF4C
 0001:0008EF6C _Unit24.TMenuActionLink.SetHelpContext_0048FF6C
 0001:0008EF88 _Unit24.TMenuActionLink.SetHint_0048FF88
 0001:0008EFAC _Unit24.TMenuActionLink.SetImageIndex_0048FFAC
 0001:0008EFCC _Unit24.TMenuActionLink.SetShortCut_0048FFCC
 0001:0008EFEC _Unit24.TMenuActionLink.SetVisible_0048FFEC
 0001:0008F00C _Unit24.TMenuActionLink.SetOnExecute_0049000C
 0001:0008F038 _Unit24.TMenuItemEnumerator.GetCurrent_00490038
 0001:0008F044 _Unit24.TMenuItem.Create_00490044
 0001:0008F0C8 _Unit24.TMenuItem.Destroy_004900C8
 0001:0008F19C _Unit24.TMenuItem.AppendTo_0049019C
 0001:0008F494 _Unit24.AddIn_00490494
 0001:0008F4B4 _Unit24.TMenuItem.PopulateMenu_004904B4
 0001:0008F524 _Unit24.TMenuItem.ReadShortCutText_00490524
 0001:0008F57C _Unit24.TMenuItem.MergeWith_0049057C
 0001:0008F5B8 _Unit24.TMenuItem.Loaded_004905B8
 0001:0008F6C8 _Unit24.TMenuItem.VerifyGroupIndex_004906C8
 0001:0008F728 _Unit24.TMenuItem.GetHandle_00490728
 0001:0008F780 _Unit24.TMenuItem.DefineProperties_00490780
 0001:0008F7D4 _Unit24.TMenuItem.DoDrawText_004907D4
 0001:0008FA08 _Unit24.TMenuItem.DrawItem_00490A08
 0001:0008FA48 _Unit24.DoDrawVistaText_00490A48
 0001:0008FBE8 _Unit24.VistaDraw_00490BE8
 0001:00090688 _Unit24.NormalDraw_00491688
 0001:00091008 _Unit24.BiDiDraw_00492008
 0001:000919A8 _Unit24.TMenuItem.AdvancedDrawItem_004929A8
 0001:00091B50 _Unit24.TMenuItem.GetImageList_00492B50
 0001:00091B80 _Unit24.GetMenuSize_00492B80
 0001:00091BCC _Unit24.MeasureVistaMenuItem_00492BCC
 0001:00091FAC _Unit24.TMenuItem.MeasureItem_00492FAC
 0001:00092228 _Unit24.TMenuItem.HasParent_00493228
 0001:0009222C _Unit24.TMenuItem.SetBreak_0049322C
 0001:0009223C _Unit24.TMenuItem.SetCaption_0049323C
 0001:00092264 _Unit24.TMenuItem.TurnSiblingsOff_00493264
 0001:000922B0 _Unit24.TMenuItem.SetChecked_004932B0
 0001:00092304 _Unit24.TMenuItem.SetEnabled_00493304
 0001:0009237C _Unit24.TMenuItem.SetGroupIndex_0049337C
 0001:000923C0 _Unit24.TMenuItem.GetAction_004933C0
 0001:000923D0 _Unit24.TMenuItem.sub_004933D0_004933D0
 0001:000923D8 _Unit24.TMenuItem.GetCount_004933D8
 0001:000923E8 _Unit24.TMenuItem.GetItem_004933E8
 0001:0009240C _Unit24.TMenuItem.SetShortCut_0049340C
 0001:00092420 _Unit24.TMenuItem.SetVisible_00493420
 0001:00092430 _Unit24.TMenuItem.SetImageIndex_00493430
 0001:00092440 _Unit24.TMenuItem.GetMenuIndex_00493440
 0001:00092458 _Unit24.TMenuItem.SetMenuIndex_00493458
 0001:000924A0 _Unit24.TMenuItem.GetChildren_004934A0
 0001:000924D8 _Unit24.TMenuItem.SetChildOrder_004934D8
 0001:000924F8 _Unit24.TMenuItem.SetDefault_004934F8
 0001:00092554 _Unit24.TMenuItem.InitiateAction_00493554
 0001:00092564 _Unit24.TMenuItem.Insert_00493564
 0001:00092620 _Unit24.TMenuItem.Delete_00493620
 0001:00092698 _Unit24.TMenuItem.Click_00493698
 0001:00092748 _Unit24.TMenuItem.IndexOf_00493748
 0001:00092760 _Unit24.TMenuItem.Add_00493760
 0001:0009277C _Unit24.TMenuItem.Remove_0049377C
 0001:000927A4 _Unit24.TMenuItem.MenuChanged_004937A4
 0001:00092844 _Unit24.TMenuItem.GetBitmap_00493844
 0001:0009286C _Unit24.TMenuItem.SetAction_0049386C
 0001:000928DC _Unit24.TMenuItem.SetBitmap_004938DC
 0001:00092910 _Unit24.TMenuItem.InitiateActions_00493910
 0001:0009293C _Unit24.TMenuItem.GetParentComponent_0049393C
 0001:00092950 _Unit24.TMenuItem.SetParentComponent_00493950
 0001:000929A4 _Unit24.TMenuItem.GetParentMenu_004939A4
 0001:000929B4 _Unit24.TMenuItem.SetRadioItem_004939B4
 0001:000929E0 _Unit24.TMenuItem.ActionChange_004939E0
 0001:00092B04 _Unit24.TMenuItem.DoActionChange_00493B04
 0001:00092B28 _Unit24.TMenuItem.IsCaptionStored_00493B28
 0001:00092B48 _Unit24.TMenuItem.IsCheckedStored_00493B48
 0001:00092B68 _Unit24.TMenuItem.IsEnabledStored_00493B68
 0001:00092B88 _Unit24.TMenuItem.IsHintStored_00493B88
 0001:00092BA8 _Unit24.TMenuItem.IsHelpContextStored_00493BA8
 0001:00092BC8 _Unit24.TMenuItem.IsImageIndexStored_00493BC8
 0001:00092BE8 _Unit24.TMenuItem.IsShortCutStored_00493BE8
 0001:00092C08 _Unit24.TMenuItem.IsVisibleStored_00493C08
 0001:00092C28 _Unit24.TMenuItem.IsOnClickStored_00493C28
 0001:00092C48 _Unit24.TMenuItem.AssignTo_00493C48
 0001:00092CC4 _Unit24.TMenuItem.Notification_00493CC4
 0001:00092D18 _Unit24.TMenuItem.SetSubMenuImages_00493D18
 0001:00092D54 _Unit24.TMenuItem.ImageListChange_00493D54
 0001:00092D60 _Unit24.UpdateItem_00493D60
 0001:00092D88 _Unit24.TMenuItem.UpdateItems_00493D88
 0001:00092D9C _Unit24.IfHotkeyAvailable_00493D9C
 0001:00092DCC _Unit24.CopyToBest_00493DCC
 0001:00092E50 _Unit24.InsertHotkeyFarEastFormat_00493E50
 0001:00092FFC _Unit24.TMenuItem.InternalRethinkHotkeys_00493FFC
 0001:000934B8 _Unit24.TMenuItem.SetAutoHotkeys_004944B8
 0001:000934C8 _Unit24.TMenuItem.IsLine_004944C8
 0001:000934F0 _Unit24.TMenuItem.InternalRethinkLines_004944F0
 0001:00093638 _Unit24.TMenuItem.SetAutoLineReduction_00494638
 0001:000936A8 _Unit24.TMenu.Create_004946A8
 0001:00093744 _Unit24.TMenu.CreateMenuItem_00494744
 0001:00093754 _Unit24.TMenu.Destroy_00494754
 0001:0009378C _Unit24.TMenu.GetChildren_0049478C
 0001:000937AC _Unit24.TMenu.GetHandle_004947AC
 0001:000937B8 _Unit24.TMenu.SetChildOrder_004947B8
 0001:000937CC _Unit24.TMenu.UpdateItems_004947CC
 0001:00093880 _Unit24.TMenu.FindItem_00494880
 0001:000938B0 _Unit24.TMenu.GetHelpContext_004948B0
 0001:00093920 _Unit24.TMenu.DispatchCommand_00494920
 0001:0009393C _Unit24.TMenu.DispatchPopup_0049493C
 0001:00093A04 _Unit24.TMenu.IsOwnerDraw_00494A04
 0001:00093A18 _Unit24.GetAltGRStatus_00494A18
 0001:00093C20 _Unit24.IsAltGRPressed_00494C20
 0001:00093C5C _Unit24.ShortCutFromMessage_00494C5C
 0001:00093CAC _Unit24.NthParentOf_00494CAC
 0001:00093E10 _Unit24.TMenu.IsShortCut_00494E10
 0001:00093F04 _Unit24.TMainMenu.IsStoredBiDiMode_00494F04
 0001:00093F0C _Unit24.TMenu.DoBiDiModeChanged_00494F0C
 0001:00094014 _Unit24.BuildImage_00495014
 0001:000940E4 _Unit24.TMenu.UpdateImage_004950E4
 0001:00094168 _Unit24.TMenu.SetOwnerDraw_00495168
 0001:00094178 _Unit24.TMenu.AdjustBiDiBehavior_00495178
 0001:000941F8 _Unit24.TMenu.SetWindowHandle_004951F8
 0001:00094230 _Unit24.TMenu.DoChange_00495230
 0001:00094248 _Unit24.TMenu.Loaded_00495248
 0001:00094260 _Unit24.TMenu.MenuChanged_00495260
 0001:0009429C _Unit24.TMenu.ImageListChange_0049529C
 0001:000942A8 _Unit24.TMenu.SetImages_004952A8
 0001:000942E4 _Unit24.TMenu.Notification_004952E4
 0001:00094310 _Unit24.TMenu.IsRightToLeft_00495310
 0001:00094328 _Unit24.IsAccelChar_00495328
 0001:00094384 _Unit24.IsInitialChar_00495384
 0001:0009446C _Unit24.TMenu.ProcessMenuChar_0049546C
 0001:000945E8 _Unit24.TMenu.DoGetMenuString_004955E8
 0001:00094694 _Unit24.TMenu.SetBiDiMode_00495694
 0001:000946A8 _Unit24.TMenu.SetParentBiDiMode_004956A8
 0001:000946B8 _Unit24.TMenu.ParentBiDiModeChanged_004956B8
 0001:000946E0 _Unit24.TMenu.ParentBiDiModeChanged_004956E0
 0001:0009470C _Unit24.TMenu.GetAutoHotkeys_0049570C
 0001:0009471C _Unit24.TMenu.SetAutoHotkeys_0049571C
 0001:00094730 _Unit24.TMenu.GetAutoLineReduction_00495730
 0001:00094740 _Unit24.TMenu.SetAutoLineReduction_00495740
 0001:00094754 _Unit24.TMainMenu.SetAutoMerge_00495754
 0001:00094774 _Unit24.TMainMenu.MenuChanged_00495774
 0001:000947D0 _Unit24.TMainMenu.Merge_004957D0
 0001:000947EC _Unit24.TMainMenu.Unmerge_004957EC
 0001:00094808 _Unit24.TMainMenu.ItemChanged_00495808
 0001:00094834 _Unit24.TMainMenu.GetHandle_00495834
 0001:00094844 _Unit24.AddOle2_00495844
 0001:00094890 _Unit24.TMainMenu.PopulateOle2Menu_00495890
 0001:000948E0 _Unit24.TMainMenu.SetOle2MenuHandle_004958E0
 0001:000948EC _Unit24.TPopupList.MainWndProc_004958EC
 0001:00094938 _Unit24.TPopupList.WndProc_00495938
 0001:00094E98 _Unit24.TPopupList.Add_00495E98
 0001:00094EC0 _Unit24.TPopupList.Remove_00495EC0
 0001:00094EDC _Unit24.TPopupMenu.Create_00495EDC
 0001:00094F54 _Unit24.TPopupMenu.Destroy_00495F54
 0001:00094F88 _Unit24.TPopupMenu.DoPopup_00495F88
 0001:00094F9C _Unit24.TPopupMenu.GetHelpContext_00495F9C
 0001:00094FA4 _Unit24.TPopupMenu.SetHelpContext_00495FA4
 0001:00094FAC _Unit24.TPopupMenu.SetBiDiModeFromPopupControl_00495FAC
 0001:00094FF8 _Unit24.TPopupMenu.UseRightToLeftAlignment_00495FF8
 0001:00095044 _Unit24.TPopupMenu.Popup_00496044
 0001:000950F0 _Unit24.TPopupMenu.SetPopupPoint_004960F0
 0001:00095110 _Unit24.TMenuItemStack.ClearItem_00496110
 0001:0009514C _Unit24.DrawMenuItem_0049614C
 0001:00095234 _Unit24.StripHotkey_00496234
 0001:00095350 _Unit24.GetHotkey_00496350
 0001:000953C0 _Unit24.SameCaption_004963C0
 0001:0009551C _Unit24.Finalization_0049651C
 0001:0009621C HelpIntfs.EnsureHelpManager_0049721C
 0001:00096248 HelpIntfs.GetHelpSystem_00497248
 0001:00096288 HelpIntfs.THelpViewerNode.Create_00497288
 0001:000962CC HelpIntfs.THelpManager.Create_004972CC
 0001:00096330 HelpIntfs.THelpManager.Destroy_00497330
 0001:000963A8 HelpIntfs.THelpManager.RegisterViewer_004973A8
 0001:00096478 HelpIntfs.THelpManager.SelectViewer_00497478
 0001:000964E8 HelpIntfs.THelpManager.DoSoftShutDown_004974E8
 0001:00096518 HelpIntfs.THelpManager.CallSpecialWinHelp_00497518
 0001:000965E0 HelpIntfs.THelpManager.ShowHelp_004975E0
 0001:00096888 HelpIntfs.DefaultContextHelp_00497888
 0001:0009691C HelpIntfs.THelpManager.ShowContextHelp_0049791C
 0001:00096BD4 HelpIntfs.THelpManager.ShowTableOfContents_00497BD4
 0001:00096CE0 HelpIntfs.THelpManager.ShowTopicHelp_00497CE0
 0001:00096DC0 HelpIntfs.THelpManager.AssignHelpSelector_00497DC0
 0001:00096DD4 HelpIntfs.THelpManager.Hook_00497DD4
 0001:00096E58 HelpIntfs.THelpManager.UnderstandsKeyword_00497E58
 0001:00096F98 HelpIntfs.THelpManager.ShowIndex_00497F98
 0001:000970F8 HelpIntfs.THelpManager.ShowSearch_004980F8
 0001:00097258 HelpIntfs.THelpManager.ShowTopicHelp_00498258
 0001:00097364 HelpIntfs.THelpManager.GetFilter_00498364
 0001:0009744C HelpIntfs.THelpManager.SetFilter_0049844C
 0001:00097530 HelpIntfs.THelpManager.GetHandle_00498530
 0001:00097534 HelpIntfs.THelpManager.GetHelpFile_00498534
 0001:00097548 HelpIntfs.THelpManager.Release_00498548
 0001:000975B8 HelpIntfs.Finalization_004985B8
 0001:000975F4 _Unit26.sub_004985F4_004985F4
 0001:00097974 _Unit26.Finalization_00498974
 0001:0009797C _Unit27.Finalization_0049897C
 0001:0009D528 _Unit28.TCustomGroupBox.Create_0049E528
 0001:0009D584 _Unit28.TCustomGroupBox.AdjustClientRect_0049E584
 0001:0009D5E4 _Unit28.TCustomGroupBox.CreateParams_0049E5E4
 0001:0009D5F4 _Unit28.TCustomGroupBox.Paint_0049E5F4
 0001:0009D9FC _Unit28.TCustomGroupBox.CMDialogChar_0049E9FC
 0001:0009DA7C _Unit28.TCustomGroupBox.CMTextChanged_0049EA7C
 0001:0009DA94 _Unit28.TCustomGroupBox.CMCtl3DChanged_0049EA94
 0001:0009DAB4 _Unit28.TCustomCheckBox.WMSize_0049EAB4
 0001:0009DACC _Unit28.TCustomLabel.Create_0049EACC
 0001:0009DB6C _Unit28.TCustomLabel.GetLabelText_0049EB6C
 0001:0009DB80 _Unit28.TCustomLabel.DoDrawThemeTextEx_0049EB80
 0001:0009DC4C _Unit28.TCustomLabel.DoDrawNormalText_0049EC4C
 0001:0009DC80 _Unit28.TCustomLabel.DoDrawText_0049EC80
 0001:0009DF80 _Unit28.FillGlassRect_0049EF80
 0001:0009E010 _Unit28.TCustomLabel.Paint_0049F010
 0001:0009E114 _Unit28.TCustomLabel.Loaded_0049F114
 0001:0009E130 _Unit28.TCustomLabel.AdjustBounds_0049F130
 0001:0009E244 _Unit28.TCustomLabel.SetAlignment_0049F244
 0001:0009E25C _Unit28.TCustomLabel.SetEllipsisPosition_0049F25C
 0001:0009E27C _Unit28.TCustomLabel.SetAutoSize_0049F27C
 0001:0009E2A4 _Unit28.TCustomLabel.GetTransparent_0049F2A4
 0001:0009E2B0 _Unit28.TCustomLabel.SetFocusControl_0049F2B0
 0001:0009E2C4 _Unit28.TCustomLabel.SetGlowSize_0049F2C4
 0001:0009E2DC _Unit28.TCustomLabel.SetShowAccelChar_0049F2DC
 0001:0009E2F4 _Unit28.TCustomLabel.SetTransparent_0049F2F4
 0001:0009E33C _Unit28.TCustomLabel.SetLayout_0049F33C
 0001:0009E354 _Unit28.TCustomLabel.SetWordWrap_0049F354
 0001:0009E380 _Unit28.TCustomLabel.Notification_0049F380
 0001:0009E3B0 _Unit28.TCustomLabel.CMTextChanged_0049F3B0
 0001:0009E3CC _Unit28.TCustomLabel.CMThemeChanged_0049F3CC
 0001:0009E3E0 _Unit28.TCustomLabel.CMFontChanged_0049F3E0
 0001:0009E3F8 _Unit28.TCustomLabel.CMDialogChar_0049F3F8
 0001:0009E494 _Unit28.TCustomLabel.UpdateDrawTextProc_0049F494
 0001:0009E4D4 _Unit28.TCustomEdit.Create_0049F4D4
 0001:0009E5B0 _Unit28.TCustomEdit.DoSetMaxLength_0049F5B0
 0001:0009E5D0 _Unit28.TCustomEdit.DoSetTextHint_0049F5D0
 0001:0009E61C _Unit28.TCustomEdit.SetAlignment_0049F61C
 0001:0009E630 _Unit28.TCustomEdit.SetAutoSize_0049F630
 0001:0009E644 _Unit28.TCustomEdit.SetBorderStyle_0049F644
 0001:0009E668 _Unit28.TCustomEdit.SetCharCase_0049F668
 0001:0009E67C _Unit28.TCustomEdit.SetTextHint_0049F67C
 0001:0009E6B8 _Unit28.TCustomEdit.SetHideSelection_0049F6B8
 0001:0009E6CC _Unit28.TCustomEdit.SetMaxLength_0049F6CC
 0001:0009E6FC _Unit28.TCustomEdit.SetOEMConvert_0049F6FC
 0001:0009E710 _Unit28.TCustomEdit.GetModified_0049F710
 0001:0009E748 _Unit28.TCustomEdit.GetCanUndo_0049F748
 0001:0009E77C _Unit28.TCustomEdit.SetModified_0049F77C
 0001:0009E7B4 _Unit28.TCustomEdit.SetNumbersOnly_0049F7B4
 0001:0009E828 _Unit28.TCustomEdit.SetPasswordChar_0049F828
 0001:0009E850 _Unit28.TCustomEdit.SetReadOnly_0049F850
 0001:0009E88C _Unit28.TCustomEdit.GetSelStart_0049F88C
 0001:0009E8B0 _Unit28.TCustomEdit.SetSelStart_0049F8B0
 0001:0009E8D0 _Unit28.TCustomEdit.GetSelLength_0049F8D0
 0001:0009E900 _Unit28.TCustomEdit.SetSelLength_0049F900
 0001:0009E964 _Unit28.TCustomEdit.Clear_0049F964
 0001:0009E97C _Unit28.TCustomEdit.PasteFromClipboard_0049F97C
 0001:0009E998 _Unit28.TCustomEdit.SelectAll_0049F998
 0001:0009E9B4 _Unit28.TCustomEdit.GetSelTextBuf_0049F9B4
 0001:0009EA54 _Unit28.TCustomEdit.GetSelText_0049FA54
 0001:0009EAF4 _Unit28.TCustomEdit.SetSelText_0049FAF4
 0001:0009EB14 _Unit28.TCustomEdit.CreateParams_0049FB14
 0001:0009EC08 _Unit28.TCustomEdit.CreateWindowHandle_0049FC08
 0001:0009EC78 _Unit28.TCustomEdit.CreateWnd_0049FC78
 0001:0009ED90 _Unit28.TCustomEdit.DestroyWnd_0049FD90
 0001:0009EDCC _Unit28.TCustomEdit.UpdateHeight_0049FDCC
 0001:0009EE08 _Unit28.TCustomEdit.AdjustHeight_0049FE08
 0001:0009EEEC _Unit28.TCustomCombo.Change_0049FEEC
 0001:0009EF10 _Unit28.TCustomEdit.DefaultHandler_0049FF10
 0001:0009EFB4 _Unit28.TCustomEdit.WMSetFont_0049FFB4
 0001:0009EFF4 _Unit28.TCustomEdit.CMColorChanged_0049FFF4
 0001:0009F024 _Unit28.TCustomEdit.CMCtl3DChanged_004A0024
 0001:0009F058 _Unit28.TCustomEdit.CMFontChanged_004A0058
 0001:0009F080 _Unit28.TCustomCombo.CMGestureManagerChanged_004A0080
 0001:0009F0C8 _Unit28.TCustomEdit.CNCommand_004A00C8
 0001:0009F0EC _Unit28.TCustomEdit.CMEnter_004A00EC
 0001:0009F128 _Unit28.TCustomEdit.CMTextChanged_004A0128
 0001:0009F160 _Unit28.TCustomEdit.WMContextMenu_004A0160
 0001:0009F234 _Unit28.TCustomEdit.GetControlsAlignment_004A0234
 0001:0009F23C _Unit28.TMemoStrings.GetCount_004A023C
 0001:0009F2AC _Unit28.TMemoStrings.Get_004A02AC
 0001:0009F304 _Unit28.TMemoStrings.Put_004A0304
 0001:0009F370 _Unit28.TMemoStrings.Insert_004A0370
 0001:0009F478 _Unit28.TMemoStrings.Delete_004A0478
 0001:0009F504 _Unit28.TMemoStrings.Clear_004A0504
 0001:0009F510 _Unit28.TMemoStrings.SetUpdateState_004A0510
 0001:0009F560 _Unit28.TMemoStrings.GetTextStr_004A0560
 0001:0009F574 _Unit28.TMemoStrings.SetTextStr_004A0574
 0001:0009F658 _Unit28.TCustomMemo.Create_004A0658
 0001:0009F70C _Unit28.TCustomMemo.Destroy_004A070C
 0001:0009F73C _Unit28.TCustomMemo.DoGetGestureOptions_004A073C
 0001:0009F774 _Unit28.TCustomMemo.CreateParams_004A0774
 0001:0009F7B0 _Unit28.TCustomMemo.CreateWindowHandle_004A07B0
 0001:0009F8BC _Unit28.TCustomMemo.GetCaretPos_004A08BC
 0001:0009F918 _Unit28.TCustomMemo.IsTouchPropertyStored_004A0918
 0001:0009F964 _Unit28.TCustomMemo.SetCaretPos_004A0964
 0001:0009F9A0 _Unit28.TCustomMemo.Loaded_004A09A0
 0001:0009F9B8 _Unit28.TCustomMemo.SetLines_004A09B8
 0001:0009F9D0 _Unit28.TCustomMemo.SetScrollBars_004A09D0
 0001:0009F9E4 _Unit28.TCustomMemo.SetWordWrap_004A09E4
 0001:0009F9F8 _Unit28.TCustomMemo.WMGetDlgCode_004A09F8
 0001:0009FA2C _Unit28.TCustomMemo.WMNCDestroy_004A0A2C
 0001:0009FA34 _Unit28.TCustomMemo.KeyPress_004A0A34
 0001:0009FA5C _Unit28.TButtonActionLink.AssignClient_004A0A5C
 0001:0009FA80 _Unit28.TButtonActionLink.IsCheckedLinked_004A0A80
 0001:0009FAAC _Unit28.TButtonActionLink.SetChecked_004A0AAC
 0001:0009FB10 _Unit28.TButtonControl.Create_004A0B10
 0001:0009FB64 _Unit28.TButtonControl.ActionChange_004A0B64
 0001:0009FBC4 _Unit28.TButtonControl.sub_004770F0_004A0BC4
 0001:0009FBCC _Unit28.sub_004A0BCC_004A0BCC
 0001:0009FBD0 _Unit28.sub_004A0BD0_004A0BD0
 0001:0009FBD4 _Unit28.TButtonControl.WndProc_004A0BD4
 0001:0009FC4C _Unit28.TButtonControl.CNCtlColorStatic_004A0C4C
 0001:0009FCB4 _Unit28.TButtonControl.WMEraseBkGnd_004A0CB4
 0001:0009FCE0 _Unit28.TButtonControl.CreateParams_004A0CE0
 0001:0009FD04 _Unit28.TButtonControl.SetWordWrap_004A0D04
 0001:0009FD18 _Unit28.TImageMargins.Assign_004A0D18
 0001:0009FD60 _Unit28.TImageMargins.Change_004A0D60
 0001:0009FD74 _Unit28.TImageMargins.SetMargin_004A0D74
 0001:0009FDBC _Unit28.TPushButtonActionLink.IsImageIndexLinked_004A0DBC
 0001:0009FDE8 _Unit28.TPushButtonActionLink.SetImageIndex_004A0DE8
 0001:0009FE08 _Unit28.TCustomButton.Create_004A0E08
 0001:0009FF14 _Unit28.TCustomButton.ActionChange_004A0F14
 0001:0009FF58 _Unit28.TCustomButton.Click_004A0F58
 0001:0009FF80 _Unit28.GetColor_004A0F80
 0001:0009FFA0 _Unit28.TCustomButton.UpdateImageList_004A0FA0
 0001:000A00E4 _Unit28.TCustomButton.UpdateImages_004A10E4
 0001:000A0264 _Unit28.TCustomButton.UseRightToLeftAlignment_004A1264
 0001:000A0268 _Unit28.TCustomButton.SetButtonStyle_004A1268
 0001:000A02F4 _Unit28.TCustomButton.SetCommandLinkHint_004A12F4
 0001:000A0334 _Unit28.TCustomButton.SetDefault_004A1334
 0001:000A036C _Unit28.TCustomButton.SetDisabledImageIndex_004A136C
 0001:000A039C _Unit28.TCustomButton.SetDropDownMenu_004A139C
 0001:000A03B8 _Unit28.TCustomButton.SetElevationRequired_004A13B8
 0001:000A03F0 _Unit28.TCustomButton.SetElevationRequiredState_004A13F0
 0001:000A0430 _Unit28.TCustomButton.SetHotImageIndex_004A1430
 0001:000A0460 _Unit28.TCustomButton.SetImageAlignment_004A1460
 0001:000A049C _Unit28.TCustomButton.SetImageIndex_004A149C
 0001:000A0504 _Unit28.TCustomButton.SetImageList_004A1504
 0001:000A05A0 _Unit28.TCustomButton.SetImageMargins_004A15A0
 0001:000A05AC _Unit28.TCustomButton.SetImages_004A15AC
 0001:000A05FC _Unit28.TCustomButton.SetPressedImageIndex_004A15FC
 0001:000A062C _Unit28.TCustomButton.SetSelectedImageIndex_004A162C
 0001:000A065C _Unit28.TCustomButton.SetStyle_004A165C
 0001:000A07BC _Unit28.TCustomButton.SetStylusHotImageIndex_004A17BC
 0001:000A07EC _Unit28.TCustomButton.CreateParams_004A17EC
 0001:000A0884 _Unit28.TCustomButton.CreateWnd_004A1884
 0001:000A08C4 _Unit28.TCustomButton.Destroy_004A18C4
 0001:000A092C _Unit28.TCustomButton.sub_004770F0_004A192C
 0001:000A0934 _Unit28.TCustomButton.UpdateCommandLinkHint_004A1934
 0001:000A0968 _Unit28.TCustomButton.ImageListChange_004A1968
 0001:000A0984 _Unit28.TCustomButton.ImageMarginsChange_004A1984
 0001:000A09BC _Unit28.TCustomButton.IsImageIndexStored_004A19BC
 0001:000A09DC _Unit28.TCustomButton.Loaded_004A19DC
 0001:000A0A0C _Unit28.TCustomButton.Notification_004A1A0C
 0001:000A0A54 _Unit28.TCustomButton.CNCommand_004A1A54
 0001:000A0A6C _Unit28.TCustomButton.CMDialogKey_004A1A6C
 0001:000A0ADC _Unit28.TCustomButton.CMDialogChar_004A1ADC
 0001:000A0B6C _Unit28.TCustomButton.CMFocusChanged_004A1B6C
 0001:000A0BC0 _Unit28.TCustomButton.WMEraseBkgnd_004A1BC0
 0001:000A0BEC _Unit28.TCustomButton.CNCtlColorBtn_004A1BEC
 0001:000A0C54 _Unit28.TCustomButton.CNNotify_004A1C54
 0001:000A0F00 _Unit28.zcalloc_004A1F00
 0001:000A0F0C _Unit28.zcfree_004A1F0C
 0001:000A0F14 _Unit28._memset_004A1F14
 0001:000A0F28 _Unit28._memcpy_004A1F28
 0001:000A0F3C _Unit28.InflateInit_004A1F3C
 0001:000A0F58 _Unit28.ZCompressCheck_004A1F58
 0001:000A0FC4 _Unit28.ZDecompressStream_004A1FC4
 0001:000A10F0 _Unit28.adler32_004A20F0
 0001:000A13F8 _Unit28.deflateInit__004A23F8
 0001:000A1414 _Unit28.DeflateInit2__004A2414
 0001:000A175C _Unit28.sub_004A275C_004A275C
 0001:000A19A4 _Unit28.sub_004A29A4_004A29A4
 0001:000A19CC _Unit28.sub_004A29CC_004A29CC
 0001:000A1A20 _Unit28.deflate_004A2A20
 0001:000A2294 _Unit28.deflateEnd_004A3294
 0001:000A2548 _Unit28.sub_004A3548_004A3548
 0001:000A3180 _Unit28.@inflate_fast_004A4180
 0001:000A367C _Unit28.inflateReset_004A467C
 0001:000A3738 _Unit28.inflateInit2__004A4738
 0001:000A380C _Unit28.inflateInit__004A480C
 0001:000A381C _Unit28.sub_004A481C_004A481C
 0001:000A383C _Unit28.sub_004A483C_004A483C
 0001:000A3940 _Unit28.inflate_004A4940
 0001:000A4E0C _Unit28.inflateEnd_004A5E0C
 0001:000A51A8 _Unit28.@inflate_table_004A61A8
 0001:000A5618 _Unit28.sub_004A6618_004A6618
 0001:000A561C _Unit28.@_tr_init_004A661C
 0001:000A568C _Unit28.sub_004A668C_004A668C
 0001:000A56F8 _Unit28.sub_004A66F8_004A66F8
 0001:000A57EC _Unit28.sub_004A67EC_004A67EC
 0001:000A59EC _Unit28.sub_004A69EC_004A69EC
 0001:000A5A5C _Unit28.sub_004A6A5C_004A6A5C
 0001:000A5C6C _Unit28.sub_004A6C6C_004A6C6C
 0001:000A5D78 _Unit28.sub_004A6D78_004A6D78
 0001:000A6400 _Unit28.sub_004A7400_004A7400
 0001:000A6464 _Unit28.sub_004A7464_004A7464
 0001:000A675C _Unit28.@_tr_stored_block_004A775C
 0001:000A6818 _Unit28.@_tr_align_004A7818
 0001:000A6AE4 _Unit28.@_tr_flush_block_004A7AE4
 0001:000A6DBC _Unit28.sub_004A7DBC_004A7DBC
 0001:000A727C _Unit28.sub_004A827C_004A827C
 0001:000A72C8 _Unit28.sub_004A82C8_004A82C8
 0001:000A72E4 _Unit28.sub_004A82E4_004A82E4
 0001:000A7358 _Unit28.sub_004A8358_004A8358
 0001:000A73C0 _Unit28.sub_004A83C0_004A83C0
 0001:000A745C _Unit28._DF_._004A845C
 0001:000A7510 _Unit28.@compressBound_004A8510
 0001:000A7524 _Unit28._DF_._004A8524
 0001:000A752C _Unit28.@crc32_004A852C
 0001:000A764C _Unit28.sub_004A864C_004A864C
 0001:000A7900 _Unit28.sub_004A8900_004A8900
 0001:000A9470 _Unit28.Finalization_004AA470
 0001:000AB0B0 ExtCtrls.DoRect_004AC0B0
 0001:000AB174 ExtCtrls.Frame3D_004AC174
 0001:000AB1D4 ExtCtrls.TImage.Create_004AC1D4
 0001:000AB26C ExtCtrls.TImage.Destroy_004AC26C
 0001:000AB29C ExtCtrls.TImage.GetPalette_004AC29C
 0001:000AB2BC ExtCtrls.TImage.DestRect_004AC2BC
 0001:000AB3E8 ExtCtrls.DoBufferedPaint_004AC3E8
 0001:000AB494 ExtCtrls.TImage.Paint_004AC494
 0001:000AB598 ExtCtrls.TImage.DoPaletteChange_004AC598
 0001:000AB634 ExtCtrls.TImage.Progress_004AC634
 0001:000AB6A0 ExtCtrls.TImage.GetCanvas_004AC6A0
 0001:000AB7A0 ExtCtrls.TImage.SetCenter_004AC7A0
 0001:000AB7B8 ExtCtrls.TImage.SetPicture_004AC7B8
 0001:000AB7C8 ExtCtrls.TImage.SetStretch_004AC7C8
 0001:000AB7E0 ExtCtrls.TImage.SetTransparent_004AC7E0
 0001:000AB7F8 ExtCtrls.TImage.SetProportional_004AC7F8
 0001:000AB810 ExtCtrls.TImage.PictureChanged_004AC810
 0001:000AB93C ExtCtrls.TImage.CanAutoSize_004AC93C
 0001:000AB9A4 ExtCtrls.TTimer.Create_004AC9A4
 0001:000AB9F4 ExtCtrls.TTimer.Destroy_004AC9F4
 0001:000ABA38 ExtCtrls.TTimer.WndProc_004ACA38
 0001:000ABAAC ExtCtrls.TTimer.UpdateTimer_004ACAAC
 0001:000ABB38 ExtCtrls.TTimer.SetEnabled_004ACB38
 0001:000ABB48 ExtCtrls.TTimer.SetInterval_004ACB48
 0001:000ABB58 ExtCtrls.TTimer.SetOnTimer_004ACB58
 0001:000ABB70 ExtCtrls.TTimer.Timer_004ACB70
 0001:000ABB84 ExtCtrls.TCustomPanel.Create_004ACB84
 0001:000ABC64 ExtCtrls.TCustomPanel.CreateParams_004ACC64
 0001:000ABCB8 ExtCtrls.TCustomPanel.CMBorderChanged_004ACCB8
 0001:000ABCD0 ExtCtrls.TCustomPanel.CMTextChanged_004ACCD0
 0001:000ABCDC ExtCtrls.TCustomPanel.CMCtl3DChanged_004ACCDC
 0001:000ABD08 ExtCtrls.TCustomPanel.CMIsToolControl_004ACD08
 0001:000ABD1C ExtCtrls.TCustomPanel.WMWindowPosChanged_004ACD1C
 0001:000ABE2C ExtCtrls.AdjustColors_004ACE2C
 0001:000ABE64 ExtCtrls.TCustomPanel.Paint_004ACE64
 0001:000AC01C ExtCtrls.TCustomPanel.SetAlignment_004AD01C
 0001:000AC034 ExtCtrls.TCustomPanel.SetBevelInner_004AD034
 0001:000AC050 ExtCtrls.TCustomPanel.SetBevelOuter_004AD050
 0001:000AC06C ExtCtrls.TCustomPanel.SetBevelWidth_004AD06C
 0001:000AC088 ExtCtrls.TCustomPanel.SetBorderWidth_004AD088
 0001:000AC0A4 ExtCtrls.TCustomPanel.SetBorderStyle_004AD0A4
 0001:000AC0B8 ExtCtrls.TCustomPanel.SetShowCaption_004AD0B8
 0001:000AC0D8 ExtCtrls.TCustomPanel.GetControlsAlignment_004AD0D8
 0001:000AC0E0 ExtCtrls.TCustomPanel.AdjustClientRect_004AD0E0
 0001:000AC13C ExtCtrls.TCustomPanel.CMDockClient_004AD13C
 0001:000AC278 ExtCtrls.TCustomPanel.CanAutoSize_004AD278
 0001:000AC2A4 ExtCtrls.TCustomPanel.SetParentBackground_004AD2A4
 0001:000AC2E0 ExtCtrls.TCustomPanel.SetVerticalAlignment_004AD2E0
 0001:000AC2F8 ExtCtrls.Finalization_004AD2F8
 0001:000B0A68 ComCtrls.InitCommonControl_004B1A68
 0001:000B0A94 ComCtrls.GetComCtlVersion_004B1A94
 0001:000B0ADC ComCtrls.SetComCtlStyle_004B1ADC
 0001:000B0B24 ComCtrls.DefaultTreeViewSort_004B1B24
 0001:000B0B90 ComCtrls.TabControlError_004B1B90
 0001:000B0BA8 ComCtrls.TTreeNode.Create_004B1BA8
 0001:000B0BF8 ComCtrls.TTreeNode.Destroy_004B1BF8
 0001:000B0CFC ComCtrls.TTreeNode.GetHandle_004B1CFC
 0001:000B0D10 ComCtrls.TTreeNode.GetTreeView_004B1D10
 0001:000B0D58 ComCtrls.TTreeNode.SetEnabled_004B1D58
 0001:000B0DAC ComCtrls.TTreeNode.SetText_004B1DAC
 0001:000B0E50 ComCtrls.TTreeNode.SetData_004B1E50
 0001:000B0EC0 ComCtrls.TTreeNode.GetState_004B1EC0
 0001:000B0F5C ComCtrls.TTreeNode.SetState_004B1F5C
 0001:000B1000 ComCtrls.TTreeNode.SetImageIndex_004B2000
 0001:000B105C ComCtrls.TTreeNode.SetExpandedImageIndex_004B205C
 0001:000B10A0 ComCtrls.TTreeNode.SetSelectedIndex_004B20A0
 0001:000B10FC ComCtrls.TTreeNode.SetOverlayIndex_004B20FC
 0001:000B114C ComCtrls.TTreeNode.SetStateIndex_004B214C
 0001:000B11A0 ComCtrls.TTreeNode.CompareCount_004B21A0
 0001:000B11D8 ComCtrls.TTreeNode.DoCanExpand_004B21D8
 0001:000B122C ComCtrls.TTreeNode.DoExpand_004B222C
 0001:000B1368 ComCtrls.TTreeNode.Expand_004B2368
 0001:000B1374 ComCtrls.TTreeNode.Collapse_004B2374
 0001:000B1380 ComCtrls.TTreeNode.GetExpanded_004B2380
 0001:000B1388 ComCtrls.TTreeNode.SetExpanded_004B2388
 0001:000B13B4 ComCtrls.TTreeNode.GetSelected_004B23B4
 0001:000B13BC ComCtrls.TTreeNode.SetSelected_004B23BC
 0001:000B145C ComCtrls.TTreeNode.SetSelectedBit_004B245C
 0001:000B1468 ComCtrls.TTreeNode.GetCut_004B2468
 0001:000B1470 ComCtrls.TTreeNode.SetCut_004B2470
 0001:000B1490 ComCtrls.TTreeNode.GetDropTarget_004B2490
 0001:000B1498 ComCtrls.TTreeNode.SetDropTarget_004B2498
 0001:000B14E0 ComCtrls.TTreeNode.GetChildren_004B24E0
 0001:000B1528 ComCtrls.TTreeNode.SetFocused_004B2528
 0001:000B1548 ComCtrls.TTreeNode.GetFocused_004B2548
 0001:000B1550 ComCtrls.TTreeNode.SetChildren_004B2550
 0001:000B158C ComCtrls.TTreeNode.GetParent_004B258C
 0001:000B15C8 ComCtrls.TTreeNode.getNextSibling_004B25C8
 0001:000B1604 ComCtrls.TTreeNode.getPrevSibling_004B2604
 0001:000B1640 ComCtrls.TTreeNode.GetNextVisible_004B2640
 0001:000B1684 ComCtrls.TTreeNode.GetPrevVisible_004B2684
 0001:000B16C8 ComCtrls.TTreeNode.GetNextChild_004B26C8
 0001:000B16D8 ComCtrls.TTreeNode.getFirstChild_004B26D8
 0001:000B1714 ComCtrls.TTreeNode.GetLastChild_004B2714
 0001:000B1734 ComCtrls.TTreeNode.GetNext_004B2734
 0001:000B17B4 ComCtrls.TTreeNode.GetPrev_004B27B4
 0001:000B17E4 ComCtrls.TTreeNode.GetAbsoluteIndex_004B27E4
 0001:000B1820 ComCtrls.TTreeNode.GetIndex_004B2820
 0001:000B1840 ComCtrls.TTreeNode.GetItem_004B2840
 0001:000B18E0 ComCtrls.TTreeNode.IndexOf_004B28E0
 0001:000B191C ComCtrls.TTreeNode.GetCount_004B291C
 0001:000B1AD8 ComCtrls.TTreeNode.MoveTo_004B2AD8
 0001:000B1C64 ComCtrls.TTreeNode.IsFirstNode_004B2C64
 0001:000B1C8C ComCtrls.TTreeNode.GetLevel_004B2C8C
 0001:000B1CB0 ComCtrls.TTreeNode.IsNodeVisible_004B2CB0
 0001:000B1CE0 ComCtrls.TTreeNode.DisplayRect_004B2CE0
 0001:000B1D1C ComCtrls.TTreeNode.AlphaSort_004B2D1C
 0001:000B1DD4 ComCtrls.TTreeNode.Delete_004B2DD4
 0001:000B1DE0 ComCtrls.TTreeNode.Assign_004B2DE0
 0001:000B1E94 ComCtrls.TTreeNode.IsEqual_004B2E94
 0001:000B233C ComCtrls.TTreeNodesEnumerator.GetCurrent_004B333C
 0001:000B2348 ComCtrls.TListItems.Create_004B3348
 0001:000B2384 ComCtrls.TTreeNodes.Destroy_004B3384
 0001:000B23B0 ComCtrls.TTreeNodes.GetCount_004B33B0
 0001:000B23DC ComCtrls.TTreeNodes.GetHandle_004B33DC
 0001:000B23E8 ComCtrls.TTreeNodes.Delete_004B33E8
 0001:000B23F0 ComCtrls.TTreeNodes.Clear_004B33F0
 0001:000B2484 ComCtrls.TTreeNodes.AddChild_004B3484
 0001:000B2494 ComCtrls.TTreeNodes.Add_004B3494
 0001:000B24A4 ComCtrls.TTreeNodes.AddNode_004B34A4
 0001:000B2650 ComCtrls.TTreeNodes.Repaint_004B3650
 0001:000B26A4 ComCtrls.TTreeNodes.AddedNode_004B36A4
 0001:000B26C4 ComCtrls.TTreeNodes.CreateItem_004B36C4
 0001:000B26E8 ComCtrls.TTreeNodes.AddItem_004B36E8
 0001:000B2768 ComCtrls.TTreeNodes.GetFirstNode_004B3768
 0001:000B2784 ComCtrls.TListItems.GetItem_004B3784
 0001:000B286C ComCtrls.TTreeNodes.GetNode_004B386C
 0001:000B28A4 ComCtrls.TTreeNodes.BeginUpdate_004B38A4
 0001:000B28BC ComCtrls.TTreeNodes.SetUpdateState_004B38BC
 0001:000B28F0 ComCtrls.TTreeNodes.EndUpdate_004B38F0
 0001:000B2904 ComCtrls.TTreeNodes.Assign_004B3904
 0001:000B2998 ComCtrls.WriteNodes_004B3998
 0001:000B2A28 ComCtrls.TTreeNodes.DefineProperties_004B3A28
 0001:000B2AC4 ComCtrls.TTreeNodes.ReadData_004B3AC4
 0001:000B2B8C ComCtrls.TTreeNodes.ReadNodeData_004B3B8C
 0001:000B2C7C ComCtrls.TTreeNodes.WriteNodeData_004B3C7C
 0001:000B2CF4 ComCtrls.TTreeNodes.ReadExpandedState_004B3CF4
 0001:000B2D70 ComCtrls.TTreeNodes.WriteExpandedState_004B3D70
 0001:000B2DCC ComCtrls.TTreeNodes.ClearCache_004B3DCC
 0001:000B2DD4 ComCtrls.TCustomTreeView.Create_004B3DD4
 0001:000B2FA0 ComCtrls.TCustomTreeView.Destroy_004B3FA0
 0001:000B3050 ComCtrls.TCustomTreeView.CreateParams_004B4050
 0001:000B317C ComCtrls.TCustomTreeView.CreateWnd_004B417C
 0001:000B3434 ComCtrls.TCustomTreeView.DestroyWnd_004B4434
 0001:000B361C ComCtrls.TCustomTreeView.EditWndProc_004B461C
 0001:000B37B4 ComCtrls.TCustomTreeView.CMColorChanged_004B47B4
 0001:000B37F0 ComCtrls.TCustomTreeView.CMCtl3DChanged_004B47F0
 0001:000B380C ComCtrls.TCustomTreeView.CMFontChanged_004B480C
 0001:000B384C ComCtrls.TAnimate.CMColorChanged_004B484C
 0001:000B3868 ComCtrls.TCustomTreeView.AlphaSort_004B4868
 0001:000B3874 ComCtrls.TCustomTreeView.CustomSort_004B4874
 0001:000B3930 ComCtrls.TCustomTreeView.SetAutoExpand_004B4930
 0001:000B394C ComCtrls.TCustomTreeView.SetHotTrack_004B494C
 0001:000B3968 ComCtrls.TCustomTreeView.SetRowSelect_004B4968
 0001:000B3984 ComCtrls.TCustomTreeView.SetToolTips_004B4984
 0001:000B39A4 ComCtrls.TCustomTreeView.SetSortType_004B49A4
 0001:000B39E0 ComCtrls.TCustomTreeView.SetBorderStyle_004B49E0
 0001:000B39F4 ComCtrls.TCustomTreeView.SetDragMode_004B49F4
 0001:000B3A24 ComCtrls.TCustomTreeView.SetButtonStyle_004B4A24
 0001:000B3A40 ComCtrls.TCustomTreeView.SetLineStyle_004B4A40
 0001:000B3A5C ComCtrls.TCustomTreeView.SetRootStyle_004B4A5C
 0001:000B3A78 ComCtrls.TCustomTreeView.SetReadOnly_004B4A78
 0001:000B3A98 ComCtrls.TCustomTreeView.SetHideSelection_004B4A98
 0001:000B3AC8 ComCtrls.TCustomTreeView.GetNodeAt_004B4AC8
 0001:000B3B0C ComCtrls.TCustomTreeView.GetHitTestInfoAt_004B4B0C
 0001:000B3BC8 ComCtrls.TCustomTreeView.SetTreeNodes_004B4BC8
 0001:000B3BD4 ComCtrls.TCustomTreeView.SetIndent_004B4BD4
 0001:000B3C00 ComCtrls.TCustomTreeView.GetIndent_004B4C00
 0001:000B3C18 ComCtrls.TCustomTreeView.FullExpand_004B4C18
 0001:000B3C44 ComCtrls.TCustomTreeView.Loaded_004B4C44
 0001:000B3C60 ComCtrls.TCustomTreeView.GetTopItem_004B4C60
 0001:000B3C90 ComCtrls.TCustomTreeView.SetTopItem_004B4C90
 0001:000B3CB8 ComCtrls.TCustomTreeView.OnChangeTimer_004B4CB8
 0001:000B3CE0 ComCtrls.TCustomTreeView.GetSelected_004B4CE0
 0001:000B3D28 ComCtrls.TCustomTreeView.SetSelected_004B4D28
 0001:000B3D4C ComCtrls.TCustomTreeView.SetChangeDelay_004B4D4C
 0001:000B3D58 ComCtrls.TCustomTreeView.GetChangeDelay_004B4D58
 0001:000B3D64 ComCtrls.TCustomTreeView.GetDropTarget_004B4D64
 0001:000B3D9C ComCtrls.TCustomTreeView.SetDropTarget_004B4D9C
 0001:000B3DD0 ComCtrls.TCustomTreeView.GetNodeFromItem_004B4DD0
 0001:000B3DF8 ComCtrls.TCustomTreeView.CNNotify_004B4DF8
 0001:000B495C ComCtrls.TCustomTreeView.GetDragImages_004B595C
 0001:000B497C ComCtrls.TCustomTreeView.WndProc_004B597C
 0001:000B4A10 ComCtrls.TCustomTreeView.DoStartDrag_004B5A10
 0001:000B4AA8 ComCtrls.TCustomTreeView.DoEndDrag_004B5AA8
 0001:000B4AC8 ComCtrls.TCustomTreeView.CMDrag_004B5AC8
 0001:000B4B50 ComCtrls.TCustomTreeView.DoDragOver_004B5B50
 0001:000B4BAC ComCtrls.TCustomTreeView.GetImageIndex_004B5BAC
 0001:000B4BCC ComCtrls.TCustomTreeView.GetSelectedIndex_004B5BCC
 0001:000B4BEC ComCtrls.TCustomTreeView.CanChange_004B5BEC
 0001:000B4C20 ComCtrls.TCustomTreeView.Change_004B5C20
 0001:000B4C78 ComCtrls.TCustomTreeView.Added_004B5C78
 0001:000B4CA0 ComCtrls.TCustomTreeView.Delete_004B5CA0
 0001:000B4CC8 ComCtrls.TCustomTreeView.Expand_004B5CC8
 0001:000B4CF0 ComCtrls.TCustomTreeView.CanExpand_004B5CF0
 0001:000B4D24 ComCtrls.TCustomTreeView.Collapse_004B5D24
 0001:000B4D44 ComCtrls.TCustomTreeView.CanCollapse_004B5D44
 0001:000B4D70 ComCtrls.TCustomTreeView.CanEdit_004B5D70
 0001:000B4D9C ComCtrls.TCustomTreeView.Edit_004B5D9C
 0001:000B4E4C ComCtrls.TCustomTreeView.CreateNode_004B5E4C
 0001:000B4E84 ComCtrls.TCustomListView.CreateListItems_004B5E84
 0001:000B4E94 ComCtrls.TCustomTreeView.SetImageList_004B5E94
 0001:000B4EC4 ComCtrls.TCustomTreeView.ImageListChange_004B5EC4
 0001:000B4F20 ComCtrls.TCustomTreeView.Notification_004B5F20
 0001:000B4F60 ComCtrls.TCustomTreeView.SetImages_004B5F60
 0001:000B4FC8 ComCtrls.TCustomTreeView.SetStateImages_004B5FC8
 0001:000B5034 ComCtrls.TCustomTreeView.WMContextMenu_004B6034
 0001:000B50FC ComCtrls.TCustomTreeView.WMCtlColorEdit_004B60FC
 0001:000B5150 ComCtrls.TCustomTreeView.WMLButtonDown_004B6150
 0001:000B526C ComCtrls.TCustomTreeView.WMNotify_004B626C
 0001:000B5490 ComCtrls.TCustomTreeView.CanvasChanged_004B6490
 0001:000B5498 ComCtrls.TCustomTreeView.IsCustomDrawn_004B6498
 0001:000B5538 ComCtrls.TCustomTreeView.CustomDraw_004B6538
 0001:000B5590 ComCtrls.TCustomTreeView.CustomDrawItem_004B6590
 0001:000B560C ComCtrls.TCustomTreeView.ClearSelection_004B660C
 0001:000B5644 ComCtrls.TCustomTreeView.ControlSelectNode_004B6644
 0001:000B56A8 ComCtrls.TCustomTreeView.ControlShiftSelectNode_004B66A8
 0001:000B56C4 ComCtrls.TCustomTreeView.DoEnter_004B66C4
 0001:000B56D8 ComCtrls.TCustomTreeView.DoExit_004B66D8
 0001:000B56EC ComCtrls.TCustomTreeView.FinishSelection_004B66EC
 0001:000B58D4 ComCtrls.TCustomTreeView.GetSelectionCount_004B68D4
 0001:000B58E0 ComCtrls.TCustomTreeView.GetSelection_004B68E0
 0001:000B58F8 ComCtrls.TCustomTreeView.InvalidateSelectionsRects_004B68F8
 0001:000B5944 ComCtrls.TCustomTreeView.MouseDown_004B6944
 0001:000B59B4 ComCtrls.TCustomTreeView.NodeDeselect_004B69B4
 0001:000B59DC ComCtrls.TCustomTreeView.NodeSelect_004B69DC
 0001:000B5A04 ComCtrls.TCustomTreeView.Select_004B6A04
 0001:000B5A2C ComCtrls.TCustomTreeView.SelectNode_004B6A2C
 0001:000B5AA4 ComCtrls.TCustomTreeView.SetMultiSelect_004B6AA4
 0001:000B5AD8 ComCtrls.TCustomTreeView.SetMultiSelectStyle_004B6AD8
 0001:000B5B00 ComCtrls.TCustomTreeView.ShiftSelectNode_004B6B00
 0001:000B5CE0 ComCtrls.TCustomTreeView.Subselect_004B6CE0
 0001:000B5D7C ComCtrls.TCustomTreeView.ValidateSelection_004B6D7C
 0001:000B5E28 ComCtrls.TCustomTreeView.Select_004B6E28
 0001:000B5EA0 ComCtrls.TCustomTreeView.Select_004B6EA0
 0001:000B602C ComCtrls.TCustomTreeView.Deselect_004B702C
 0001:000B6050 ComCtrls.NodeInList_004B7050
 0001:000B6080 ComCtrls.SiblingNotInList_004B7080
 0001:000B60E8 ComCtrls.TCustomTreeView.FindNextToSelect_004B70E8
 0001:000B6174 ComCtrls.TCustomTreeView.GetSelections_004B7174
 0001:000B61B8 ComCtrls.TConversion.Create_004B71B8
 0001:000B61F0 ComCtrls.TConversion.ConvertReadStream_004B71F0
 0001:000B624C ComCtrls.TConversion.ConvertWriteStream_004B724C
 0001:000B62A8 ComCtrls.FreeConversionFormatList_004B72A8
 0001:000B6308 ComCtrls.Finalization_004B7308
 0001:000B6388 _Unit31.WStrLCopy_004B7388
 0001:000B63B0 _Unit31.WStrPLCopy_004B73B0
 0001:000B84E8 _Unit31.ApplicationMainHandle_004B94E8
 0001:000B8520 _Unit31.TCommonDialog.Create_004B9520
 0001:000B8568 _Unit31.TCommonDialog.Destroy_004B9568
 0001:000B85B8 _Unit31.TCommonDialog.Execute_004B95B8
 0001:000B85F4 _Unit31.sub_004B95F4_004B95F4
 0001:000B85F8 _Unit31.TCommonDialog.MessageHook_004B95F8
 0001:000B8620 _Unit31.TCommonDialog.DefaultHandler_004B9620
 0001:000B8658 _Unit31.TCommonDialog.MainWndProc_004B9658
 0001:000B86A4 _Unit31.TCommonDialog.WndProc_004B96A4
 0001:000B86B0 _Unit31.TCommonDialog.WMDestroy_004B96B0
 0001:000B86C8 _Unit31.TCommonDialog.WMInitDialog_004B96C8
 0001:000B86E0 _Unit31.TCommonDialog.WMNCDestroy_004B96E0
 0001:000B86F4 _Unit31.TCommonDialog.TaskModalDialog_004B96F4
 0001:000B87B8 _Unit31.TCommonDialog.DoClose_004B97B8
 0001:000B87CC _Unit31.TCommonDialog.DoShow_004B97CC
 0001:000B87E0 _Unit31.AllocCoTaskMemStr_004B97E0
 0001:000B8854 _Unit31.TTaskDialogProgressBar.Create_004B9854
 0001:000B88AC _Unit31.TTaskDialogProgressBar.SetMax_004B98AC
 0001:000B8968 _Unit31.TTaskDialogProgressBar.SetMin_004B9968
 0001:000B8A24 _Unit31.TTaskDialogProgressBar.SetPosition_004B9A24
 0001:000B8A94 _Unit31.TTaskDialogProgressBar.SetState_004B9A94
 0001:000B8AC4 _Unit31.TTaskDialogProgressBar.SetMarqueeSpeed_004B9AC4
 0001:000B8AF0 _Unit31.TTaskDialogProgressBar.Initialize_004B9AF0
 0001:000B8B88 _Unit31.TTaskDialogBaseButtonItem.Create_004B9B88
 0001:000B8BE8 _Unit31.TTaskDialogBaseButtonItem.Destroy_004B9BE8
 0001:000B8C1C _Unit31.TTaskDialogBaseButtonItem.DoButtonClick_004B9C1C
 0001:000B8C38 _Unit31.TTaskDialogBaseButtonItem.DoSetEnabled_004B9C38
 0001:000B8C58 _Unit31.TTaskDialogBaseButtonItem.GetButtonText_004B9C58
 0001:000B8C6C _Unit31.TTaskDialogBaseButtonItem.GetDefault_004B9C6C
 0001:000B8C78 _Unit31.TTaskDialogBaseButtonItem.GetDisplayName_004B9C78
 0001:000B8C9C _Unit31.TTaskDialogBaseButtonItem.GetTextWStr_004B9C9C
 0001:000B8D00 _Unit31.TTaskDialogBaseButtonItem.SetCaption_004B9D00
 0001:000B8D3C _Unit31.TTaskDialogBaseButtonItem.SetDefault_004B9D3C
 0001:000B8D58 _Unit31.TTaskDialogBaseButtonItem.SetEnabled_004B9D58
 0001:000B8D68 _Unit31.TTaskDialogBaseButtonItem.SetInitialState_004B9D68
 0001:000B8D74 _Unit31.TTaskDialogButtonItem.Create_004B9D74
 0001:000B8E24 _Unit31.TTaskDialogButtonItem.DoSetElevationRequired_004B9E24
 0001:000B8E44 _Unit31.TTaskDialogButtonItem.GetButtonText_004B9E44
 0001:000B8E98 _Unit31.TTaskDialogButtonItem.SetElevationRequired_004B9E98
 0001:000B8EA8 _Unit31.TTaskDialogButtonItem.SetInitialState_004B9EA8
 0001:000B8EC4 _Unit31.TTaskDialogRadioButtonItem.Create_004B9EC4
 0001:000B8F70 _Unit31.TTaskDialogRadioButtonItem.DoButtonClick_004B9F70
 0001:000B8F8C _Unit31.TTaskDialogRadioButtonItem.DoSetEnabled_004B9F8C
 0001:000B8FAC _Unit31.TFavoriteLinkItemsEnumerator.Create_004B9FAC
 0001:000B8FF0 _Unit31.TTaskDialogButtonsEnumerator.GetCurrent_004B9FF0
 0001:000B8FFC _Unit31.TTaskDialogButtonsEnumerator.MoveNext_004B9FFC
 0001:000B9018 _Unit31.TTaskDialogButtons.Destroy_004BA018
 0001:000B9040 _Unit31.TTaskDialogButtons.Add_004BA040
 0001:000B904C _Unit31.TTaskDialogButtons.Buttons_004BA04C
 0001:000B90B4 _Unit31.TTaskDialogButtons.FindButton_004BA0B4
 0001:000B9130 _Unit31.TTaskDialogButtons.GetEnumerator_004BA130
 0001:000B9140 _Unit31.TFavoriteLinkItems.GetItem_004BA140
 0001:000B9154 _Unit31.TTaskDialogButtons.SetDefaultButton_004BA154
 0001:000B9160 _Unit31.TTaskDialogButtons.SetInitialState_004BA160
 0001:000B91C4 _Unit31.TCustomTaskDialog.Create_004BA1C4
 0001:000B928C _Unit31.TCustomTaskDialog.Destroy_004BA28C
 0001:000B92DC _Unit31.TCustomTaskDialog.CallbackProc_004BA2DC
 0001:000B9474 _Unit31.TaskDialogCallbackProc_004BA474
 0001:000B949C _Unit31.TCustomTaskDialog.DoExecute_004BA49C
 0001:000B98C0 _Unit31.TCustomTaskDialog.DoOnButtonClicked_004BA8C0
 0001:000B98F8 _Unit31.TCustomTaskDialog.DoOnDialogCreated_004BA8F8
 0001:000B9918 _Unit31.TCustomFileDialog.DoOnTypeChange_004BA918
 0001:000B9938 _Unit31.TCustomFileDialog.DoOnSelectionChange_004BA938
 0001:000B9958 _Unit31.TCustomTaskDialog.DoOnExpandButtonClicked_004BA958
 0001:000B9978 _Unit31.TCustomTaskDialog.DoOnHelp_004BA978
 0001:000B99E0 _Unit31.TCustomTaskDialog.DoOnHyperlinkClicked_004BA9E0
 0001:000B9A10 _Unit31.TCustomTaskDialog.DoOnNavigated_004BAA10
 0001:000B9A30 _Unit31.TCustomTaskDialog.DoOnRadioButtonClicked_004BAA30
 0001:000B9A64 _Unit31.TCustomTaskDialog.DoOnTimer_004BAA64
 0001:000B9A84 _Unit31.TCustomTaskDialog.DoOnVerificationClicked_004BAA84
 0001:000B9AB4 _Unit31.TCustomTaskDialog.Execute_004BAAB4
 0001:000B9B04 _Unit31.TCustomTaskDialog.Execute_004BAB04
 0001:000B9B1C _Unit31.TCustomTaskDialog.SetButtons_004BAB1C
 0001:000B9B34 _Unit31.TCustomTaskDialog.SetCustomFooterIcon_004BAB34
 0001:000B9B48 _Unit31.TCustomTaskDialog.SetCustomMainIcon_004BAB48
 0001:000B9B5C _Unit31.TCustomTaskDialog.SetExpandedText_004BAB5C
 0001:000B9B98 _Unit31.TCustomTaskDialog.SetFlags_004BAB98
 0001:000B9BF4 _Unit31.TCustomTaskDialog.SetFooterIcon_004BABF4
 0001:000B9C1C _Unit31.TCustomTaskDialog.SetFooterText_004BAC1C
 0001:000B9C58 _Unit31.TCustomTaskDialog.SetMainIcon_004BAC58
 0001:000B9C80 _Unit31.TCustomTaskDialog.SetRadioButtons_004BAC80
 0001:000B9C98 _Unit31.TCustomTaskDialog.SetText_004BAC98
 0001:000B9CD8 _Unit31.TCustomTaskDialog.SetTitle_004BACD8
 0001:000B9D1C _Unit31.TCustomTaskDialog.ShowHelpException_004BAD1C
 0001:000B9E18 _Unit31.GetAveCharSize_004BAE18
 0001:000BA08C _Unit31.TMessageForm.CreateNew_004BB08C
 0001:000BA0E0 _Unit31.TMessageForm.HelpButtonClick_004BB0E0
 0001:000BA0F8 _Unit31.TMessageForm.CustomKeyDown_004BB0F8
 0001:000BA168 _Unit31.TMessageForm.WriteToClipBoard_004BB168
 0001:000BA2B8 _Unit31.TMessageForm.GetFormText_004BB2B8
 0001:000BA61C _Unit31.CreateMessageDialog_004BB61C
 0001:000BABF8 _Unit31.CreateMessageDialog_004BBBF8
 0001:000BAC20 _Unit31.DoMessageDlgPosHelp_004BBC20
 0001:000BACBC _Unit31.MessageDlgPosHelp_004BBCBC
 0001:000BAD38 _Unit31.ShowMessage_004BBD38
 0001:000BAD44 _Unit31.ShowMessagePos_004BBD44
 0001:000BAF40 _Unit31.TTaskMessageDialog.DoOnButtonClicked_004BBF40
 0001:000BAF54 _Unit31.TTaskMessageDialog.DoOnDialogCreated_004BBF54
 0001:000BAFF8 _Unit31.TTaskMessageDialog.DoOnHelp_004BBFF8
 0001:000BB0F0 _Unit31.TTaskMessageDialog.Execute_004BC0F0
 0001:000BB0FC _Unit31.DoTaskMessageDlgPosHelp_004BC0FC
 0001:000BB2E8 _Unit31.DoTaskMessageDlgPosHelp_004BC2E8
 0001:000BB334 _Unit31.InitGlobals_004BC334
 0001:000BB4C8 _Unit31.Finalization_004BC4C8
 0001:000BBA30 Clipbrd.TClipboard.Clear_004BCA30
 0001:000BBA74 Clipbrd.TClipboard.Adding_004BCA74
 0001:000BBA90 Clipbrd.TClipboard.Close_004BCA90
 0001:000BBABC Clipbrd.TClipboard.Open_004BCABC
 0001:000BBB70 Clipbrd.TClipboard.WndProc_004BCB70
 0001:000BBB90 Clipbrd.TClipboard.SetBuffer_004BCB90
 0001:000BBC90 Clipbrd.TClipboard.GetAsText_004BCC90
 0001:000BBD10 Clipbrd.TClipboard.SetAsText_004BCD10
 0001:000BBD44 Clipbrd.TClipboard.AssignToPicture_004BCD44
 0001:000BBDFC Clipbrd.TClipboard.AssignToBitmap_004BCDFC
 0001:000BBE68 Clipbrd.TClipboard.AssignToMetafile_004BCE68
 0001:000BBECC Clipbrd.TClipboard.AssignTo_004BCECC
 0001:000BBF34 Clipbrd.TClipboard.AssignPicture_004BCF34
 0001:000BBFB8 Clipbrd.TClipboard.AssignGraphic_004BCFB8
 0001:000BC03C Clipbrd.TClipboard.Assign_004BD03C
 0001:000BC090 Clipbrd.Clipboard_004BD090
 0001:000BC0B0 Clipbrd.TClipboard.MainWndProc_004BD0B0
 0001:000BC10C Clipbrd.TClipboard.Destroy_004BD10C
 0001:000BC140 Clipbrd.Finalization_004BD140
 0001:000BC2A4 _Unit33.THintAction.Create_004BD2A4
 0001:000C3294 _Unit33.IsIconic_004C4294
 0001:000C32B8 _Unit33.SaveFocusState_004C42B8
 0001:000C32C0 _Unit33.RestoreFocusState_004C42C0
 0001:000C32C8 _Unit33.ShowMDIClientEdge_004C42C8
 0001:000C3314 _Unit33.ChangeAppWindow_004C4314
 0001:000C33D8 _Unit33.DoneApplication_004C43D8
 0001:000C3414 _Unit33.DoDisableWindow_004C4414
 0001:000C3464 _Unit33.DisableTaskWindows_004C4464
 0001:000C3528 _Unit33.EnableTaskWindows_004C4528
 0001:000C3560 _Unit33.DoFindWindow_004C4560
 0001:000C35C4 _Unit33.FindTopMostWindow_004C45C4
 0001:000C3604 _Unit33.SendFocusMessage_004C4604
 0001:000C3624 _Unit33.CheckTaskWindow_004C4624
 0001:000C3644 _Unit33.CheckTaskWindowAll_004C4644
 0001:000C367C _Unit33.ForegroundTaskCheck_004C467C
 0001:000C36C0 _Unit33.FindGlobalComponent_004C46C0
 0001:000C3740 _Unit33.MakeObjectInstance_004C4740
 0001:000C3754 _Unit33.sub_004C4754_004C4754
 0001:000C375C _Unit33.AllocateHWnd_004C475C
 0001:000C3770 _Unit33.sub_004C4770_004C4770
 0001:000C3778 _Unit33.KeysToShiftState_004C4778
 0001:000C37CC _Unit33.KeyDataToShiftState_004C47CC
 0001:000C380C _Unit33.KeyboardStateToShiftState_004C480C
 0001:000C385C _Unit33.KeyboardStateToShiftState_004C485C
 0001:000C387C _Unit33.IsAccel_004C487C
 0001:000C38EC _Unit33.GetRealParentForm_004C48EC
 0001:000C3930 _Unit33.GetParentForm_004C4930
 0001:000C3940 _Unit33.ValidParentForm_004C4940
 0001:000C39C0 _Unit33.TControlScrollBar.Create_004C49C0
 0001:000C3A4C _Unit33.TControlScrollBar.IsStoredIncrement_004C4A4C
 0001:000C3A54 _Unit33.TControlScrollBar.Assign_004C4A54
 0001:000C3AA4 _Unit33.TControlScrollBar.ChangeBiDiPosition_004C4AA4
 0001:000C3ADC _Unit33.ProcessHorz_004C4ADC
 0001:000C3B4C _Unit33.ProcessVert_004C4B4C
 0001:000C3BB8 _Unit33.TControlScrollBar.CalcAutoRange_004C4BB8
 0001:000C3C64 _Unit33.TControlScrollBar.IsScrollBarVisible_004C4C64
 0001:000C3C9C _Unit33.ScrollBarVisible_004C4C9C
 0001:000C3CD0 _Unit33.Adjustment_004C4CD0
 0001:000C3D44 _Unit33.TControlScrollBar.ControlSize_004C4D44
 0001:000C3DC4 _Unit33.TControlScrollBar.GetScrollPos_004C4DC4
 0001:000C3DD4 _Unit33.TControlScrollBar.NeedsScrollBarVisible_004C4DD4
 0001:000C3DEC _Unit33.GetRealScrollPosition_004C4DEC
 0001:000C3E48 _Unit33.TControlScrollBar.ScrollMessage_004C4E48
 0001:000C4148 _Unit33.TControlScrollBar.SetButtonSize_004C5148
 0001:000C4188 _Unit33.TControlScrollBar.SetColor_004C5188
 0001:000C41A4 _Unit33.TControlScrollBar.SetParentColor_004C51A4
 0001:000C41BC _Unit33.TControlScrollBar.SetPosition_004C51BC
 0001:000C4278 _Unit33.TControlScrollBar.SetSize_004C5278
 0001:000C42B8 _Unit33.TControlScrollBar.SetStyle_004C52B8
 0001:000C42D0 _Unit33.TControlScrollBar.SetThumbSize_004C52D0
 0001:000C42E8 _Unit33.TControlScrollBar.DoSetRange_004C52E8
 0001:000C4300 _Unit33.TControlScrollBar.SetRange_004C5300
 0001:000C4314 _Unit33.TControlScrollBar.IsRangeStored_004C5314
 0001:000C4324 _Unit33.TControlScrollBar.SetVisible_004C5324
 0001:000C4330 _Unit33.UpdateScrollProperties_004C5330
 0001:000C4438 _Unit33.TControlScrollBar.Update_004C5438
 0001:000C454C _Unit33.TScrollingWinControl.Create_004C554C
 0001:000C45F0 _Unit33.TScrollingWinControl.Destroy_004C55F0
 0001:000C463C _Unit33.TScrollingWinControl.CreateParams_004C563C
 0001:000C464C _Unit33.TScrollingWinControl.CreateWnd_004C564C
 0001:000C468C _Unit33.TScrollingWinControl.AlignControls_004C568C
 0001:000C46AC _Unit33.TScrollingWinControl.AutoScrollEnabled_004C56AC
 0001:000C46CC _Unit33.TScrollingWinControl.DoFlipChildren_004C56CC
 0001:000C47E4 _Unit33.TScrollingWinControl.DoGesture_004C57E4
 0001:000C4858 _Unit33.TScrollingWinControl.DoGetGestureOptions_004C5858
 0001:000C488C _Unit33.TScrollingWinControl.CalcAutoRange_004C588C
 0001:000C48B0 _Unit33.TScrollingWinControl.SetAutoScroll_004C58B0
 0001:000C48EC _Unit33.TScrollingWinControl.SetHorzScrollBar_004C58EC
 0001:000C48FC _Unit33.TScrollingWinControl.SetVertScrollBar_004C58FC
 0001:000C490C _Unit33.TScrollingWinControl.UpdateScrollBars_004C590C
 0001:000C4A04 _Unit33.TScrollingWinControl.AutoScrollInView_004C5A04
 0001:000C4A20 _Unit33.TScrollingWinControl.IsTouchPropertyStored_004C5A20
 0001:000C4A6C _Unit33.TScrollingWinControl.ScrollInView_004C5A6C
 0001:000C4BC0 _Unit33.TScrollingWinControl.ScaleScrollBars_004C5BC0
 0001:000C4C64 _Unit33.TScrollingWinControl.ChangeScale_004C5C64
 0001:000C4C88 _Unit33.sub_004C5C88_004C5C88
 0001:000C4C8C _Unit33.TScrollingWinControl.WMSize_004C5C8C
 0001:000C4D7C _Unit33.TScrollingWinControl.WMHScroll_004C5D7C
 0001:000C4DA0 _Unit33.TScrollingWinControl.WMVScroll_004C5DA0
 0001:000C4DC4 _Unit33.TScrollingWinControl.AdjustClientRect_004C5DC4
 0001:000C4E44 _Unit33.TScrollingWinControl.CMBiDiModeChanged_004C5E44
 0001:000C4ED4 _Unit33.TCustomForm.Create_004C5ED4
 0001:000C5094 _Unit33.TCustomForm.AfterConstruction_004C6094
 0001:000C50CC _Unit33.TCustomForm.InitializeNewForm_004C60CC
 0001:000C5240 _Unit33.TCustomForm.CreateNew_004C6240
 0001:000C5288 _Unit33.TCustomForm.BeforeDestruction_004C6288
 0001:000C52FC _Unit33.TCustomForm.Destroy_004C62FC
 0001:000C5430 _Unit33.TCustomForm.DoCreate_004C6430
 0001:000C54AC _Unit33.TCustomForm.DoDestroy_004C64AC
 0001:000C550C _Unit33.TCustomForm.Loaded_004C650C
 0001:000C5590 _Unit33.TCustomForm.Notification_004C6590
 0001:000C56CC _Unit33.TCustomForm.ReadState_004C66CC
 0001:000C595C _Unit33.TCustomForm.DefineProperties_004C695C
 0001:000C5A44 _Unit33.TCustomForm.ReadIgnoreFontProperty_004C6A44
 0001:000C5A64 _Unit33.TCustomForm.ReadTextHeight_004C6A64
 0001:000C5A7C _Unit33.TCustomForm.WriteTextHeight_004C6A7C
 0001:000C5A98 _Unit33.TCustomForm.WritePixelsPerInch_004C6A98
 0001:000C5AB4 _Unit33.TCustomForm.GetLeft_004C6AB4
 0001:000C5AD4 _Unit33.TCustomForm.GetTop_004C6AD4
 0001:000C5AF0 _Unit33.TCustomForm.GetTextHeight_004C6AF0
 0001:000C5B18 _Unit33.TCustomForm.BeginAutoDrag_004C6B18
 0001:000C5B1C _Unit33.TCustomForm.ChangeScale_004C6B1C
 0001:000C5BA4 _Unit33.TCustomForm.IconChanged_004C6BA4
 0001:000C5C00 _Unit33.TCustomForm.IsClientSizeStored_004C6C00
 0001:000C5C10 _Unit33.TCustomForm.IsFormSizeStored_004C6C10
 0001:000C5C38 _Unit33.TCustomForm.IsAutoScrollStored_004C6C38
 0001:000C5C6C _Unit33.TCustomForm.DoClose_004C6C6C
 0001:000C5C8C _Unit33.TCustomForm.DoHide_004C6C8C
 0001:000C5CAC _Unit33.TCustomForm.DoShow_004C6CAC
 0001:000C5CCC _Unit33.TCustomForm.GetClientRect_004C6CCC
 0001:000C5D54 _Unit33.TCustomForm.GetChildren_004C6D54
 0001:000C5DC0 _Unit33.TCustomForm.GetOwnerWindow_004C6DC0
 0001:000C5DD8 _Unit33.TCustomForm.GetFloating_004C6DD8
 0001:000C5DFC _Unit33.TCustomForm.SetChildOrder_004C6DFC
 0001:000C5E90 _Unit33.TCustomForm.SetParentBiDiMode_004C6E90
 0001:000C5EB8 _Unit33.TCustomForm.SetClientWidth_004C6EB8
 0001:000C5EEC _Unit33.TCustomForm.SetClientHeight_004C6EEC
 0001:000C5F20 _Unit33.TCustomForm.SetVisible_004C6F20
 0001:000C5F64 _Unit33.TCustomForm.VisibleChanging_004C6F64
 0001:000C5FD0 _Unit33.TCustomForm.WantChildKey_004C6FD0
 0001:000C5FD4 _Unit33.TCustomForm.SetParent_004C6FD4
 0001:000C6090 _Unit33.TCustomForm.ValidateRename_004C7090
 0001:000C60D0 _Unit33.TCustomForm.WndProc_004C70D0
 0001:000C6678 _Unit33.Default_004C7678
 0001:000C66C4 _Unit33.MaximizedChildren_004C76C4
 0001:000C6704 _Unit33.TCustomForm.ClientWndProc_004C7704
 0001:000C68E8 _Unit33.TCustomForm.AlignControls_004C78E8
 0001:000C69A4 _Unit33.TCustomForm.CMBiDiModeChanged_004C79A4
 0001:000C6A3C _Unit33.TCustomForm.CMParentBiDiModeChanged_004C7A3C
 0001:000C6ACC _Unit33.TCustomForm.CMPopupHwndDestroy_004C7ACC
 0001:000C6B34 _Unit33.TCustomForm.SetDesigner_004C7B34
 0001:000C6B84 _Unit33.TCustomForm.GetBorderIconStyles_004C7B84
 0001:000C6C50 _Unit33.TCustomForm.SetBorderIcons_004C7C50
 0001:000C6D38 _Unit33.TCustomForm.GetBorderStyles_004C7D38
 0001:000C6E4C _Unit33.TCustomForm.SetBorderStyle_004C7E4C
 0001:000C6FEC _Unit33.TCustomForm.Dock_004C7FEC
 0001:000C7030 _Unit33.TCustomForm.DoDock_004C8030
 0001:000C7088 _Unit33.TCustomForm.get_ActiveMDIChild_004C8088
 0001:000C70BC _Unit33.TCustomForm.get_MDIChildCount_004C80BC
 0001:000C7108 _Unit33.TCustomForm.get_MDIChildren_004C8108
 0001:000C7158 _Unit33.EnumMonitorsProc_004C8158
 0001:000C7188 _Unit33.TCustomForm.GetMonitor_004C8188
 0001:000C7224 _Unit33.TCustomForm.GetCanvas_004C8224
 0001:000C722C _Unit33.TCustomForm.SetIcon_004C822C
 0001:000C7238 _Unit33.TCustomForm.IsForm_004C8238
 0001:000C7240 _Unit33.TCustomForm.IsIconStored_004C8240
 0001:000C7268 _Unit33.TCustomForm.SetFormStyle_004C8268
 0001:000C73DC _Unit33.TCustomForm.RefreshMDIMenu_004C83DC
 0001:000C7458 _Unit33.TCustomForm.SetObjectMenuItem_004C8458
 0001:000C747C _Unit33.TCustomForm.SetWindowMenu_004C847C
 0001:000C74A4 _Unit33.TCustomForm.SetMenu_004C84A4
 0001:000C76C8 _Unit33.TCustomForm.GetPixelsPerInch_004C86C8
 0001:000C76DC _Unit33.TCustomForm.GetPopupChildren_004C86DC
 0001:000C7704 _Unit33.TCustomForm.GetRecreateChildren_004C8704
 0001:000C772C _Unit33.TCustomForm.SetPixelsPerInch_004C872C
 0001:000C7760 _Unit33.TCustomForm.SetPosition_004C8760
 0001:000C777C _Unit33.TCustomForm.SetPopupMode_004C877C
 0001:000C77D0 _Unit33.TCustomForm.set_PopupParent_004C87D0
 0001:000C7834 _Unit33.TCustomForm.GetScaled_004C8834
 0001:000C7840 _Unit33.TCustomForm.SetScaled_004C8840
 0001:000C7870 _Unit33.TCustomForm.CMColorChanged_004C8870
 0001:000C78A4 _Unit33.TCustomForm.NormalColor_004C88A4
 0001:000C78BC _Unit33.TCustomForm.CMCtl3DChanged_004C88BC
 0001:000C7904 _Unit33.TCustomForm.CMFontChanged_004C8904
 0001:000C7924 _Unit33.TCustomForm.CMMenuChanged_004C8924
 0001:000C7940 _Unit33.TCustomForm.SetWindowState_004C8940
 0001:000C7980 _Unit33.TCustomForm.SetWindowToMonitor_004C8980
 0001:000C7D20 _Unit33.GetNonToolWindowPopupParent_004C8D20
 0001:000C7D90 _Unit33.TCustomForm.CreateParams_004C8D90
 0001:000C838C _Unit33.TCustomForm.CreateWnd_004C938C
 0001:000C858C _Unit33.TCustomForm.CreateWindowHandle_004C958C
 0001:000C86C4 _Unit33.DestroyPopupWindow_004C96C4
 0001:000C8708 _Unit33.TCustomForm.DestroyHandle_004C9708
 0001:000C883C _Unit33.TCustomForm.DestroyWindowHandle_004C983C
 0001:000C8880 _Unit33.TCustomForm.DefaultHandler_004C9880
 0001:000C88E4 _Unit33.TCustomForm.SetActiveControl_004C98E4
 0001:000C89A4 _Unit33.TCustomForm.SetActiveOleControl_004C99A4
 0001:000C89C0 _Unit33.TCustomForm.DefocusControl_004C99C0
 0001:000C8A08 _Unit33.TCustomForm.FocusControl_004C9A08
 0001:000C8A74 _Unit33.TCustomForm.SetFocusedControl_004C9A74
 0001:000C8D18 _Unit33.TCustomForm.sub_004C9D18_004C9D18
 0001:000C8D1C _Unit33.TCustomForm.SetWindowFocus_004C9D1C
 0001:000C8D94 _Unit33.TCustomForm.SetActive_004C9D94
 0001:000C8E48 _Unit33.TCustomForm.MergeMenu_004C9E48
 0001:000C8EF0 _Unit33.DoNestedActivation_004C9EF0
 0001:000C8F3C _Unit33.TCustomForm.Activate_004C9F3C
 0001:000C8F6C _Unit33.TCustomForm.Deactivate_004C9F6C
 0001:000C8F9C _Unit33.TCustomForm.Paint_004C9F9C
 0001:000C8FBC _Unit33.TCustomForm.GetIconHandle_004C9FBC
 0001:000C8FD8 _Unit33.TCustomForm.PaintWindow_004C9FD8
 0001:000C91D4 _Unit33.TCustomForm.PaletteChanged_004CA1D4
 0001:000C9278 _Unit33.TCustomForm.WMPaint_004CA278
 0001:000C92F0 _Unit33.TCustomForm.WMNCPaint_004CA2F0
 0001:000C9318 _Unit33.TCustomForm.WMIconEraseBkgnd_004CA318
 0001:000C9378 _Unit33.TCustomForm.WMEraseBkgnd_004CA378
 0001:000C93AC _Unit33.TCustomForm.WMQueryDragIcon_004CA3AC
 0001:000C93C0 _Unit33.ModifySystemMenu_004CA3C0
 0001:000C94BC _Unit33.TCustomForm.WMNCCreate_004CA4BC
 0001:000C94F0 _Unit33.TCustomForm.WMNCHitTest_004CA4F0
 0001:000C9514 _Unit33.TCustomForm.WMNCLButtonDown_004CA514
 0001:000C95A0 _Unit33.TCustomForm.WMDestroy_004CA5A0
 0001:000C9734 _Unit33.TCustomForm.WMCommand_004CA734
 0001:000C9768 _Unit33.TCustomForm.WMInitMenuPopup_004CA768
 0001:000C9780 _Unit33.TCustomForm.WMMenuChar_004CA780
 0001:000C97B8 _Unit33.TCustomForm.WMMenuSelect_004CA7B8
 0001:000C9860 _Unit33.TCustomForm.WMActivate_004CA860
 0001:000C98A4 _Unit33.TCustomForm.Resizing_004CA8A4
 0001:000C98DC _Unit33.TCustomForm.WMClose_004CA8DC
 0001:000C98E4 _Unit33.TCustomForm.WMQueryEndSession_004CA8E4
 0001:000C9900 _Unit33.TCustomForm.CMAppSysCommand_004CA900
 0001:000C9958 _Unit33.TCustomForm.WMSysCommand_004CA958
 0001:000C99E0 _Unit33.TCustomForm.WMShowWindow_004CA9E0
 0001:000C9A8C _Unit33.TCustomForm.WMMDIActivate_004CAA8C
 0001:000C9AE4 _Unit33.TCustomForm.WMNextDlgCtl_004CAAE4
 0001:000C9B10 _Unit33.TCustomForm.WMEnterMenuLoop_004CAB10
 0001:000C9B2C _Unit33.GetMenuHelpContext_004CAB2C
 0001:000C9B6C _Unit33.ControlHasHelp_004CAB6C
 0001:000C9BA4 _Unit33.GetHelpInfo_004CABA4
 0001:000C9BD8 _Unit33.TCustomForm.WMHelp_004CABD8
 0001:000C9D38 _Unit33.TCustomForm.WMGetMinMaxInfo_004CAD38
 0001:000C9DA4 _Unit33.HandleEdge_004CADA4
 0001:000C9DD0 _Unit33.TCustomForm.WMWindowPosChanging_004CADD0
 0001:000C9FB4 _Unit33.TCustomForm.WMNCCalcSize_004CAFB4
 0001:000CA008 _Unit33.TCustomForm.WMGestureNotify_004CB008
 0001:000CA010 _Unit33.TCustomForm.CMActivate_004CB010
 0001:000CA034 _Unit33.TCustomForm.CMDeactivate_004CB034
 0001:000CA054 _Unit33.TCustomForm.CMDialogKey_004CB054
 0001:000CA0F0 _Unit33.TCustomForm.CMShowingChanged_004CB0F0
 0001:000CA760 _Unit33.TCustomForm.CMIconChanged_004CB760
 0001:000CA780 _Unit33.TCustomForm.CMRelease_004CB780
 0001:000CA788 _Unit33.TCustomForm.CMTextChanged_004CB788
 0001:000CA7D8 _Unit33.TCustomForm.CMUIActivate_004CB7D8
 0001:000CA7E4 _Unit33.TCustomForm.CMParentFontChanged_004CB7E4
 0001:000CA81C _Unit33.TCustomForm.CMIsShortCut_004CB81C
 0001:000CA848 _Unit33.TCustomForm.CMUpdateActions_004CB848
 0001:000CA854 _Unit33.TCustomForm.Close_004CB854
 0001:000CA8F8 _Unit33.TCustomForm.CloseQuery_004CB8F8
 0001:000CA95C _Unit33.TCustomForm.CloseModal_004CB95C
 0001:000CA9F4 _Unit33.TCustomForm.Hide_004CB9F4
 0001:000CA9FC _Unit33.TCustomForm.Show_004CB9FC
 0001:000CAA14 _Unit33.TCustomForm.SetFocus_004CBA14
 0001:000CAAA0 _Unit33.TCustomForm.RecreateAsPopup_004CBAA0
 0001:000CAAD0 _Unit33.TCustomForm.Release_004CBAD0
 0001:000CAAEC _Unit33.TCustomForm.ShowModal_004CBAEC
 0001:000CAEAC _Unit33.TCustomForm.UpdateActions_004CBEAC
 0001:000CAF18 _Unit33.TCustomForm.UpdateWindowState_004CBF18
 0001:000CAF6C _Unit33.TCustomForm.RequestAlign_004CBF6C
 0001:000CAF8C _Unit33.TCustomForm.WMSettingChange_004CBF8C
 0001:000CAFAC _Unit33.ProcessExecute_004CBFAC
 0001:000CB064 _Unit33.TCustomForm.CMActionExecute_004CC064
 0001:000CB0B8 _Unit33.ProcessUpdate_004CC0B8
 0001:000CB170 _Unit33.TCustomForm.CMActionUpdate_004CC170
 0001:000CB240 _Unit33.TCustomForm.IsShortCut_004CC240
 0001:000CB2B8 _Unit33.TCustomForm.QueryInterface_004CC2B8
 0001:000CB2F4 _Unit33.TCustomForm.MouseWheelHandler_004CC2F4
 0001:000CB32C _Unit33.TCustomForm.HandleCreateException_004CC32C
 0001:000CB33C _Unit33.TCustomForm.SetLayeredAttribs_004CC33C
 0001:000CB418 _Unit33.TCustomForm.SetAlphaBlend_004CC418
 0001:000CB42C _Unit33.TCustomForm.SetAlphaBlendValue_004CC42C
 0001:000CB440 _Unit33.TCustomForm.SetTransparentColorValue_004CC440
 0001:000CB454 _Unit33.TCustomForm.SetTransparentColor_004CC454
 0001:000CB490 _Unit33.TCustomForm.InitAlphaBlending_004CC490
 0001:000CB4BC _Unit33.TCustomForm.SetLeft_004CC4BC
 0001:000CB4F8 _Unit33.TCustomForm.SetTop_004CC4F8
 0001:000CB538 _Unit33.TCustomForm.SetGlassFrame_004CC538
 0001:000CB544 _Unit33.TCustomForm.UpdateGlassFrame_004CC544
 0001:000CB784 _Unit33.TCustomForm.UpdateGlassFrameControls_004CC784
 0001:000CB7A8 _Unit33.TCustomDockForm.Create_004CC7A8
 0001:000CB810 _Unit33.TCustomDockForm.DoAddDockClient_004CC810
 0001:000CB938 _Unit33.TCustomDockForm.DoRemoveDockClient_004CC938
 0001:000CB958 _Unit33.TCustomDockForm.Loaded_004CC958
 0001:000CB9A4 _Unit33.TCustomDockForm.GetSiteInfo_004CC9A4
 0001:000CB9D0 _Unit33.TCustomDockForm.WMNCHitTest_004CC9D0
 0001:000CB9F8 _Unit33.TCustomDockForm.WMNCLButtonDown_004CC9F8
 0001:000CBA8C _Unit33.TCustomDockForm.CMControlListChange_004CCA8C
 0001:000CBAE4 _Unit33.TCustomDockForm.CMDockNotification_004CCAE4
 0001:000CBC04 _Unit33.TCustomDockForm.CMUnDockClient_004CCC04
 0001:000CBC1C _Unit33.TCustomDockForm.CMVisibleChanged_004CCC1C
 0001:000CBC5C _Unit33.TMonitor.GetLeft_004CCC5C
 0001:000CBC74 _Unit33.TMonitor.GetHeight_004CCC74
 0001:000CBC90 _Unit33.TMonitor.GetTop_004CCC90
 0001:000CBCA8 _Unit33.TMonitor.GetWidth_004CCCA8
 0001:000CBCC4 _Unit33.TMonitor.GetBoundsRect_004CCCC4
 0001:000CBCF0 _Unit33.TMonitor.GetWorkareaRect_004CCCF0
 0001:000CBD1C _Unit33.TMonitor.GetPrimary_004CCD1C
 0001:000CBD3C _Unit33.EnumFontsProc_004CCD3C
 0001:000CBDD4 _Unit33.TScreen.Create_004CCDD4
 0001:000CBF64 _Unit33.TScreen.Destroy_004CCF64
 0001:000CC0A0 _Unit33.TScreen.GetHeight_004CD0A0
 0001:000CC0A8 _Unit33.TScreen.GetWidth_004CD0A8
 0001:000CC0B0 _Unit33.TScreen.GetDesktopTop_004CD0B0
 0001:000CC0B8 _Unit33.TScreen.GetDesktopLeft_004CD0B8
 0001:000CC0C0 _Unit33.TScreen.GetDesktopHeight_004CD0C0
 0001:000CC0C8 _Unit33.TScreen.GetDesktopWidth_004CD0C8
 0001:000CC0D0 _Unit33.TScreen.GetMonitor_004CD0D0
 0001:000CC0E4 _Unit33.TScreen.GetMonitorCount_004CD0E4
 0001:000CC0FC _Unit33.TScreen.GetForm_004CD0FC
 0001:000CC110 _Unit33.TScreen.GetFormCount_004CD110
 0001:000CC118 _Unit33.TScreen.GetCustomForms_004CD118
 0001:000CC12C _Unit33.TScreen.GetCustomFormCount_004CD12C
 0001:000CC134 _Unit33.TScreen.UpdateLastActive_004CD134
 0001:000CC180 _Unit33.TScreen.AddForm_004CD180
 0001:000CC1B8 _Unit33.TScreen.RemoveForm_004CD1B8
 0001:000CC210 _Unit33.TScreen.AddDataModule_004CD210
 0001:000CC21C _Unit33.TScreen.RemoveDataModule_004CD21C
 0001:000CC228 _Unit33.TScreen.CreateCursors_004CD228
 0001:000CC280 _Unit33.TScreen.DestroyCursors_004CD280
 0001:000CC2E4 _Unit33.DoFindMonitor_004CD2E4
 0001:000CC338 _Unit33.TScreen.FindMonitor_004CD338
 0001:000CC364 _Unit33.TScreen.InsertCursor_004CD364
 0001:000CC390 _Unit33.TScreen.GetImes_004CD390
 0001:000CC5D4 _Unit33.TScreen.GetDefaultIME_004CD5D4
 0001:000CC5F0 _Unit33.TScreen.IconFontChanged_004CD5F0
 0001:000CC640 _Unit33.TScreen.GetDataModule_004CD640
 0001:000CC654 _Unit33.TScreen.GetDataModuleCount_004CD654
 0001:000CC65C _Unit33.TScreen.GetCursors_004CD65C
 0001:000CC688 _Unit33.TScreen.SetCursor_004CD688
 0001:000CC730 _Unit33.TScreen.SetHintFont_004CD730
 0001:000CC740 _Unit33.TScreen.SetIconFont_004CD740
 0001:000CC750 _Unit33.TScreen.SetMenuFont_004CD750
 0001:000CC760 _Unit33.TScreen.SetMessageFont_004CD760
 0001:000CC770 _Unit33.TScreen.SetCaptionFont_004CD770
 0001:000CC780 _Unit33.TScreen.GetMetricSettings_004CD780
 0001:000CC940 _Unit33.TScreen.DisableAlign_004CD940
 0001:000CC948 _Unit33.TScreen.EnableAlign_004CD948
 0001:000CC968 _Unit33.TScreen.Realign_004CD968
 0001:000CC970 _Unit33.InsertBefore_004CD970
 0001:000CC9F8 _Unit33.DoPosition_004CD9F8
 0001:000CCBB0 _Unit33.DoAlign_004CDBB0
 0001:000CCD00 _Unit33.AlignWork_004CDD00
 0001:000CCD58 _Unit33.TScreen.AlignForms_004CDD58
 0001:000CCDE0 _Unit33.TScreen.AlignForm_004CDDE0
 0001:000CCE64 _Unit33.TScreen.GetFonts_004CDE64
 0001:000CCF38 _Unit33.TScreen.ResetFonts_004CDF38
 0001:000CCF4C _Unit33.GetHint_004CDF4C
 0001:000CCF84 _Unit33.GetHintControl_004CDF84
 0001:000CCFA4 _Unit33.HintTimerProc_004CDFA4
 0001:000CCFF8 _Unit33.HintMouseThread_004CDFF8
 0001:000CD054 _Unit33.HintGetMsgHook_004CE054
 0001:000CD098 _Unit33.HookHintHooks_004CE098
 0001:000CD10C _Unit33.UnhookHintHooks_004CE10C
 0001:000CD188 _Unit33.GetAnimation_004CE188
 0001:000CD1B8 _Unit33.SetAnimation_004CE1B8
 0001:000CD1E4 _Unit33.ShowWinNoAnimate_004CE1E4
 0001:000CD214 _Unit33.TScreen.GetDesktopRect_004CE214
 0001:000CD244 _Unit33.TScreen.GetWorkAreaHeight_004CE244
 0001:000CD260 _Unit33.TScreen.GetWorkAreaLeft_004CE260
 0001:000CD278 _Unit33.TScreen.GetWorkAreaRect_004CE278
 0001:000CD288 _Unit33.TScreen.GetWorkAreaTop_004CE288
 0001:000CD2A0 _Unit33.TScreen.GetWorkAreaWidth_004CE2A0
 0001:000CD2BC _Unit33.TScreen.MonitorFromPoint_004CE2BC
 0001:000CD2E8 _Unit33.TScreen.ClearMonitors_004CE2E8
 0001:000CD320 _Unit33.TScreen.GetMonitors_004CE320
 0001:000CD340 _Unit33.DoGetPrimaryMonitor_004CE340
 0001:000CD390 _Unit33.TScreen.GetPrimaryMonitor_004CE390
 0001:000CD3D0 _Unit33.TApplication.Create_004CE3D0
 0001:000CD63C _Unit33.TApplication.Destroy_004CE63C
 0001:000CD79C _Unit33.TApplication.CreateHandle_004CE79C
 0001:000CD954 _Unit33.TApplication.ControlDestroyed_004CE954
 0001:000CD9B4 _Unit33.GetTopMostWindows_004CE9B4
 0001:000CDA68 _Unit33.TApplication.DoNormalizeTopMosts_004CEA68
 0001:000CDB10 _Unit33.TApplication.ModalStarted_004CEB10
 0001:000CDB3C _Unit33.TApplication.ModalFinished_004CEB3C
 0001:000CDB68 _Unit33.TApplication.NormalizeTopMosts_004CEB68
 0001:000CDB70 _Unit33.TApplication.NormalizeAllTopMosts_004CEB70
 0001:000CDB78 _Unit33.TApplication.RemovePopupForm_004CEB78
 0001:000CDBC8 _Unit33.TApplication.RestoreTopMosts_004CEBC8
 0001:000CDC34 _Unit33.GetPopupOwnerWindows_004CEC34
 0001:000CDD28 _Unit33.TApplication.DoShowOwnedPopups_004CED28
 0001:000CDE94 _Unit33.TApplication.UseRightToLeftReading_004CEE94
 0001:000CDEAC _Unit33.TApplication.UseRightToLeftAlignment_004CEEAC
 0001:000CDEC4 _Unit33.TApplication.CheckIniChange_004CEEC4
 0001:000CDF44 _Unit33.TApplication.SettingChange_004CEF44
 0001:000CDFC0 _Unit33.Default_004CEFC0
 0001:000CE000 _Unit33.DrawAppIcon_004CF000
 0001:000CE050 _Unit33.TApplication.WndProc_004CF050
 0001:000CE7F0 _Unit33.TApplication.GetIconHandle_004CF7F0
 0001:000CE80C _Unit33.TApplication.Minimize_004CF80C
 0001:000CE910 _Unit33.TApplication.Restore_004CF910
 0001:000CEA44 _Unit33.TApplication.BringToFront_004CFA44
 0001:000CEA9C _Unit33.TApplication.GetTitle_004CFA9C
 0001:000CEB20 _Unit33.TApplication.SetIcon_004CFB20
 0001:000CEB2C _Unit33.TApplication.SetBiDiMode_004CFB2C
 0001:000CEB6C _Unit33.TApplication.SetDefaultFont_004CFB6C
 0001:000CEB7C _Unit33.TApplication.SetTitle_004CFB7C
 0001:000CEBD8 _Unit33.TApplication.SetHandle_004CFBD8
 0001:000CEC20 _Unit33.TApplication.IsDlgMsg_004CFC20
 0001:000CEC68 _Unit33.TApplication.IsMDIMsg_004CFC68
 0001:000CECB8 _Unit33.TApplication.IsKeyMsg_004CFCB8
 0001:000CEDB0 _Unit33.TApplication.IsHintMsg_004CFDB0
 0001:000CEDE4 _Unit33.TApplication.IsShortCut_004CFDE4
 0001:000CEE50 _Unit33.TApplication.PopupControlProc_004CFE50
 0001:000CEF14 _Unit33.TApplication.ProcessMessage_004CFF14
 0001:000CF028 _Unit33.TApplication.ProcessMessages_004D0028
 0001:000CF040 _Unit33.TApplication.HandleMessage_004D0040
 0001:000CF064 _Unit33.TApplication.HookMainWindow_004D0064
 0001:000CF0C4 _Unit33.TApplication.UnhookMainWindow_004D00C4
 0001:000CF144 _Unit33.TApplication.Initialize_004D0144
 0001:000CF15C _Unit33.TApplication.CreateForm_004D015C
 0001:000CF2AC _Unit33.TApplication.Run_004D02AC
 0001:000CF3CC _Unit33.TApplication.Terminate_004D03CC
 0001:000CF3E0 _Unit33.IsClass_004D03E0
 0001:000CF464 _Unit33.TApplication.HandleException_004D0464
 0001:000CF4E8 _Unit33.TApplication.MessageBox_004D04E8
 0001:000CF668 _Unit33.TApplication.ShowException_004D0668
 0001:000CF73C _Unit33.TApplication.InvokeHelp_004D073C
 0001:000CF870 _Unit33.TApplication.DoOnHelp_004D0870
 0001:000CF93C _Unit33.TApplication.HelpKeyword_004D093C
 0001:000CF9CC _Unit33.TApplication.HelpContext_004D09CC
 0001:000CFA54 _Unit33.TApplication.HelpCommand_004D0A54
 0001:000CFA5C _Unit33.TApplication.GetExeName_004D0A5C
 0001:000CFA6C _Unit33.TApplication.SetShowHint_004D0A6C
 0001:000CFAC4 _Unit33.TApplication.SetHintColor_004D0AC4
 0001:000CFAE4 _Unit33.TApplication.DefaultFontChanged_004D0AE4
 0001:000CFAF4 _Unit33.TApplication.DoActionIdle_004D0AF4
 0001:000CFB58 _Unit33.TApplication.DoMouseIdle_004D0B58
 0001:000CFB7C _Unit33.IdleTimerProc_004D0B7C
 0001:000CFBE4 _Unit33.TApplication.Idle_004D0BE4
 0001:000CFD5C _Unit33.TApplication.NotifyForms_004D0D5C
 0001:000CFDA4 _Unit33.TApplication.IconChanged_004D0DA4
 0001:000CFE14 _Unit33.TApplication.SetHint_004D0E14
 0001:000CFEA8 _Unit33.SetVisible_004D0EA8
 0001:000CFF48 _Unit33.TApplication.UpdateVisible_004D0F48
 0001:000CFFD0 _Unit33.TApplication.ValidateHelpSystem_004D0FD0
 0001:000CFFF0 _Unit33.TApplication.StartHintTimer_004D0FF0
 0001:000D0034 _Unit33.TApplication.StopHintTimer_004D1034
 0001:000D005C _Unit33.TApplication.HintMouseMessage_004D105C
 0001:000D0180 _Unit33.TApplication.HintTimerExpired_004D1180
 0001:000D01B8 _Unit33.TApplication.HideHint_004D11B8
 0001:000D022C _Unit33.TApplication.CancelHint_004D122C
 0001:000D0258 _Unit33.FindScanline_004D1258
 0001:000D0268 _Unit33.GetCursorHeightMargin_004D1268
 0001:000D03BC _Unit33.ValidateHintWindow_004D13BC
 0001:000D041C _Unit33.MultiLineWidth_004D141C
 0001:000D04FC _Unit33.TApplication.ActivateHint_004D14FC
 0001:000D08AC _Unit33.TApplication.AddPopupForm_004D18AC
 0001:000D0974 _Unit33.TApplication.GetCurrentHelpFile_004D1974
 0001:000D09B0 _Unit33.TApplication.GetDialogHandle_004D19B0
 0001:000D09D8 _Unit33.TApplication.SetDialogHandle_004D19D8
 0001:000D0A04 _Unit33.TApplication.GetActiveFormHandle_004D1A04
 0001:000D0A50 _Unit33.TApplication.GetMainFormHandle_004D1A50
 0001:000D0A90 _Unit33.TApplication.DispatchAction_004D1A90
 0001:000D0B28 _Unit33.TApplication.ExecuteAction_004D1B28
 0001:000D0B50 _Unit33.TApplication.UpdateAction_004D1B50
 0001:000D0B78 _Unit33.InitProcs_004D1B78
 0001:000D0BEC _Unit33.TApplication.WakeMainThread_004D1BEC
 0001:000D0C00 _Unit33.TApplication.HookSynchronizeWakeup_004D1C00
 0001:000D0C10 _Unit33.TApplication.UnhookSynchronizeWakeup_004D1C10
 0001:000D0C20 _Unit33.TApplication.IsPreProcessMessage_004D1C20
 0001:000D0C8C _Unit33.TApplication.InternalRestore_004D1C8C
 0001:000D0D14 _Unit33.TApplication.SetMainFormOnTaskBar_004D1D14
 0001:000D0E58 _Unit33.TGlassFrame.Create_004D1E58
 0001:000D0EAC _Unit33.TGlassFrame.Assign_004D1EAC
 0001:000D0F04 _Unit33.TGlassFrame.Change_004D1F04
 0001:000D0F60 _Unit33.TGlassFrame.FrameExtended_004D1F60
 0001:000D0F98 _Unit33.TGlassFrame.SetEnabled_004D1F98
 0001:000D0FC8 _Unit33.TGlassFrame.SetExtendedFrame_004D1FC8
 0001:000D1028 _Unit33.TGlassFrame.SetSheetOfGlass_004D2028
 0001:000D1064 _Unit33.Finalization_004D2064
 0001:000D109C _Unit34.winmm.mciGetErrorStringW_004D209C
 0001:000D10A4 _Unit34.winmm.mciSendCommandW_004D20A4
 0001:000D10AC _Unit34.mci_TMSF_Track_004D20AC
 0001:000D10B0 _Unit34.mci_TMSF_Minute_004D20B0
 0001:000D10B8 _Unit34.mci_TMSF_Second_004D20B8
 0001:000D10BC _Unit34.sub_004D20BC_004D20BC
 0001:000D12F8 _Unit34.TEventProvider.Create_004D22F8
 0001:000D13B4 _Unit34.sub_004D23B4_004D23B4
 0001:000D148C _Unit34.sub_004D248C_004D248C
 0001:000D14AC _Unit34.sub_004D24AC_004D24AC
 0001:000D157C _Unit34.sub_004D257C_004D257C
 0001:000D15A4 _Unit34.sub_004D25A4_004D25A4
 0001:000D15F8 _Unit34.sub_004D25F8_004D25F8
 0001:000D1670 _Unit34.sub_004D2670_004D2670
 0001:000D1728 _Unit34.sub_004D2728_004D2728
 0001:000D1870 _Unit34.sub_004D2870_004D2870
 0001:000D1914 _Unit34.sub_004D2914_004D2914
 0001:000D1960 _Unit34.sub_004D2960_004D2960
 0001:000D1998 _Unit34.sub_004D2998_004D2998
 0001:000D1A60 _Unit34.TEventProviders.Create_004D2A60
 0001:000D1B20 _Unit34.sub_004D2B20_004D2B20
 0001:000D1BFC _Unit34.sub_004D2BFC_004D2BFC
 0001:000D1C54 _Unit34.sub_004D2C54_004D2C54
 0001:000D1D70 _Unit34.sub_004D2D70_004D2D70
 0001:000D1DF0 _Unit34.sub_004D2DF0_004D2DF0
 0001:000D1E18 _Unit34.sub_004D2E18_004D2E18
 0001:000D1E2C _Unit34.sub_004D2E2C_004D2E2C
 0001:000D1F54 _Unit34.sub_004D2F54_004D2F54
 0001:000D1F98 _Unit34.Finalization_004D2F98
 0001:000D1FC0 _Unit35.Finalization_004D2FC0
 0001:000D20B0 NativeConnectors.TNativeAsphyreConnect.Create_004D30B0
 0001:000D212C NativeConnectors.sub_004D312C_004D312C
 0001:000D2178 NativeConnectors.sub_004D3178_004D3178
 0001:000D21A4 NativeConnectors.Finalization_004D31A4
 0001:000D21CC _Unit37.sub_004D31CC_004D31CC
 0001:000D2228 _Unit37.sub_004D3228_004D3228
 0001:000D2250 _Unit37.sub_004D3250_004D3250
 0001:000D2270 _Unit37.sub_004D3270_004D3270
 0001:000D22DC _Unit37.sub_004D32DC_004D32DC
 0001:000D2304 _Unit37.sub_004D3304_004D3304
 0001:000D24D8 _Unit37.sub_004D34D8_004D34D8
 0001:000D250C _Unit37.sub_004D350C_004D350C
 0001:000D2544 _Unit37.sub_004D3544_004D3544
 0001:000D2578 _Unit37.sub_004D3578_004D3578
 0001:000D25A0 _Unit37.sub_004D35A0_004D35A0
 0001:000D25C8 _Unit37.sub_004D35C8_004D35C8
 0001:000D2640 _Unit37.sub_004D3640_004D3640
 0001:000D26A4 _Unit37.sub_004D36A4_004D36A4
 0001:000D2704 _Unit37.sub_004D3704_004D3704
 0001:000D277C _Unit37.sub_004D377C_004D377C
 0001:000D27D0 _Unit37.sub_004D37D0_004D37D0
 0001:000D285C _Unit37.sub_004D385C_004D385C
 0001:000D2F34 _Unit37.sub_004D3F34_004D3F34
 0001:000D2F78 _Unit37.sub_004D3F78_004D3F78
 0001:000D2F90 _Unit37.sub_004D3F90_004D3F90
 0001:000D2FDC _Unit37.sub_004D3FDC_004D3FDC
 0001:000D3030 _Unit37.sub_004D4030_004D4030
 0001:000D33FC _Unit37.sub_004D43FC_004D43FC
 0001:000D349C _Unit37.sub_004D449C_004D449C
 0001:000D3AB4 _Unit37.sub_004D4AB4_004D4AB4
 0001:000D3B20 _Unit37.TAsphyreCustomTexture.Destroy_004D4B20
 0001:000D3B64 _Unit37.sub_004D4B64_004D4B64
 0001:000D3B88 _Unit37.sub_004D4B88_004D4B88
 0001:000D3BCC _Unit37.sub_004D4BCC_004D4BCC
 0001:000D3BD8 _Unit37.sub_004D4BD8_004D4BD8
 0001:000D3C08 _Unit37.sub_004D4C08_004D4C08
 0001:000D3C34 _Unit37.sub_004D4C34_004D4C34
 0001:000D3C58 _Unit37.sub_004D4C58_004D4C58
 0001:000D3C6C _Unit37.sub_004D4C6C_004D4C6C
 0001:000D3C78 _Unit37.sub_004D4C78_004D4C78
 0001:000D3CB0 _Unit37.sub_004D4CB0_004D4CB0
 0001:000D3CD4 _Unit37.sub_004D4CD4_004D4CD4
 0001:000D3CE0 _Unit37.sub_004D4CE0_004D4CE0
 0001:000D3CEC _Unit37.sub_004D4CEC_004D4CEC
 0001:000D3D04 _Unit37.sub_004D4D04_004D4D04
 0001:000D3D14 _Unit37.sub_004D4D14_004D4D14
 0001:000D3D20 _Unit37.sub_004D4D20_004D4D20
 0001:000D3D68 _Unit37.sub_004D4D68_004D4D68
 0001:000D3DF8 _Unit37.sub_004D4DF8_004D4DF8
 0001:000D3E48 _Unit37.sub_004D4E48_004D4E48
 0001:000D3FA0 _Unit37.TAsphyreSwapChains.Create_004D4FA0
 0001:000D4064 _Unit37.sub_004D5064_004D5064
 0001:000D4084 _Unit37.sub_004D5084_004D5084
 0001:000D42BC _Unit37.TAsphyreTiming.Create_004D52BC
 0001:000D434C _Unit37.sub_004D534C_004D534C
 0001:000D4368 _Unit37.Finalization_004D5368
 0001:000D4450 _Unit38.sub_004D5450_004D5450
 0001:000D44D8 _Unit38.TAsphyreDevice.Destroy_004D54D8
 0001:000D4534 _Unit38.sub_004D5534_004D5534
 0001:000D4588 _Unit38.sub_004D5588_004D5588
 0001:000D45A8 _Unit38.sub_004D55A8_004D55A8
 0001:000D45B4 _Unit38.sub_004D55B4_004D55B4
 0001:000D45CC _Unit38.sub_004D55CC_004D55CC
 0001:000D4620 _Unit38.sub_004D5620_004D5620
 0001:000D4680 _Unit38.sub_004D5680_004D5680
 0001:000D47A8 _Unit38.sub_004D57A8_004D57A8
 0001:000D47BC _Unit38.sub_004D57BC_004D57BC
 0001:000D47C8 _Unit38.sub_004D57C8_004D57C8
 0001:000D47E4 _Unit38.sub_004D57E4_004D57E4
 0001:000D48E0 _Unit38.sub_004D58E0_004D58E0
 0001:000D4A50 _Unit38.TAsphyreRasterizer.Destroy_004D5A50
 0001:000D4BD8 _Unit38.sub_004D5BD8_004D5BD8
 0001:000D4BE4 _Unit38.sub_004D5BE4_004D5BE4
 0001:000D4BF4 _Unit38.sub_004D5BF4_004D5BF4
 0001:000D4C08 _Unit38.sub_004D5C08_004D5C08
 0001:000D4C14 _Unit38.sub_004D5C14_004D5C14
 0001:000D4C28 _Unit38.sub_004D5C28_004D5C28
 0001:000D4DDC _Unit38.TAsphyreFactory.Create_004D5DDC
 0001:000D4E64 _Unit38.sub_004D5E64_004D5E64
 0001:000D4EBC _Unit38.sub_004D5EBC_004D5EBC
 0001:000D4F90 _Unit38.sub_004D5F90_004D5F90
 0001:000D5064 _Unit38.sub_004D6064_004D6064
 0001:000D5094 _Unit38.sub_004D6094_004D6094
 0001:000D50C0 _Unit38.sub_004D60C0_004D60C0
 0001:000D5150 _Unit38.sub_004D6150_004D6150
 0001:000D51CC _Unit38.sub_004D61CC_004D61CC
 0001:000D5208 _Unit38.sub_004D6208_004D6208
 0001:000D5234 _Unit38.Finalization_004D6234
 0001:000D54FC _Unit39.Finalization_004D64FC
 0001:000D5698 AsphyreAuth.Finalization_004D6698
 0001:000D57E8 FileNameAliases.TFileNameAliases.Create_004D67E8
 0001:000D5864 FileNameAliases.Finalization_004D6864
 0001:000D588C SystemSurfaces.sub_004D688C_004D688C
 0001:000D5BC0 SystemSurfaces.TSystemSurfaces.Create_004D6BC0
 0001:000D5CE4 SystemSurfaces.Finalization_004D6CE4
 0001:000D5E70 AsphyreBitmaps.Finalization_004D6E70
 0001:000D60A0 MediaImages.TImageGroups.Create_004D70A0
 0001:000D61A8 MediaImages.Finalization_004D71A8
 0001:000D62C0 _Unit45.sub_004D72C0_004D72C0
 0001:000D6438 _Unit45.TAsphyreCanvas.Destroy_004D7438
 0001:000D64B8 _Unit45.sub_004D74B8_004D74B8
 0001:000D665C _Unit45.sub_004D765C_004D765C
 0001:000D6668 _Unit45.sub_004D7668_004D7668
 0001:000D66A8 _Unit45.sub_004D76A8_004D76A8
 0001:000D66B8 _Unit45.sub_004D76B8_004D76B8
 0001:000D66EC _Unit45.sub_004D76EC_004D76EC
 0001:000D6720 _Unit45.sub_004D7720_004D7720
 0001:000D6760 _Unit45.sub_004D7760_004D7760
 0001:000D68C4 _Unit45.sub_004D78C4_004D78C4
 0001:000D68F8 _Unit45.sub_004D78F8_004D78F8
 0001:000D690C _Unit45.sub_004D790C_004D790C
 0001:000D6918 _Unit45.sub_004D7918_004D7918
 0001:000D692C _Unit45.sub_004D792C_004D792C
 0001:000D6938 _Unit45.sub_004D7938_004D7938
 0001:000D69A8 _Unit45.sub_004D79A8_004D79A8
 0001:000D6A38 _Unit45.sub_004D7A38_004D7A38
 0001:000D6A80 _Unit45.sub_004D7A80_004D7A80
 0001:000D6E8C _Unit45.sub_004D7E8C_004D7E8C
 0001:000D6EAC _Unit45.sub_004D7EAC_004D7EAC
 0001:000D6ECC _Unit45.sub_004D7ECC_004D7ECC
 0001:000D6EFC _Unit45.sub_004D7EFC_004D7EFC
 0001:000D6F24 _Unit45.sub_004D7F24_004D7F24
 0001:000D700C _Unit45.sub_004D800C_004D800C
 0001:000D7010 _Unit45.sub_004D8010_004D8010
 0001:000D7014 _Unit45.sub_004D8014_004D8014
 0001:000D7024 _Unit45.advapi32.CryptAcquireContextW_004D8024
 0001:000D702C _Unit45.advapi32.CryptReleaseContext_004D802C
 0001:000D7034 _Unit45.advapi32.CryptGenRandom_004D8034
 0001:000D703C _Unit45.TRandomStream.Create_004D803C
 0001:000D708C _Unit45.sub_004D808C_004D808C
 0001:000D70DC _Unit45.TRandomStream.Destroy_004D80DC
 0001:000D7120 _Unit45.TRandomStream.GetSize_004D8120
 0001:000D7144 _Unit45.sub_004D8144_004D8144
 0001:000D7174 _Unit45.sub_004D8174_004D8174
 0001:000D7310 _Unit45.TRandomStream.Read_004D8310
 0001:000D7444 _Unit45.TRandomStream.Seek_004D8444
 0001:000D746C _Unit45.TRandomStream.SetSize_004D846C
 0001:000D7478 _Unit45.TRandomStream.Write_004D8478
 0001:000D7494 _Unit45.Finalization_004D8494
 0001:000D75C8 uTPLb_StreamUtils.sub_004D85C8_004D85C8
 0001:000D75D4 uTPLb_StreamUtils.sub_004D85D4_004D85D4
 0001:000D75D8 uTPLb_StreamUtils.sub_004D85D8_004D85D8
 0001:000D75F8 uTPLb_StreamUtils.sub_004D85F8_004D85F8
 0001:000D7634 uTPLb_StreamUtils.sub_004D8634_004D8634
 0001:000D767C uTPLb_StreamUtils.sub_004D867C_004D867C
 0001:000D76EC uTPLb_StreamUtils.sub_004D86EC_004D86EC
 0001:000D772C uTPLb_StreamUtils.sub_004D872C_004D872C
 0001:000D7834 uTPLb_StreamUtils.sub_004D8834_004D8834
 0001:000D79AC uTPLb_StreamUtils.sub_004D89AC_004D89AC
 0001:000D7A0C uTPLb_StreamUtils.sub_004D8A0C_004D8A0C
 0001:000D7A50 uTPLb_StreamUtils.sub_004D8A50_004D8A50
 0001:000D7BCC uTPLb_StreamUtils.sub_004D8BCC_004D8BCC
 0001:000D7BEC uTPLb_StreamUtils.sub_004D8BEC_004D8BEC
 0001:000D7D1C uTPLb_StreamUtils.sub_004D8D1C_004D8D1C
 0001:000D7D98 uTPLb_StreamUtils.sub_004D8D98_004D8D98
 0001:000D7DFC uTPLb_StreamUtils.sub_004D8DFC_004D8DFC
 0001:000D7E40 uTPLb_StreamUtils.TDesalinationWriteStream.GetSize_004D8E40
 0001:000D7E64 uTPLb_StreamUtils.TDesalinationWriteStream.Read_004D8E64
 0001:000D7E80 uTPLb_StreamUtils.TDesalinationWriteStream.Seek_004D8E80
 0001:000D7ECC uTPLb_StreamUtils.TDesalinationWriteStream.SetSize_004D8ECC
 0001:000D7ED8 uTPLb_StreamUtils.TDesalinationWriteStream.Write_004D8ED8
 0001:000D7F70 uTPLb_StreamUtils.Finalization_004D8F70
 0001:000D8274 _Unit47.TBlockChainLink.Create_004D9274
 0001:000D8308 _Unit47.sub_004D9308_004D9308
 0001:000D8328 _Unit47.sub_004D9328_004D9328
 0001:000D8368 _Unit47.sub_004D9368_004D9368
 0001:000D8384 _Unit47.sub_004D9384_004D9384
 0001:000D83A4 _Unit47.sub_004D93A4_004D93A4
 0001:000D83C0 _Unit47.TBlockChainLink.Destroy_004D93C0
 0001:000D8608 _Unit47.TTPLb_BaseNonVisualComponent.GetAbout_004D9608
 0001:000D8648 _Unit47.TTPLb_BaseNonVisualComponent.SetAbout_004D9648
 0001:000D8A3C _Unit47.sub_004D9A3C_004D9A3C
 0001:000D8A58 _Unit47.sub_004D9A58_004D9A58
 0001:000D8A8C _Unit47.sub_004D9A8C_004D9A8C
 0001:000D8AC0 _Unit47.sub_004D9AC0_004D9AC0
 0001:000D8B88 _Unit47.sub_004D9B88_004D9B88
 0001:000D8BA8 _Unit47.sub_004D9BA8_004D9BA8
 0001:000D8BC8 _Unit47.sub_004D9BC8_004D9BC8
 0001:000D8C0C _Unit47.sub_004D9C0C_004D9C0C
 0001:000D8CB4 _Unit47.sub_004D9CB4_004D9CB4
 0001:000D8CDC _Unit47.sub_004D9CDC_004D9CDC
 0001:000D8EE0 _Unit47.sub_004D9EE0_004D9EE0
 0001:000D8EFC _Unit47.sub_004D9EFC_004D9EFC
 0001:000D8F40 _Unit47.sub_004D9F40_004D9F40
 0001:000D8F74 _Unit47.sub_004D9F74_004D9F74
 0001:000D903C _Unit47.sub_004DA03C_004DA03C
 0001:000D9070 _Unit47.sub_004DA070_004DA070
 0001:000D9090 _Unit47.sub_004DA090_004DA090
 0001:000D90D4 _Unit47.sub_004DA0D4_004DA0D4
 0001:000D916C _Unit47.sub_004DA16C_004DA16C
 0001:000D9194 _Unit47.TCBCLink.Destroy_004DA194
 0001:000D91D0 _Unit47.sub_004DA1D0_004DA1D0
 0001:000D9208 _Unit47.sub_004DA208_004DA208
 0001:000D925C _Unit47.sub_004DA25C_004DA25C
 0001:000D9488 _Unit47.sub_004DA488_004DA488
 0001:000D94A4 _Unit47.sub_004DA4A4_004DA4A4
 0001:000D94D8 _Unit47.sub_004DA4D8_004DA4D8
 0001:000D950C _Unit47.sub_004DA50C_004DA50C
 0001:000D9524 _Unit47.sub_004DA524_004DA524
 0001:000D955C _Unit47.sub_004DA55C_004DA55C
 0001:000D957C _Unit47.sub_004DA57C_004DA57C
 0001:000D95C0 _Unit47.sub_004DA5C0_004DA5C0
 0001:000D9688 _Unit47.TPCBCLink.Create_004DA688
 0001:000D9704 _Unit47.sub_004DA704_004DA704
 0001:000D9748 _Unit47.sub_004DA748_004DA748
 0001:000D9768 _Unit47.TPCBCLink.Destroy_004DA768
 0001:000D97A4 _Unit47.sub_004DA7A4_004DA7A4
 0001:000D9800 _Unit47.sub_004DA800_004DA800
 0001:000D9A54 _Unit47.sub_004DAA54_004DAA54
 0001:000D9A70 _Unit47.sub_004DAA70_004DAA70
 0001:000D9AA4 _Unit47.sub_004DAAA4_004DAAA4
 0001:000D9AD8 _Unit47.sub_004DAAD8_004DAAD8
 0001:000D9BA0 _Unit47.sub_004DABA0_004DABA0
 0001:000D9BD4 _Unit47.sub_004DABD4_004DABD4
 0001:000D9BF4 _Unit47.sub_004DABF4_004DABF4
 0001:000D9C38 _Unit47.sub_004DAC38_004DAC38
 0001:000D9CD8 _Unit47.sub_004DACD8_004DACD8
 0001:000D9D1C _Unit47.sub_004DAD1C_004DAD1C
 0001:000D9D60 _Unit47.sub_004DAD60_004DAD60
 0001:000D9D7C _Unit47.sub_004DAD7C_004DAD7C
 0001:000D9D9C _Unit47.sub_004DAD9C_004DAD9C
 0001:000D9DD4 _Unit47.sub_004DADD4_004DADD4
 0001:000D9DF0 _Unit47.sub_004DADF0_004DADF0
 0001:000DA01C _Unit47.sub_004DB01C_004DB01C
 0001:000DA038 _Unit47.sub_004DB038_004DB038
 0001:000DA06C _Unit47.sub_004DB06C_004DB06C
 0001:000DA0A0 _Unit47.sub_004DB0A0_004DB0A0
 0001:000DA168 _Unit47.sub_004DB168_004DB168
 0001:000DA188 _Unit47.sub_004DB188_004DB188
 0001:000DA1A8 _Unit47.sub_004DB1A8_004DB1A8
 0001:000DA1F4 _Unit47.sub_004DB1F4_004DB1F4
 0001:000DA294 _Unit47.sub_004DB294_004DB294
 0001:000DA2A8 _Unit47.sub_004DB2A8_004DB2A8
 0001:000DA2BC _Unit47.TCFB_8BitLink.Destroy_004DB2BC
 0001:000DA304 _Unit47.TCFB_8BitLink.Create_004DB304
 0001:000DA3C4 _Unit47.sub_004DB3C4_004DB3C4
 0001:000DA41C _Unit47.sub_004DB41C_004DB41C
 0001:000DA43C _Unit47.sub_004DB43C_004DB43C
 0001:000DA4D0 _Unit47.sub_004DB4D0_004DB4D0
 0001:000DA73C _Unit47.sub_004DB73C_004DB73C
 0001:000DA758 _Unit47.sub_004DB758_004DB758
 0001:000DA78C _Unit47.sub_004DB78C_004DB78C
 0001:000DA7C0 _Unit47.sub_004DB7C0_004DB7C0
 0001:000DA888 _Unit47.sub_004DB888_004DB888
 0001:000DA8BC _Unit47.sub_004DB8BC_004DB8BC
 0001:000DA8DC _Unit47.sub_004DB8DC_004DB8DC
 0001:000DA920 _Unit47.sub_004DB920_004DB920
 0001:000DA9C0 _Unit47.sub_004DB9C0_004DB9C0
 0001:000DA9F8 _Unit47.sub_004DB9F8_004DB9F8
 0001:000DAC0C _Unit47.sub_004DBC0C_004DBC0C
 0001:000DAC28 _Unit47.sub_004DBC28_004DBC28
 0001:000DAC5C _Unit47.sub_004DBC5C_004DBC5C
 0001:000DAC90 _Unit47.sub_004DBC90_004DBC90
 0001:000DAD58 _Unit47.sub_004DBD58_004DBD58
 0001:000DAD8C _Unit47.sub_004DBD8C_004DBD8C
 0001:000DADAC _Unit47.sub_004DBDAC_004DBDAC
 0001:000DADF0 _Unit47.sub_004DBDF0_004DBDF0
 0001:000DAE80 _Unit47.sub_004DBE80_004DBE80
 0001:000DAEAC _Unit47.TCTRLink.Create_004DBEAC
 0001:000DAF40 _Unit47.sub_004DBF40_004DBF40
 0001:000DAF88 _Unit47.sub_004DBF88_004DBF88
 0001:000DAFD0 _Unit47.sub_004DBFD0_004DBFD0
 0001:000DB018 _Unit47.sub_004DC018_004DC018
 0001:000DB040 _Unit47.sub_004DC040_004DC040
 0001:000DB068 _Unit47.sub_004DC068_004DC068
 0001:000DB304 _Unit47.sub_004DC304_004DC304
 0001:000DB33C _Unit47.sub_004DC33C_004DC33C
 0001:000DB38C _Unit47.sub_004DC38C_004DC38C
 0001:000DB3AC _Unit47.sub_004DC3AC_004DC3AC
 0001:000DB434 _Unit47.sub_004DC434_004DC434
 0001:000DB44C _Unit47.sub_004DC44C_004DC44C
 0001:000DB464 _Unit47.sub_004DC464_004DC464
 0001:000DB49C _Unit47.sub_004DC49C_004DC49C
 0001:000DB4CC _Unit47.sub_004DC4CC_004DC4CC
 0001:000DB4F8 _Unit47.TSHA1_Hasher.Create_004DC4F8
 0001:000DB574 _Unit47.sub_004DC574_004DC574
 0001:000DB840 _Unit47.sub_004DC840_004DC840
 0001:000DB8A8 _Unit47.sub_004DC8A8_004DC8A8
 0001:000DB904 _Unit47.sub_004DC904_004DC904
 0001:000DC430 _Unit47.sub_004DD430_004DD430
 0001:000DC4CC _Unit47.sub_004DD4CC_004DD4CC
 0001:000DC594 _Unit47.sub_004DD594_004DD594
 0001:000DC670 _Unit47.sub_004DD670_004DD670
 0001:000DC804 _Unit47.sub_004DD804_004DD804
 0001:000DC988 _Unit47.sub_004DD988_004DD988
 0001:000DCC78 _Unit47.sub_004DDC78_004DDC78
 0001:000DCCAC _Unit47.sub_004DDCAC_004DDCAC
 0001:000DCCFC _Unit47.sub_004DDCFC_004DDCFC
 0001:000DCD30 _Unit47.sub_004DDD30_004DDD30
 0001:000DCD70 _Unit47.sub_004DDD70_004DDD70
 0001:000DCD88 _Unit47.TSHA2.Create_004DDD88
 0001:000DCDCC _Unit47.sub_004DDDCC_004DDDCC
 0001:000DCE98 _Unit47.sub_004DDE98_004DDE98
 0001:000DCF44 _Unit47.sub_004DDF44_004DDF44
 0001:000DCF88 _Unit47.sub_004DDF88_004DDF88
 0001:000DCFB8 _Unit47.sub_004DDFB8_004DDFB8
 0001:000DD140 _Unit47.sub_004DE140_004DE140
 0001:000DD168 _Unit47.sub_004DE168_004DE168
 0001:000DD18C _Unit47.sub_004DE18C_004DE18C
 0001:000DD1C4 _Unit47.sub_004DE1C4_004DE1C4
 0001:000DD228 _Unit47.sub_004DE228_004DE228
 0001:000DD284 _Unit47.sub_004DE284_004DE284
 0001:000DD430 _Unit47.sub_004DE430_004DE430
 0001:000DD6F8 _Unit47.sub_004DE6F8_004DE6F8
 0001:000DD72C _Unit47.sub_004DE72C_004DE72C
 0001:000DD75C _Unit47.sub_004DE75C_004DE75C
 0001:000DD7D0 _Unit47.sub_004DE7D0_004DE7D0
 0001:000DD82C _Unit47.sub_004DE82C_004DE82C
 0001:000DD85C _Unit47.sub_004DE85C_004DE85C
 0001:000DD8C8 _Unit47.sub_004DE8C8_004DE8C8
 0001:000DD95C _Unit47.sub_004DE95C_004DE95C
 0001:000DDB1C _Unit47.sub_004DEB1C_004DEB1C
 0001:000DDE10 _Unit47.sub_004DEE10_004DEE10
 0001:000DDE44 _Unit47.sub_004DEE44_004DEE44
 0001:000DDE74 _Unit47.sub_004DEE74_004DEE74
 0001:000DDF30 _Unit47.sub_004DEF30_004DEF30
 0001:000DDFC4 _Unit47.sub_004DEFC4_004DEFC4
 0001:000DE064 _Unit47.sub_004DF064_004DF064
 0001:000DE0FC _Unit47.sub_004DF0FC_004DF0FC
 0001:000DE190 _Unit47.sub_004DF190_004DF190
 0001:000DE230 _Unit47.sub_004DF230_004DF230
 0001:000DE29C _Unit47.sub_004DF29C_004DF29C
 0001:000DE330 _Unit47.sub_004DF330_004DF330
 0001:000DE3D0 _Unit47.sub_004DF3D0_004DF3D0
 0001:000DE444 _Unit47.Finalization_004DF444
 0001:000DE710 _Unit48.sub_004DF710_004DF710
 0001:000DE784 _Unit48.sub_004DF784_004DF784
 0001:000DE79C _Unit48.sub_004DF79C_004DF79C
 0001:000DE7D0 _Unit48.sub_004DF7D0_004DF7D0
 0001:000DE7F0 _Unit48.sub_004DF7F0_004DF7F0
 0001:000DE820 _Unit48.sub_004DF820_004DF820
 0001:000DE86C _Unit48.sub_004DF86C_004DF86C
 0001:000DE884 _Unit48.sub_004DF884_004DF884
 0001:000DE8B8 _Unit48.TMD5_Hasher.Create_004DF8B8
 0001:000DE918 _Unit48.sub_004DF918_004DF918
 0001:000DE950 _Unit48.sub_004DF950_004DF950
 0001:000DEC38 _Unit48.sub_004DFC38_004DFC38
 0001:000DEC88 _Unit48.sub_004DFC88_004DFC88
 0001:000DECC4 _Unit48.sub_004DFCC4_004DFCC4
 0001:000DECF4 _Unit48.sub_004DFCF4_004DFCF4
 0001:000DFA64 _Unit48.sub_004E0A64_004E0A64
 0001:000DFAE8 _Unit48.TStreamToBlock_Adapter.Create_004E0AE8
 0001:000DFB30 _Unit48.sub_004E0B30_004E0B30
 0001:000DFB48 _Unit48.sub_004E0B48_004E0B48
 0001:000DFB80 _Unit48.sub_004E0B80_004E0B80
 0001:000DFBA0 _Unit48.sub_004E0BA0_004E0BA0
 0001:000DFBD4 _Unit48.sub_004E0BD4_004E0BD4
 0001:000DFC10 _Unit48.sub_004E0C10_004E0C10
 0001:000DFD68 _Unit48.sub_004E0D68_004E0D68
 0001:000DFDC0 _Unit48.sub_004E0DC0_004E0DC0
 0001:000DFDF0 _Unit48.sub_004E0DF0_004E0DF0
 0001:000DFF1C _Unit48.sub_004E0F1C_004E0F1C
 0001:000E0048 _Unit48.sub_004E1048_004E1048
 0001:000E0164 _Unit48.sub_004E1164_004E1164
 0001:000E0280 _Unit48.sub_004E1280_004E1280
 0001:000E0298 _Unit48.TNoNonceEncryptor.Create_004E1298
 0001:000E0368 _Unit48.sub_004E1368_004E1368
 0001:000E0458 _Unit48.sub_004E1458_004E1458
 0001:000E04E4 _Unit48.sub_004E14E4_004E14E4
 0001:000E0524 _Unit48.TNoNonceEncryptor.Destroy_004E1524
 0001:000E056C _Unit48.TNoncibleEncryptor.Create_004E156C
 0001:000E0688 _Unit48.sub_004E1688_004E1688
 0001:000E0968 _Unit48.sub_004E1968_004E1968
 0001:000E0CA4 _Unit48.sub_004E1CA4_004E1CA4
 0001:000E0D1C _Unit48.TNoncibleEncryptor.Destroy_004E1D1C
 0001:000E0DC0 _Unit48.TNoNonceDecryptor.Create_004E1DC0
 0001:000E0E90 _Unit48.sub_004E1E90_004E1E90
 0001:000E0FF4 _Unit48.sub_004E1FF4_004E1FF4
 0001:000E11E0 _Unit48.sub_004E21E0_004E21E0
 0001:000E1220 _Unit48.TNoNonceDecryptor.Destroy_004E2220
 0001:000E127C _Unit48.sub_004E227C_004E227C
 0001:000E12AC _Unit48.TNoncibleDecryptor.Create_004E22AC
 0001:000E13E4 _Unit48.sub_004E23E4_004E23E4
 0001:000E1610 _Unit48.sub_004E2610_004E2610
 0001:000E194C _Unit48.sub_004E294C_004E294C
 0001:000E1A04 _Unit48.TNoncibleDecryptor.Destroy_004E2A04
 0001:000E1A94 _Unit48.sub_004E2A94_004E2A94
 0001:000E1C48 _Unit48.sub_004E2C48_004E2C48
 0001:000E1C88 _Unit48.sub_004E2C88_004E2C88
 0001:000E1CC8 _Unit48.TEncryptorDecryptor.Destroy_004E2CC8
 0001:000E1D70 _Unit48.sub_004E2D70_004E2D70
 0001:000E1EBC _Unit48.sub_004E2EBC_004E2EBC
 0001:000E1EEC _Unit48.sub_004E2EEC_004E2EEC
 0001:000E1F44 _Unit48.TOpenSSLCompatEncryptor.Create_004E2F44
 0001:000E1FF0 _Unit48.TOpenSSLCompatEncryptor.Create_004E2FF0
 0001:000E20A0 _Unit48.TOpenSSLCompatEncryptor.Destroy_004E30A0
 0001:000E20D4 _Unit48.sub_004E30D4_004E30D4
 0001:000E21D4 _Unit48.sub_004E31D4_004E31D4
 0001:000E2268 _Unit48.sub_004E3268_004E3268
 0001:000E227C _Unit48.sub_004E327C_004E327C
 0001:000E228C _Unit48.TOpenSSLCompatDecryptor.Destroy_004E328C
 0001:000E22C0 _Unit48.sub_004E32C0_004E32C0
 0001:000E22CC _Unit48.sub_004E32CC_004E32CC
 0001:000E22E0 _Unit48.TOpenSSLCompatDecryptor.Create_004E32E0
 0001:000E231C _Unit48.TOpenSSLCompatDecryptor.Create_004E331C
 0001:000E23F8 _Unit48.sub_004E33F8_004E33F8
 0001:000E2404 _Unit48.sub_004E3404_004E3404
 0001:000E25F4 _Unit48.sub_004E35F4_004E35F4
 0001:000E2668 _Unit48.sub_004E3668_004E3668
 0001:000E2688 _Unit48.sub_004E3688_004E3688
 0001:000E26A8 _Unit48.sub_004E36A8_004E36A8
 0001:000E26CC _Unit48.sub_004E36CC_004E36CC
 0001:000E26F0 _Unit48.sub_004E36F0_004E36F0
 0001:000E270C _Unit48.sub_004E370C_004E370C
 0001:000E2754 _Unit48.sub_004E3754_004E3754
 0001:000E292C _Unit48.sub_004E392C_004E392C
 0001:000E2964 _Unit48.sub_004E3964_004E3964
 0001:000E299C _Unit48.sub_004E399C_004E399C
 0001:000E29D8 _Unit48.TBase64Conv.Create_004E39D8
 0001:000E2A80 _Unit48.sub_004E3A80_004E3A80
 0001:000E2B50 _Unit48.sub_004E3B50_004E3B50
 0001:000E2BD0 _Unit48.sub_004E3BD0_004E3BD0
 0001:000E2CD0 _Unit48.sub_004E3CD0_004E3CD0
 0001:000E2D68 _Unit48.sub_004E3D68_004E3D68
 0001:000E3158 _Unit48.sub_004E4158_004E4158
 0001:000E32C8 _Unit48.sub_004E42C8_004E42C8
 0001:000E3308 _Unit48.sub_004E4308_004E4308
 0001:000E3320 _Unit48.TPooledMemoryStream.Create_004E4320
 0001:000E33E0 _Unit48.TPooledMemoryStream.Realloc_004E43E0
 0001:000E35A4 _Unit48.sub_004E45A4_004E45A4
 0001:000E35C4 _Unit48.sub_004E45C4_004E45C4
 0001:000E35F4 _Unit48.TMemoryStreamPool.Create_004E45F4
 0001:000E3688 _Unit48.TMemoryStreamPool.Destroy_004E4688
 0001:000E36DC _Unit48.sub_004E46DC_004E46DC
 0001:000E3744 _Unit48.sub_004E4744_004E4744
 0001:000E3808 _Unit48.sub_004E4808_004E4808
 0001:000E382C _Unit48.sub_004E482C_004E482C
 0001:000E3858 _Unit48.sub_004E4858_004E4858
 0001:000E38D0 _Unit48.sub_004E48D0_004E48D0
 0001:000E38EC _Unit48.TAllocationRecordListObj.Create_004E48EC
 0001:000E39B0 _Unit48.sub_004E49B0_004E49B0
 0001:000E39D8 _Unit48.sub_004E49D8_004E49D8
 0001:000E3A50 _Unit48.sub_004E4A50_004E4A50
 0001:000E3AC4 _Unit48.sub_004E4AC4_004E4AC4
 0001:000E3C6C _Unit48.sub_004E4C6C_004E4C6C
 0001:000E3CBC _Unit48.sub_004E4CBC_004E4CBC
 0001:000E3D38 _Unit48.sub_004E4D38_004E4D38
 0001:000E3D7C _Unit48.sub_004E4D7C_004E4D7C
 0001:000E3DD8 _Unit48.THugeCardinal.Create_004E4DD8
 0001:000E3E88 _Unit48.THugeCardinal.Create_004E4E88
 0001:000E3FC8 _Unit48.THugeCardinal.Create_004E4FC8
 0001:000E4054 _Unit48.THugeCardinal.Create_004E5054
 0001:000E40C4 _Unit48.sub_004E50C4_004E50C4
 0001:000E4104 _Unit48.sub_004E5104_004E5104
 0001:000E425C _Unit48.THugeCardinal.Create_004E525C
 0001:000E42AC _Unit48.THugeCardinal.Create_004E52AC
 0001:000E432C _Unit48.THugeCardinal.Create_004E532C
 0001:000E4404 _Unit48.sub_004E5404_004E5404
 0001:000E4430 _Unit48.sub_004E5430_004E5430
 0001:000E4494 _Unit48.sub_004E5494_004E5494
 0001:000E4660 _Unit48.sub_004E5660_004E5660
 0001:000E4744 _Unit48.sub_004E5744_004E5744
 0001:000E4788 _Unit48.sub_004E5788_004E5788
 0001:000E47AC _Unit48.sub_004E57AC_004E57AC
 0001:000E47CC _Unit48.sub_004E57CC_004E57CC
 0001:000E4894 _Unit48.sub_004E5894_004E5894
 0001:000E48B8 _Unit48.sub_004E58B8_004E58B8
 0001:000E48E4 _Unit48.sub_004E58E4_004E58E4
 0001:000E4914 _Unit48.sub_004E5914_004E5914
 0001:000E49E4 _Unit48.sub_004E59E4_004E59E4
 0001:000E4A48 _Unit48.sub_004E5A48_004E5A48
 0001:000E4AAC _Unit48.sub_004E5AAC_004E5AAC
 0001:000E4C50 _Unit48.sub_004E5C50_004E5C50
 0001:000E4CA8 _Unit48.sub_004E5CA8_004E5CA8
 0001:000E4CC8 _Unit48.sub_004E5CC8_004E5CC8
 0001:000E4CEC _Unit48.sub_004E5CEC_004E5CEC
 0001:000E4D08 _Unit48.sub_004E5D08_004E5D08
 0001:000E4D3C _Unit48.sub_004E5D3C_004E5D3C
 0001:000E4D68 _Unit48.sub_004E5D68_004E5D68
 0001:000E510C _Unit48.sub_004E610C_004E610C
 0001:000E5170 _Unit48.sub_004E6170_004E6170
 0001:000E5474 _Unit48.sub_004E6474_004E6474
 0001:000E54D8 _Unit48.sub_004E64D8_004E64D8
 0001:000E5718 _Unit48.sub_004E6718_004E6718
 0001:000E5850 _Unit48.sub_004E6850_004E6850
 0001:000E58E0 _Unit48.sub_004E68E0_004E68E0
 0001:000E5944 _Unit48.sub_004E6944_004E6944
 0001:000E5A44 _Unit48.sub_004E6A44_004E6A44
 0001:000E5AEC _Unit48.sub_004E6AEC_004E6AEC
 0001:000E5C6C _Unit48.sub_004E6C6C_004E6C6C
 0001:000E5E8C _Unit48.sub_004E6E8C_004E6E8C
 0001:000E5FA0 _Unit48.sub_004E6FA0_004E6FA0
 0001:000E6004 _Unit48.sub_004E7004_004E7004
 0001:000E620C _Unit48.sub_004E720C_004E720C
 0001:000E6230 _Unit48.sub_004E7230_004E7230
 0001:000E6274 _Unit48.sub_004E7274_004E7274
 0001:000E6420 _Unit48.sub_004E7420_004E7420
 0001:000E64FC _Unit48.sub_004E74FC_004E74FC
 0001:000E6998 _Unit48.TSimpleHash.Create_004E7998
 0001:000E6A04 _Unit48.TSimpleHash.Destroy_004E7A04
 0001:000E6A5C _Unit48.sub_004E7A5C_004E7A5C
 0001:000E6BF4 _Unit48.sub_004E7BF4_004E7BF4
 0001:000E6C4C _Unit48.sub_004E7C4C_004E7C4C
 0001:000E6CE4 _Unit48.sub_004E7CE4_004E7CE4
 0001:000E6D04 _Unit48.sub_004E7D04_004E7D04
 0001:000E6D24 _Unit48.sub_004E7D24_004E7D24
 0001:000E6D40 _Unit48.sub_004E7D40_004E7D40
 0001:000E6D5C _Unit48.sub_004E7D5C_004E7D5C
 0001:000E6D80 _Unit48.sub_004E7D80_004E7D80
 0001:000E6DF8 _Unit48.sub_004E7DF8_004E7DF8
 0001:000E6E54 _Unit48.sub_004E7E54_004E7E54
 0001:000E6EF0 _Unit48.sub_004E7EF0_004E7EF0
 0001:000E6F68 _Unit48.sub_004E7F68_004E7F68
 0001:000E6F84 _Unit48.sub_004E7F84_004E7F84
 0001:000E6FA0 _Unit48.sub_004E7FA0_004E7FA0
 0001:000E7098 _Unit48.sub_004E8098_004E8098
 0001:000E70B4 _Unit48.sub_004E80B4_004E80B4
 0001:000E724C _Unit48.sub_004E824C_004E824C
 0001:000E7298 _Unit48.sub_004E8298_004E8298
 0001:000E733C _Unit48.sub_004E833C_004E833C
 0001:000E7390 _Unit48.sub_004E8390_004E8390
 0001:000E7430 _Unit48.sub_004E8430_004E8430
 0001:000E7450 _Unit48.sub_004E8450_004E8450
 0001:000E74C8 _Unit48.sub_004E84C8_004E84C8
 0001:000E74F0 _Unit48.sub_004E84F0_004E84F0
 0001:000E7528 _Unit48.sub_004E8528_004E8528
 0001:000E7574 _Unit48.sub_004E8574_004E8574
 0001:000E766C _Unit48.sub_004E866C_004E866C
 0001:000E7810 _Unit48.sub_004E8810_004E8810
 0001:000E7884 _Unit48.sub_004E8884_004E8884
 0001:000E7960 _Unit48.sub_004E8960_004E8960
 0001:000E799C _Unit48.sub_004E899C_004E899C
 0001:000E79C0 _Unit48.sub_004E89C0_004E89C0
 0001:000E7D88 _Unit48.sub_004E8D88_004E8D88
 0001:000E7DC4 _Unit48.sub_004E8DC4_004E8DC4
 0001:000E81A8 _Unit48.sub_004E91A8_004E91A8
 0001:000E81F8 _Unit48.sub_004E91F8_004E91F8
 0001:000E83E0 _Unit48.sub_004E93E0_004E93E0
 0001:000E8430 _Unit48.sub_004E9430_004E9430
 0001:000E860C _Unit48.sub_004E960C_004E960C
 0001:000E8804 _Unit48.sub_004E9804_004E9804
 0001:000E8B38 _Unit48.sub_004E9B38_004E9B38
 0001:000E8FCC _Unit48.sub_004E9FCC_004E9FCC
 0001:000E9194 _Unit48.sub_004EA194_004EA194
 0001:000E9350 _Unit48.TDocumentProgressMonitor.Create_004EA350
 0001:000E93D4 _Unit48.Finalization_004EA3D4
 0001:000E9420 _Unit49.sub_004EA420_004EA420
 0001:000E943C _Unit49.sub_004EA43C_004EA43C
 0001:000E9440 _Unit49.sub_004EA440_004EA440
 0001:000E9578 _Unit49.sub_004EA578_004EA578
 0001:000E96AC _Unit49.sub_004EA6AC_004EA6AC
 0001:000E9868 _Unit49.sub_004EA868_004EA868
 0001:000E98B8 _Unit49.sub_004EA8B8_004EA8B8
 0001:000E9A10 _Unit49.sub_004EAA10_004EAA10
 0001:000E9B48 _Unit49.sub_004EAB48_004EAB48
 0001:000E9D50 _Unit49.sub_004EAD50_004EAD50
 0001:000EA0EC _Unit49.sub_004EB0EC_004EB0EC
 0001:000EA138 _Unit49.sub_004EB138_004EB138
 0001:000EA174 _Unit49.sub_004EB174_004EB174
 0001:000EA488 _Unit49.sub_004EB488_004EB488
 0001:000EA5FC _Unit49.sub_004EB5FC_004EB5FC
 0001:000EA854 _Unit49.sub_004EB854_004EB854
 0001:000EA8BC _Unit49.sub_004EB8BC_004EB8BC
 0001:000EAFDC _Unit49.sub_004EBFDC_004EBFDC
 0001:000EB16C _Unit49.Finalization_004EC16C
 0001:000EB814 uTPLb_RSA_Engine.sub_004EC814_004EC814
 0001:000EB82C uTPLb_RSA_Engine.sub_004EC82C_004EC82C
 0001:000EB844 uTPLb_RSA_Engine.sub_004EC844_004EC844
 0001:000EB8B8 uTPLb_RSA_Engine.sub_004EC8B8_004EC8B8
 0001:000EB8D8 uTPLb_RSA_Engine.sub_004EC8D8_004EC8D8
 0001:000EB8F0 uTPLb_RSA_Engine.sub_004EC8F0_004EC8F0
 0001:000EBAE8 uTPLb_RSA_Engine.sub_004ECAE8_004ECAE8
 0001:000EBB18 uTPLb_RSA_Engine.sub_004ECB18_004ECB18
 0001:000EBD74 uTPLb_RSA_Engine.sub_004ECD74_004ECD74
 0001:000EBDAC uTPLb_RSA_Engine.sub_004ECDAC_004ECDAC
 0001:000EBDDC uTPLb_RSA_Engine.sub_004ECDDC_004ECDDC
 0001:000EBE20 uTPLb_RSA_Engine.sub_004ECE20_004ECE20
 0001:000EBE54 uTPLb_RSA_Engine.sub_004ECE54_004ECE54
 0001:000EBE6C uTPLb_RSA_Engine.sub_004ECE6C_004ECE6C
 0001:000EBEAC uTPLb_RSA_Engine.sub_004ECEAC_004ECEAC
 0001:000EBF9C uTPLb_RSA_Engine.sub_004ECF9C_004ECF9C
 0001:000EBFD4 uTPLb_RSA_Engine.sub_004ECFD4_004ECFD4
 0001:000EC154 uTPLb_RSA_Engine.sub_004ED154_004ED154
 0001:000EC31C uTPLb_RSA_Engine.sub_004ED31C_004ED31C
 0001:000EC354 uTPLb_RSA_Engine.sub_004ED354_004ED354
 0001:000EC474 uTPLb_RSA_Engine.sub_004ED474_004ED474
 0001:000EC578 uTPLb_RSA_Engine.sub_004ED578_004ED578
 0001:000EC5A0 uTPLb_RSA_Engine.sub_004ED5A0_004ED5A0
 0001:000EC66C uTPLb_RSA_Engine.sub_004ED66C_004ED66C
 0001:000EC7A0 uTPLb_RSA_Engine.sub_004ED7A0_004ED7A0
 0001:000EC810 uTPLb_RSA_Engine.sub_004ED810_004ED810
 0001:000EC834 uTPLb_RSA_Engine.sub_004ED834_004ED834
 0001:000EC8F0 uTPLb_RSA_Engine.sub_004ED8F0_004ED8F0
 0001:000ECA14 uTPLb_RSA_Engine.sub_004EDA14_004EDA14
 0001:000ECA34 uTPLb_RSA_Engine.sub_004EDA34_004EDA34
 0001:000ECA68 uTPLb_RSA_Engine.sub_004EDA68_004EDA68
 0001:000ECAAC uTPLb_RSA_Engine.sub_004EDAAC_004EDAAC
 0001:000ECAF0 uTPLb_RSA_Engine.sub_004EDAF0_004EDAF0
 0001:000ECB20 uTPLb_RSA_Engine.sub_004EDB20_004EDB20
 0001:000ECB38 uTPLb_RSA_Engine.sub_004EDB38_004EDB38
 0001:000ECB7C uTPLb_RSA_Engine.sub_004EDB7C_004EDB7C
 0001:000ECBC0 uTPLb_RSA_Engine.sub_004EDBC0_004EDBC0
 0001:000ECBF8 uTPLb_RSA_Engine.sub_004EDBF8_004EDBF8
 0001:000ECC18 uTPLb_RSA_Engine.sub_004EDC18_004EDC18
 0001:000ECC4C uTPLb_RSA_Engine.sub_004EDC4C_004EDC4C
 0001:000ECCCC uTPLb_RSA_Engine.sub_004EDCCC_004EDCCC
 0001:000ECCFC uTPLb_RSA_Engine.sub_004EDCFC_004EDCFC
 0001:000ECD40 uTPLb_RSA_Engine.sub_004EDD40_004EDD40
 0001:000ECD68 uTPLb_RSA_Engine.sub_004EDD68_004EDD68
 0001:000ECE10 uTPLb_RSA_Engine.sub_004EDE10_004EDE10
 0001:000ECE48 uTPLb_RSA_Engine.sub_004EDE48_004EDE48
 0001:000ECE8C uTPLb_RSA_Engine.sub_004EDE8C_004EDE8C
 0001:000ECF98 uTPLb_RSA_Engine.TRSAKeyPair.Create_004EDF98
 0001:000ED09C uTPLb_RSA_Engine.sub_004EE09C_004EE09C
 0001:000ED1EC uTPLb_RSA_Engine.sub_004EE1EC_004EE1EC
 0001:000ED344 uTPLb_RSA_Engine.TRSAKeyPair.Destroy_004EE344
 0001:000ED3D8 uTPLb_RSA_Engine.sub_004EE3D8_004EE3D8
 0001:000ED6A8 uTPLb_RSA_Engine.TRSA_Gen_Key_Helper.Create_004EE6A8
 0001:000ED7F0 uTPLb_RSA_Engine.TMonitor.Create_004EE7F0
 0001:000ED884 uTPLb_RSA_Engine.sub_004EE884_004EE884
 0001:000ED8A4 uTPLb_RSA_Engine.THugeCardinalWrap.Create_004EE8A4
 0001:000ED924 uTPLb_RSA_Engine.sub_004EE924_004EE924
 0001:000ED958 uTPLb_RSA_Engine.sub_004EE958_004EE958
 0001:000ED974 uTPLb_RSA_Engine.Finalization_004EE974
 0001:000EE370 _Unit51.sub_004EF370_004EF370
 0001:000EE5E4 _Unit51.sub_004EF5E4_004EF5E4
 0001:000EE848 _Unit51.sub_004EF848_004EF848
 0001:000EE860 _Unit51.TXXTEA_LargeBlock.Create_004EF860
 0001:000EE898 _Unit51.sub_004EF898_004EF898
 0001:000EE924 _Unit51.sub_004EF924_004EF924
 0001:000EE998 _Unit51.sub_004EF998_004EF998
 0001:000EE9B8 _Unit51.sub_004EF9B8_004EF9B8
 0001:000EE9E0 _Unit51.sub_004EF9E0_004EF9E0
 0001:000EEA08 _Unit51.sub_004EFA08_004EFA08
 0001:000EEAD4 _Unit51.sub_004EFAD4_004EFAD4
 0001:000EEB3C _Unit51.sub_004EFB3C_004EFB3C
 0001:000EEB54 _Unit51.sub_004EFB54_004EFB54
 0001:000EEB9C _Unit51.sub_004EFB9C_004EFB9C
 0001:000EEBE4 _Unit51.sub_004EFBE4_004EFBE4
 0001:000EEC1C _Unit51.sub_004EFC1C_004EFC1C
 0001:000EEC38 _Unit51.TXXTEA_LE_Key.Create_004EFC38
 0001:000EEC88 _Unit51.sub_004EFC88_004EFC88
 0001:000EECAC _Unit51.TXXTEA_LargeBlock_LE_Encryptor.Create_004EFCAC
 0001:000EED7C _Unit51.sub_004EFD7C_004EFD7C
 0001:000EEF2C _Unit51.sub_004EFF2C_004EFF2C
 0001:000EF12C _Unit51.sub_004F012C_004F012C
 0001:000EF160 _Unit51.sub_004F0160_004F0160
 0001:000EF1A8 _Unit51.sub_004F01A8_004F01A8
 0001:000EF1D8 _Unit51.TXXTEA_LargeBlock_LE_Decryptor.Create_004F01D8
 0001:000EF25C _Unit51.sub_004F025C_004F025C
 0001:000EF4AC _Unit51.sub_004F04AC_004F04AC
 0001:000EF64C _Unit51.sub_004F064C_004F064C
 0001:000EF680 _Unit51.sub_004F0680_004F0680
 0001:000EF6C8 _Unit51.sub_004F06C8_004F06C8
 0001:000EF71C _Unit51.sub_004F071C_004F071C
 0001:000EF738 _Unit51.TXXTEA_Block.Create_004F0738
 0001:000EF77C _Unit51.sub_004F077C_004F077C
 0001:000EF794 _Unit51.sub_004F0794_004F0794
 0001:000EF7AC _Unit51.sub_004F07AC_004F07AC
 0001:000EF7CC _Unit51.sub_004F07CC_004F07CC
 0001:000EF7E4 _Unit51.sub_004F07E4_004F07E4
 0001:000EF7FC _Unit51.sub_004F07FC_004F07FC
 0001:000EF814 _Unit51.sub_004F0814_004F0814
 0001:000EF85C _Unit51.sub_004F085C_004F085C
 0001:000EF874 _Unit51.sub_004F0874_004F0874
 0001:000EF88C _Unit51.sub_004F088C_004F088C
 0001:000EF8A4 _Unit51.sub_004F08A4_004F08A4
 0001:000EF8BC _Unit51.sub_004F08BC_004F08BC
 0001:000EF8D4 _Unit51.sub_004F08D4_004F08D4
 0001:000EF8EC _Unit51.sub_004F08EC_004F08EC
 0001:000EF8F8 _Unit51.TXXTEA_BlockCodec.Create_004F08F8
 0001:000EF9A0 _Unit51.sub_004F09A0_004F09A0
 0001:000EF9FC _Unit51.sub_004F09FC_004F09FC
 0001:000EFA58 _Unit51.sub_004F0A58_004F0A58
 0001:000EFA84 _Unit51.TAbbrieviatingStream.Create_004F0A84
 0001:000EFB00 _Unit51.sub_004F0B00_004F0B00
 0001:000EFB28 _Unit51.TAbbrieviatingStream.GetSize_004F0B28
 0001:000EFB4C _Unit51.TAbbrieviatingStream.Read_004F0B4C
 0001:000EFB68 _Unit51.TAbbrieviatingStream.Seek_004F0B68
 0001:000EFB90 _Unit51.TAbbrieviatingStream.SetSize_004F0B90
 0001:000EFB9C _Unit51.TAbbrieviatingStream.Write_004F0B9C
 0001:000EFEA0 _Unit51.sub_004F0EA0_004F0EA0
 0001:000EFECC _Unit51.sub_004F0ECC_004F0ECC
 0001:000EFED0 _Unit51.sub_004F0ED0_004F0ED0
 0001:000F00E0 _Unit51.sub_004F10E0_004F10E0
 0001:000F00F8 _Unit51.sub_004F10F8_004F10F8
 0001:000F0110 _Unit51.TAES.Create_004F1110
 0001:000F01D0 _Unit51.sub_004F11D0_004F11D0
 0001:000F027C _Unit51.sub_004F127C_004F127C
 0001:000F02B8 _Unit51.sub_004F12B8_004F12B8
 0001:000F02E8 _Unit51.sub_004F12E8_004F12E8
 0001:000F0304 _Unit51.sub_004F1304_004F1304
 0001:000F035C _Unit51.sub_004F135C_004F135C
 0001:000F0380 _Unit51.sub_004F1380_004F1380
 0001:000F0494 _Unit51.sub_004F1494_004F1494
 0001:000F04E4 _Unit51.sub_004F14E4_004F14E4
 0001:000F05C8 _Unit51.sub_004F15C8_004F15C8
 0001:000F0630 _Unit51.sub_004F1630_004F1630
 0001:000F065C _Unit51.sub_004F165C_004F165C
 0001:000F0688 _Unit51.sub_004F1688_004F1688
 0001:000F06CC _Unit51.sub_004F16CC_004F16CC
 0001:000F06E8 _Unit51.TAESKey.Create_004F16E8
 0001:000F07C0 _Unit51.TAESKey.Destroy_004F17C0
 0001:000F07FC _Unit51.sub_004F17FC_004F17FC
 0001:000F0830 _Unit51.sub_004F1830_004F1830
 0001:000F0864 _Unit51.sub_004F1864_004F1864
 0001:000F093C _Unit51.TAESKey.Create_004F193C
 0001:000F0A14 _Unit51.sub_004F1A14_004F1A14
 0001:000F0A44 _Unit51.sub_004F1A44_004F1A44
 0001:000F0A60 _Unit51.TAESBlockCodec.Create_004F1A60
 0001:000F0B00 _Unit51.sub_004F1B00_004F1B00
 0001:000F0BAC _Unit51.sub_004F1BAC_004F1BAC
 0001:000F0C90 _Unit51.sub_004F1C90_004F1C90
 0001:000F0C9C _Unit51.sub_004F1C9C_004F1C9C
 0001:000F0CD4 _Unit51.sub_004F1CD4_004F1CD4
 0001:000F0D10 _Unit51.sub_004F1D10_004F1D10
 0001:000F0D28 _Unit51.sub_004F1D28_004F1D28
 0001:000F0D40 _Unit51.sub_004F1D40_004F1D40
 0001:000F0D74 _Unit51.sub_004F1D74_004F1D74
 0001:000F0E00 _Unit51.sub_004F1E00_004F1E00
 0001:000F0ED4 _Unit51.sub_004F1ED4_004F1ED4
 0001:000F0FA8 _Unit51.sub_004F1FA8_004F1FA8
 0001:000F0FDC _Unit51.Finalization_004F1FDC
 0001:000F132C _Unit52.sub_004F232C_004F232C
 0001:000F14C4 _Unit52.sub_004F24C4_004F24C4
 0001:000F17B0 _Unit52.sub_004F27B0_004F27B0
 0001:000F17EC _Unit52.sub_004F27EC_004F27EC
 0001:000F1898 _Unit52.sub_004F2898_004F2898
 0001:000F198C _Unit52.sub_004F298C_004F298C
 0001:000F1A4C _Unit52.sub_004F2A4C_004F2A4C
 0001:000F1AD8 _Unit52.sub_004F2AD8_004F2AD8
 0001:000F1CB8 _Unit52.sub_004F2CB8_004F2CB8
 0001:000F1D18 _Unit52.sub_004F2D18_004F2D18
 0001:000F1D7C _Unit52.sub_004F2D7C_004F2D7C
 0001:000F1D94 _Unit52.TDES.Create_004F2D94
 0001:000F1DCC _Unit52.sub_004F2DCC_004F2DCC
 0001:000F1E74 _Unit52.sub_004F2E74_004F2E74
 0001:000F1EA8 _Unit52.sub_004F2EA8_004F2EA8
 0001:000F1EC8 _Unit52.sub_004F2EC8_004F2EC8
 0001:000F1F00 _Unit52.sub_004F2F00_004F2F00
 0001:000F1F18 _Unit52.sub_004F2F18_004F2F18
 0001:000F1F40 _Unit52.sub_004F2F40_004F2F40
 0001:000F1F80 _Unit52.sub_004F2F80_004F2F80
 0001:000F1FC4 _Unit52.sub_004F2FC4_004F2FC4
 0001:000F1FDC _Unit52.sub_004F2FDC_004F2FDC
 0001:000F201C _Unit52.sub_004F301C_004F301C
 0001:000F205C _Unit52.sub_004F305C_004F305C
 0001:000F209C _Unit52.sub_004F309C_004F309C
 0001:000F20FC _Unit52.sub_004F30FC_004F30FC
 0001:000F2158 _Unit52.sub_004F3158_004F3158
 0001:000F21B0 _Unit52.TDESKey.Create_004F31B0
 0001:000F2218 _Unit52.TDESKey.Create_004F3218
 0001:000F22E0 _Unit52.sub_004F32E0_004F32E0
 0001:000F2308 _Unit52.sub_004F3308_004F3308
 0001:000F2338 _Unit52.TDESCodec.Create_004F3338
 0001:000F237C _Unit52.sub_004F337C_004F337C
 0001:000F23CC _Unit52.sub_004F33CC_004F33CC
 0001:000F241C _Unit52.sub_004F341C_004F341C
 0001:000F2428 _Unit52.sub_004F3428_004F3428
 0001:000F2A18 _Unit52.sub_004F3A18_004F3A18
 0001:000F2A30 _Unit52.T3DES.Create_004F3A30
 0001:000F2A68 _Unit52.sub_004F3A68_004F3A68
 0001:000F2B3C _Unit52.sub_004F3B3C_004F3B3C
 0001:000F2B98 _Unit52.sub_004F3B98_004F3B98
 0001:000F2BB8 _Unit52.sub_004F3BB8_004F3BB8
 0001:000F2C08 _Unit52.sub_004F3C08_004F3C08
 0001:000F2C20 _Unit52.sub_004F3C20_004F3C20
 0001:000F2C48 _Unit52.sub_004F3C48_004F3C48
 0001:000F2C88 _Unit52.sub_004F3C88_004F3C88
 0001:000F2CD0 _Unit52.sub_004F3CD0_004F3CD0
 0001:000F2CE8 _Unit52.sub_004F3CE8_004F3CE8
 0001:000F2D28 _Unit52.sub_004F3D28_004F3D28
 0001:000F2D78 _Unit52.sub_004F3D78_004F3D78
 0001:000F2DB8 _Unit52.sub_004F3DB8_004F3DB8
 0001:000F2DFC _Unit52.T3DESKey.Create_004F3DFC
 0001:000F2E94 _Unit52.T3DESKey.Create_004F3E94
 0001:000F2F98 _Unit52.sub_004F3F98_004F3F98
 0001:000F2FD0 _Unit52.sub_004F3FD0_004F3FD0
 0001:000F3024 _Unit52.T3DESCodec.Create_004F4024
 0001:000F3068 _Unit52.sub_004F4068_004F4068
 0001:000F30EC _Unit52.sub_004F40EC_004F40EC
 0001:000F3170 _Unit52.sub_004F4170_004F4170
 0001:000F317C _Unit52.sub_004F417C_004F417C
 0001:000F3188 _Unit52.sub_004F4188_004F4188
 0001:000F31E4 _Unit52.sub_004F41E4_004F41E4
 0001:000F3248 _Unit52.sub_004F4248_004F4248
 0001:000F3260 _Unit52.sub_004F4260_004F4260
 0001:000F3288 _Unit52.sub_004F4288_004F4288
 0001:000F32C8 _Unit52.sub_004F42C8_004F42C8
 0001:000F3310 _Unit52.sub_004F4310_004F4310
 0001:000F3328 _Unit52.sub_004F4328_004F4328
 0001:000F3388 _Unit52.sub_004F4388_004F4388
 0001:000F33C8 _Unit52.sub_004F43C8_004F43C8
 0001:000F3408 _Unit52.sub_004F4408_004F4408
 0001:000F3448 _Unit52.T3DESKey_KO1.Create_004F4448
 0001:000F34D8 _Unit52.T3DESKey_KO1.Create_004F44D8
 0001:000F35BC _Unit52.sub_004F45BC_004F45BC
 0001:000F35F0 _Unit52.T3DESCodec_KO1.Create_004F45F0
 0001:000F3640 _Unit52.sub_004F4640_004F4640
 0001:000F36C4 _Unit52.sub_004F46C4_004F46C4
 0001:000F39AC _Unit52.sub_004F49AC_004F49AC
 0001:000F3B10 _Unit52.sub_004F4B10_004F4B10
 0001:000F3C74 _Unit52.sub_004F4C74_004F4C74
 0001:000F4014 _Unit52.sub_004F5014_004F5014
 0001:000F402C _Unit52.sub_004F502C_004F502C
 0001:000F4044 _Unit52.TBlowFish.Create_004F5044
 0001:000F407C _Unit52.sub_004F507C_004F507C
 0001:000F4108 _Unit52.sub_004F5108_004F5108
 0001:000F4148 _Unit52.sub_004F5148_004F5148
 0001:000F4168 _Unit52.sub_004F5168_004F5168
 0001:000F4190 _Unit52.sub_004F5190_004F5190
 0001:000F41A8 _Unit52.sub_004F51A8_004F51A8
 0001:000F41D0 _Unit52.sub_004F51D0_004F51D0
 0001:000F4214 _Unit52.sub_004F5214_004F5214
 0001:000F4260 _Unit52.sub_004F5260_004F5260
 0001:000F4288 _Unit52.sub_004F5288_004F5288
 0001:000F42A0 _Unit52.sub_004F52A0_004F52A0
 0001:000F42B8 _Unit52.sub_004F52B8_004F52B8
 0001:000F42F8 _Unit52.sub_004F52F8_004F52F8
 0001:000F4320 _Unit52.sub_004F5320_004F5320
 0001:000F43C8 _Unit52.sub_004F53C8_004F53C8
 0001:000F4504 _Unit52.sub_004F5504_004F5504
 0001:000F453C _Unit52.sub_004F553C_004F553C
 0001:000F458C _Unit52.TBlowfishKey.Create_004F558C
 0001:000F4638 _Unit52.TBlowfishKey.Create_004F5638
 0001:000F4734 _Unit52.sub_004F5734_004F5734
 0001:000F47C8 _Unit52.sub_004F57C8_004F57C8
 0001:000F4800 _Unit52.TBlowfishBlockCodec.Create_004F5800
 0001:000F4850 _Unit52.sub_004F5850_004F5850
 0001:000F4890 _Unit52.sub_004F5890_004F5890
 0001:000F48D0 _Unit52.sub_004F58D0_004F58D0
 0001:000F48DC _Unit52.sub_004F58DC_004F58DC
 0001:000F48E8 _Unit52.sub_004F58E8_004F58E8
 0001:000F4918 _Unit52.sub_004F5918_004F5918
 0001:000F4974 _Unit52.sub_004F5974_004F5974
 0001:000F4994 _Unit52.sub_004F5994_004F5994
 0001:000F49C0 _Unit52.sub_004F59C0_004F59C0
 0001:000F4B1C _Unit52.sub_004F5B1C_004F5B1C
 0001:000F4D28 _Unit52.sub_004F5D28_004F5D28
 0001:000F4D78 _Unit52.sub_004F5D78_004F5D78
 0001:000F5878 _Unit52.sub_004F6878_004F6878
 0001:000F5B00 _Unit52.sub_004F6B00_004F6B00
 0001:000F5D8C _Unit52.sub_004F6D8C_004F6D8C
 0001:000F62BC _Unit52.sub_004F72BC_004F72BC
 0001:000F62C4 _Unit52.sub_004F72C4_004F72C4
 0001:000F62C8 _Unit52.sub_004F72C8_004F72C8
 0001:000F62E4 _Unit52.sub_004F72E4_004F72E4
 0001:000F62FC _Unit52.sub_004F72FC_004F72FC
 0001:000F6314 _Unit52.TTwoFish.Create_004F7314
 0001:000F634C _Unit52.sub_004F734C_004F734C
 0001:000F63D8 _Unit52.sub_004F73D8_004F73D8
 0001:000F6414 _Unit52.sub_004F7414_004F7414
 0001:000F6434 _Unit52.sub_004F7434_004F7434
 0001:000F645C _Unit52.sub_004F745C_004F745C
 0001:000F6474 _Unit52.sub_004F7474_004F7474
 0001:000F649C _Unit52.sub_004F749C_004F749C
 0001:000F64E0 _Unit52.sub_004F74E0_004F74E0
 0001:000F652C _Unit52.sub_004F752C_004F752C
 0001:000F6544 _Unit52.sub_004F7544_004F7544
 0001:000F655C _Unit52.sub_004F755C_004F755C
 0001:000F6574 _Unit52.sub_004F7574_004F7574
 0001:000F65C4 _Unit52.sub_004F75C4_004F75C4
 0001:000F6624 _Unit52.sub_004F7624_004F7624
 0001:000F6674 _Unit52.sub_004F7674_004F7674
 0001:000F66B0 _Unit52.TTwofishKey.Create_004F76B0
 0001:000F67A8 _Unit52.TTwofishKey.Create_004F77A8
 0001:000F67F4 _Unit52.sub_004F77F4_004F77F4
 0001:000F6824 _Unit52.sub_004F7824_004F7824
 0001:000F68A0 _Unit52.TTwofishBlockCodec.Create_004F78A0
 0001:000F68F4 _Unit52.sub_004F78F4_004F78F4
 0001:000F6950 _Unit52.sub_004F7950_004F7950
 0001:000F69AC _Unit52.sub_004F79AC_004F79AC
 0001:000F69B8 _Unit52.sub_004F79B8_004F79B8
 0001:000F69C4 _Unit52.Finalization_004F79C4
 0001:000F70F0 _Unit53.sub_004F80F0_004F80F0
 0001:000F71C4 _Unit53.sub_004F81C4_004F81C4
 0001:000F739C _Unit53.TCryptographicLibrary.Create_004F839C
 0001:000F74F4 _Unit53.sub_004F84F4_004F84F4
 0001:000F7580 _Unit53.sub_004F8580_004F8580
 0001:000F769C _Unit53.sub_004F869C_004F869C
 0001:000F771C _Unit53.sub_004F871C_004F871C
 0001:000F7808 _Unit53.TCryptographicLibrary.Destroy_004F8808
 0001:000F78D8 _Unit53.sub_004F88D8_004F88D8
 0001:000F79E4 _Unit53.sub_004F89E4_004F89E4
 0001:000F7AF0 _Unit53.sub_004F8AF0_004F8AF0
 0001:000F7B10 _Unit53.sub_004F8B10_004F8B10
 0001:000F7B44 _Unit53.sub_004F8B44_004F8B44
 0001:000F7B78 _Unit53.sub_004F8B78_004F8B78
 0001:000F7BAC _Unit53.sub_004F8BAC_004F8BAC
 0001:000F7BCC _Unit53.sub_004F8BCC_004F8BCC
 0001:000F7D0C _Unit53.sub_004F8D0C_004F8D0C
 0001:000F7DB4 _Unit53.sub_004F8DB4_004F8DB4
 0001:000F7E00 _Unit53.TCryptographicLibrary.SetParentLibrary_004F8E00
 0001:000F807C _Unit53.TCryptographicLibrary.Notification_004F907C
 0001:000F80E4 _Unit53.sub_004F90E4_004F90E4
 0001:000F81C0 _Unit53.TCryptLibStrings.Create_004F91C0
 0001:000F82DC _Unit53.TCryptLibStrings.Clear_004F92DC
 0001:000F82E8 _Unit53.TCryptLibStrings.Delete_004F92E8
 0001:000F82F8 _Unit53.TCryptLibStrings.Destroy_004F92F8
 0001:000F83F8 _Unit53.TCryptLibStrings.Get_004F93F8
 0001:000F86E4 _Unit53.TCryptLibStrings.GetCount_004F96E4
 0001:000F8764 _Unit53.TCryptLibStrings.Insert_004F9764
 0001:000F8924 _Unit53.TCustomStreamCipher.Create_004F9924
 0001:000F899C _Unit53.TCustomStreamCipher.Destroy_004F999C
 0001:000F89E8 _Unit53.TCustomStreamCipher.SetDisplayName_004F99E8
 0001:000F8A28 _Unit53.TCustomStreamCipher.SetFeatures_004F9A28
 0001:000F8A64 _Unit53.TCustomStreamCipher.SetProgId_004F9A64
 0001:000F8AA4 _Unit53.TCustomStreamCipher.SetSeedByteSize_004F9AA4
 0001:000F8AD8 _Unit53.TCustomStreamCipherObj.Create_004F9AD8
 0001:000F8B1C _Unit53.sub_004F9B1C_004F9B1C
 0001:000F8B34 _Unit53.sub_004F9B34_004F9B34
 0001:000F8B58 _Unit53.sub_004F9B58_004F9B58
 0001:000F8B78 _Unit53.sub_004F9B78_004F9B78
 0001:000F8BC4 _Unit53.sub_004F9BC4_004F9BC4
 0001:000F8BDC _Unit53.sub_004F9BDC_004F9BDC
 0001:000F8BF8 _Unit53.sub_004F9BF8_004F9BF8
 0001:000F8C1C _Unit53.sub_004F9C1C_004F9C1C
 0001:000F8C38 _Unit53.sub_004F9C38_004F9C38
 0001:000F8C98 _Unit53.sub_004F9C98_004F9C98
 0001:000F8CF8 _Unit53.sub_004F9CF8_004F9CF8
 0001:000F9500 _Unit53.sub_004FA500_004FA500
 0001:000F9520 _Unit53.sub_004FA520_004FA520
 0001:000F95B4 _Unit53.TAsymetricKeyPair.Destroy_004FA5B4
 0001:000F95FC _Unit53.sub_004FA5FC_004FA5FC
 0001:000F9650 _Unit53.sub_004FA650_004FA650
 0001:000F9678 _Unit53.sub_004FA678_004FA678
 0001:000F96A0 _Unit53.sub_004FA6A0_004FA6A0
 0001:000F974C _Unit53.sub_004FA74C_004FA74C
 0001:000F976C _Unit53.sub_004FA76C_004FA76C
 0001:000F9784 _Unit53.sub_004FA784_004FA784
 0001:000F97A0 _Unit53.sub_004FA7A0_004FA7A0
 0001:000F97B8 _Unit53.sub_004FA7B8_004FA7B8
 0001:000F9878 _Unit53.sub_004FA878_004FA878
 0001:000F98DC _Unit53.sub_004FA8DC_004FA8DC
 0001:000F9940 _Unit53.sub_004FA940_004FA940
 0001:000F9A04 _Unit53.sub_004FAA04_004FAA04
 0001:000F9AF0 _Unit53.TAsymetricEncDec.Destroy_004FAAF0
 0001:000F9B38 _Unit53.sub_004FAB38_004FAB38
 0001:000F9B60 _Unit53.sub_004FAB60_004FAB60
 0001:000F9C98 _Unit53.sub_004FAC98_004FAC98
 0001:000F9CBC _Unit53.sub_004FACBC_004FACBC
 0001:000F9D14 _Unit53.sub_004FAD14_004FAD14
 0001:000F9E88 _Unit53.sub_004FAE88_004FAE88
 0001:000F9EB0 _Unit53.sub_004FAEB0_004FAEB0
 0001:000FA66C _Unit53.TSimpleCodec.Create_004FB66C
 0001:000FA7C8 _Unit53.TSimpleCodec.Destroy_004FB7C8
 0001:000FA83C _Unit53.sub_004FB83C_004FB83C
 0001:000FA8B8 _Unit53.sub_004FB8B8_004FB8B8
 0001:000FA994 _Unit53.sub_004FB994_004FB994
 0001:000FA9E4 _Unit53.sub_004FB9E4_004FB9E4
 0001:000FAACC _Unit53.sub_004FBACC_004FBACC
 0001:000FAB08 _Unit53.sub_004FBB08_004FBB08
 0001:000FAB78 _Unit53.sub_004FBB78_004FBB78
 0001:000FAC9C _Unit53.sub_004FBC9C_004FBC9C
 0001:000FAD78 _Unit53.sub_004FBD78_004FBD78
 0001:000FAF14 _Unit53.sub_004FBF14_004FBF14
 0001:000FB0B0 _Unit53.sub_004FC0B0_004FC0B0
 0001:000FB1BC _Unit53.sub_004FC1BC_004FC1BC
 0001:000FB2D4 _Unit53.sub_004FC2D4_004FC2D4
 0001:000FB30C _Unit53.sub_004FC30C_004FC30C
 0001:000FB328 _Unit53.sub_004FC328_004FC328
 0001:000FB344 _Unit53.sub_004FC344_004FC344
 0001:000FB360 _Unit53.sub_004FC360_004FC360
 0001:000FB590 _Unit53.sub_004FC590_004FC590
 0001:000FB5EC _Unit53.sub_004FC5EC_004FC5EC
 0001:000FB674 _Unit53.sub_004FC674_004FC674
 0001:000FB854 _Unit53.sub_004FC854_004FC854
 0001:000FBAA4 _Unit53.sub_004FCAA4_004FCAA4
 0001:000FBB94 _Unit53.sub_004FCB94_004FCB94
 0001:000FBCB8 _Unit53.sub_004FCCB8_004FCCB8
 0001:000FBD84 _Unit53.sub_004FCD84_004FCD84
 0001:000FBF10 _Unit53.sub_004FCF10_004FCF10
 0001:000FC05C _Unit53.sub_004FD05C_004FD05C
 0001:000FC194 _Unit53.sub_004FD194_004FD194
 0001:000FC2E8 _Unit53.sub_004FD2E8_004FD2E8
 0001:000FC510 _Unit53.sub_004FD510_004FD510
 0001:000FC6B4 _Unit53.sub_004FD6B4_004FD6B4
 0001:000FC840 _Unit53.sub_004FD840_004FD840
 0001:000FC970 _Unit53.sub_004FD970_004FD970
 0001:000FCA1C _Unit53.sub_004FDA1C_004FDA1C
 0001:000FCAC8 _Unit53.sub_004FDAC8_004FDAC8
 0001:000FCAE4 _Unit53.sub_004FDAE4_004FDAE4
 0001:000FCB08 _Unit53.sub_004FDB08_004FDB08
 0001:000FCB28 _Unit53.sub_004FDB28_004FDB28
 0001:000FCB48 _Unit53.sub_004FDB48_004FDB48
 0001:000FCC1C _Unit53.sub_004FDC1C_004FDC1C
 0001:000FCC38 _Unit53.sub_004FDC38_004FDC38
 0001:000FCC54 _Unit53.sub_004FDC54_004FDC54
 0001:000FCC78 _Unit53.sub_004FDC78_004FDC78
 0001:000FCC98 _Unit53.sub_004FDC98_004FDC98
 0001:000FCCC4 _Unit53.sub_004FDCC4_004FDCC4
 0001:000FCD58 _Unit53.sub_004FDD58_004FDD58
 0001:000FCD74 _Unit53.sub_004FDD74_004FDD74
 0001:000FCE10 _Unit53.sub_004FDE10_004FDE10
 0001:000FCEAC _Unit53.sub_004FDEAC_004FDEAC
 0001:000FCED8 _Unit53.sub_004FDED8_004FDED8
 0001:000FCEF4 _Unit53.sub_004FDEF4_004FDEF4
 0001:000FCF90 _Unit53.sub_004FDF90_004FDF90
 0001:000FD118 _Unit53.sub_004FE118_004FE118
 0001:000FD19C _Unit53.sub_004FE19C_004FE19C
 0001:000FD228 _Unit53.TCodec.Create_004FE228
 0001:000FD3A4 _Unit53.TCodec.Destroy_004FE3A4
 0001:000FD414 _Unit53.TCodec.DefineProperties_004FE414
 0001:000FD504 _Unit53.sub_004FE504_004FE504
 0001:000FD52C _Unit53.sub_004FE52C_004FE52C
 0001:000FD548 _Unit53.sub_004FE548_004FE548
 0001:000FD57C _Unit53.sub_004FE57C_004FE57C
 0001:000FD5B0 _Unit53.sub_004FE5B0_004FE5B0
 0001:000FD618 _Unit53.TCodec.SetCipher_004FE618
 0001:000FD628 _Unit53.sub_004FE628_004FE628
 0001:000FD6C0 _Unit53.TCodec.GetAsymetricKeySizeInBits_004FE6C0
 0001:000FD6E0 _Unit53.TCodec.GetChainMode_004FE6E0
 0001:000FD774 _Unit53.TCodec.GetCipher_004FE774
 0001:000FD7A4 _Unit53.sub_004FE7A4_004FE7A4
 0001:000FD7CC _Unit53.TCodec.GetOnProgress_004FE7CC
 0001:000FD7EC _Unit53.TCodec.GetAdvancedOptions2_004FE7EC
 0001:000FD810 _Unit53.TCodec.SetAdvancedOptions2_004FE810
 0001:000FD850 _Unit53.TCodec.Loaded_004FE850
 0001:000FD86C _Unit53.TCodec.Notification_004FE86C
 0001:000FD8A8 _Unit53.sub_004FE8A8_004FE8A8
 0001:000FD9C4 _Unit53.TCodec.SetAsymetricKeySizeInBits_004FE9C4
 0001:000FD9E4 _Unit53.sub_004FE9E4_004FE9E4
 0001:000FDA1C _Unit53.sub_004FEA1C_004FEA1C
 0001:000FDA54 _Unit53.sub_004FEA54_004FEA54
 0001:000FDAAC _Unit53.sub_004FEAAC_004FEAAC
 0001:000FDB00 _Unit53.sub_004FEB00_004FEB00
 0001:000FDC80 _Unit53.TCodec.SetCryptoLibrary_004FEC80
 0001:000FDD18 _Unit53.TCodec.SetOnProgress_004FED18
 0001:000FDD38 _Unit53.sub_004FED38_004FED38
 0001:000FDDEC _Unit53.sub_004FEDEC_004FEDEC
 0001:000FDE84 _Unit53.sub_004FEE84_004FEE84
 0001:000FDFE4 _Unit53.sub_004FEFE4_004FEFE4
 0001:000FE1C8 _Unit53.sub_004FF1C8_004FF1C8
 0001:000FE3C0 _Unit53.sub_004FF3C0_004FF3C0
 0001:000FE5E4 _Unit53.sub_004FF5E4_004FF5E4
 0001:00101FD8 _Unit53.DrawTransparentBitmap_00502FD8
 0001:0010222C _Unit53.make_crc_table_0050322C
 0001:0010226C _Unit53.update_crc_0050326C
 0001:001022B4 _Unit53.PaethPredictor_005032B4
 0001:0010230C _Unit53.ByteSwap_0050330C
 0001:00102310 _Unit53.ByteSwap16_00503310
 0001:00102318 _Unit53.BytesForPixels_00503318
 0001:0010239C _Unit53.RegisterChunk_0050339C
 0001:001023D8 _Unit53.FreeChunkClassList_005033D8
 0001:0010241C _Unit53.RegisterCommonChunks_0050341C
 0001:00102484 _Unit53.CreateClassChunk_00503484
 0001:0010254C _Unit53.ZLIBInitInflate_0050354C
 0001:00102590 _Unit53.ZLIBInitDeflate_00503590
 0001:001025EC _Unit53.ZLIBTerminateDeflate_005035EC
 0001:00102600 _Unit53.ZLIBTerminateInflate_00503600
 0001:00102614 _Unit53.DecompressZLIB_00503614
 0001:00102734 _Unit53.CompressZLIB_00503734
 0001:00102884 _Unit53.TPNGPointerList.Create_00503884
 0001:001028CC _Unit53.TPNGPointerList.Remove_005038CC
 0001:00102938 _Unit53.TPNGPointerList.Add_00503938
 0001:0010295C _Unit53.TPNGPointerList.Destroy_0050395C
 0001:00102994 _Unit53.TPNGPointerList.GetItem_00503994
 0001:001029A8 _Unit53.TPNGPointerList.Insert_005039A8
 0001:001029F8 _Unit53.TPNGPointerList.SetItem_005039F8
 0001:00102A0C _Unit53.TPNGPointerList.SetSize_00503A0C
 0001:00102A54 _Unit53.TPNGList.Add_00503A54
 0001:00102CF4 _Unit53.TPNGList.GetItem_00503CF4
 0001:00102D08 _Unit53.TPNGList.ItemFromClass_00503D08
 0001:00102D50 _Unit53.TChunk.ResizeData_00503D50
 0001:00102D60 _Unit53.TChunk.GetIndex_00503D60
 0001:00102DA0 _Unit53.TChunk.GetHeader_00503DA0
 0001:00102DC0 _Unit53.TChunk.Assign_00503DC0
 0001:00102DEC _Unit53.TChunk.Create_00503DEC
 0001:00102F08 _Unit53.TChunk.Destroy_00503F08
 0001:00102F3C _Unit53.TChunk.GetChunkName_00503F3C
 0001:00102F58 _Unit53.TChunk.GetName_00503F58
 0001:00102FD4 _Unit53.TChunk.SaveData_00503FD4
 0001:00103060 _Unit53.TChunk.SaveToStream_00504060
 0001:00103068 _Unit53.TChunk.LoadFromStream_00504068
 0001:0010313C _Unit53.TChunktIME.LoadFromStream_0050413C
 0001:001031B8 _Unit53.TChunktIME.Assign_005041B8
 0001:001031E8 _Unit53.TChunktIME.SaveToStream_005041E8
 0001:00103254 _Unit53.TChunkzTXt.LoadFromStream_00504254
 0001:0010337C _Unit53.TChunkzTXt.SaveToStream_0050437C
 0001:001034CC _Unit53.TChunktEXt.Assign_005044CC
 0001:001034F0 _Unit53.TChunktEXt.LoadFromStream_005044F0
 0001:00103588 _Unit53.TChunktEXt.SaveToStream_00504588
 0001:0010362C _Unit53.TChunkIHDR.Create_0050462C
 0001:00103670 _Unit53.TChunkIHDR.Destroy_00504670
 0001:0010369C _Unit53.TChunkIHDR.Assign_0050469C
 0001:00103788 _Unit53.TChunkIHDR.FreeImageData_00504788
 0001:001037FC _Unit53.TChunkIHDR.LoadFromStream_005047FC
 0001:00103970 _Unit53.TChunkIHDR.SaveToStream_00504970
 0001:001039DC _Unit53.TChunkIHDR.CreateGrayscalePalette_005049DC
 0001:00103A6C _Unit53.TChunkIHDR.PaletteToDIB_00504A6C
 0001:00103AD4 _Unit53.SetInfo_00504AD4
 0001:00103B20 _Unit53.TChunkIHDR.PrepareImageData_00504B20
 0001:00103D94 _Unit53.TChunktRNS.SetTransparentColor_00504D94
 0001:00103E98 _Unit53.TChunktRNS.GetTransparentColor_00504E98
 0001:00103F80 _Unit53.TChunktRNS.SaveToStream_00504F80
 0001:00103FAC _Unit53.TChunktRNS.Assign_00504FAC
 0001:00103FDC _Unit53.TChunktRNS.LoadFromStream_00504FDC
 0001:001040C8 _Unit53.TChunkIDAT.PreparePalette_005050C8
 0001:00104188 _Unit53.TChunkIDAT.IDATZlibRead_00505188
 0001:00104414 _Unit53.TChunkIDAT.CopyInterlacedRGB8_00505414
 0001:00104494 _Unit53.TChunkIDAT.CopyInterlacedRGB16_00505494
 0001:0010456C _Unit53.TChunkIDAT.CopyInterlacedPalette148_0050556C
 0001:0010461C _Unit53.TChunkIDAT.CopyInterlacedPalette2_0050561C
 0001:001046A0 _Unit53.TChunkIDAT.CopyInterlacedGray2_005056A0
 0001:00104728 _Unit53.TChunkIDAT.CopyInterlacedGrayscale16_00505728
 0001:0010477C _Unit53.TChunkIDAT.CopyInterlacedRGBAlpha8_0050577C
 0001:0010481C _Unit53.TChunkIDAT.CopyInterlacedRGBAlpha16_0050581C
 0001:0010490C _Unit53.TChunkIDAT.CopyInterlacedGrayscaleAlpha8_0050590C
 0001:00104968 _Unit53.TChunkIDAT.CopyInterlacedGrayscaleAlpha16_00505968
 0001:001049D8 _Unit53.TChunkIDAT.DecodeInterlacedAdam7_005059D8
 0001:00104C84 _Unit53.TChunkIDAT.CopyNonInterlacedRGB8_00505C84
 0001:00104CDC _Unit53.TChunkIDAT.CopyNonInterlacedRGB16_00505CDC
 0001:00104D88 _Unit53.TChunkIDAT.CopyNonInterlacedPalette148_00505D88
 0001:00104D9C _Unit53.TChunkIDAT.CopyNonInterlacedGray2_00505D9C
 0001:00104DE0 _Unit53.TChunkIDAT.CopyNonInterlacedPalette2_00505DE0
 0001:00104E24 _Unit53.TChunkIDAT.CopyNonInterlacedGrayscale16_00505E24
 0001:00104E50 _Unit53.TChunkIDAT.CopyNonInterlacedRGBAlpha8_00505E50
 0001:00104EBC _Unit53.TChunkIDAT.CopyNonInterlacedRGBAlpha16_00505EBC
 0001:00104F78 _Unit53.TChunkIDAT.CopyNonInterlacedGrayscaleAlpha8_00505F78
 0001:00104FA0 _Unit53.TChunkIDAT.CopyNonInterlacedGrayscaleAlpha16_00505FA0
 0001:00104FDC _Unit53.TChunkIDAT.DecodeNonInterlaced_00505FDC
 0001:001051C8 _Unit53.TChunkIDAT.FilterRow_005061C8
 0001:00105374 _Unit53.TChunkIDAT.LoadFromStream_00506374
 0001:00105510 _Unit53.TChunkIDAT.SaveToStream_00506510
 0001:001056B0 _Unit53.WriteIDAT_005066B0
 0001:00105738 _Unit53.TChunkIDAT.IDATZlibWrite_00506738
 0001:0010578C _Unit53.TChunkIDAT.FinishIDATZlib_0050678C
 0001:001057F8 _Unit53.TChunkIDAT.EncodeNonInterlacedRGB8_005067F8
 0001:00105844 _Unit53.TChunkIDAT.EncodeNonInterlacedRGB16_00506844
 0001:0010589C _Unit53.TChunkIDAT.EncodeNonInterlacedPalette148_0050689C
 0001:001058B0 _Unit53.TChunkIDAT.EncodeNonInterlacedGrayscale16_005068B0
 0001:001058D0 _Unit53.TChunkIDAT.EncodeNonInterlacedRGBAlpha8_005068D0
 0001:00105928 _Unit53.TChunkIDAT.EncodeNonInterlacedRGBAlpha16_00506928
 0001:0010598C _Unit53.TChunkIDAT.EncodeNonInterlacedGrayscaleAlpha8_0050698C
 0001:001059B4 _Unit53.TChunkIDAT.EncodeNonInterlacedGrayscaleAlpha16_005069B4
 0001:001059E0 _Unit53.TChunkIDAT.EncodeNonInterlaced_005069E0
 0001:00105B88 _Unit53.TChunkIDAT.EncodeInterlacedRGB8_00506B88
 0001:00105BF8 _Unit53.TChunkIDAT.EncodeInterlacedRGB16_00506BF8
 0001:00105C74 _Unit53.TChunkIDAT.EncodeInterlacedPalette148_00506C74
 0001:00105D40 _Unit53.TChunkIDAT.EncodeInterlacedGrayscale16_00506D40
 0001:00105D80 _Unit53.TChunkIDAT.EncodeInterlacedRGBAlpha8_00506D80
 0001:00105E0C _Unit53.TChunkIDAT.EncodeInterlacedRGBAlpha16_00506E0C
 0001:00105EA4 _Unit53.TChunkIDAT.EncodeInterlacedGrayscaleAlpha8_00506EA4
 0001:00105F00 _Unit53.TChunkIDAT.EncodeInterlacedGrayscaleAlpha16_00506F00
 0001:00105F60 _Unit53.TChunkIDAT.EncodeInterlacedAdam7_00506F60
 0001:001061BC _Unit53.TChunkIDAT.FilterToEncode_005071BC
 0001:0010640C _Unit53.TChunkPLTE.GetPaletteItem_0050740C
 0001:00106490 _Unit53.TChunkPLTE.LoadFromStream_00507490
 0001:001065F0 _Unit53.TChunkPLTE.SaveToStream_005075F0
 0001:001066C4 _Unit53.TChunkPLTE.Assign_005076C4
 0001:00106738 _Unit53.TChunkgAMA.Assign_00507738
 0001:001067B4 _Unit53.TChunkgAMA.Create_005077B4
 0001:001067F8 _Unit53.TChunkgAMA.GetValue_005077F8
 0001:00106820 _Unit53.Power_00507820
 0001:001068A8 _Unit53.TChunkgAMA.LoadFromStream_005078A8
 0001:001069B8 _Unit53.TChunkgAMA.SetValue_005079B8
 0001:001069E0 _Unit53.TPngImage.Assign_005079E0
 0001:00106A74 _Unit53.TPngImage.ClearChunks_00507A74
 0001:00106AB8 _Unit53.TPngImage.Create_00507AB8
 0001:00106B3C _Unit53.TPngImage.Destroy_00507B3C
 0001:00106B84 _Unit53.TPngImage.GetPixelInfo_00507B84
 0001:00106C8C _Unit53.TPngImage.GetHeight_00507C8C
 0001:00106CB4 _Unit53.TPngImage.GetWidth_00507CB4
 0001:00106CD8 _Unit53.TPngImage.GetEmpty_00507CD8
 0001:00106CE8 _Unit53.TPngImage.RaiseError_00507CE8
 0001:00106D3C _Unit53.TPngImage.SetMaxIdatSize_00507D3C
 0001:00106D58 _Unit53.TPngImage.GetPixelInformation_00507D58
 0001:00106DA0 _Unit53.TPngImage.GetHeader_00507DA0
 0001:00106E3C _Unit53.AdjustRect_00507E3C
 0001:00106E5C _Unit53.TPngImage.DrawPartialTrans_00507E5C
 0001:001077D0 _Unit53.TPngImage.Draw_005087D0
 0001:001078A8 _Unit53.TPngImage.LoadFromStream_005088A8
 0001:00107C64 _Unit53.TPngImage.SetHeight_00508C64
 0001:00107C80 _Unit53.TPngImage.SetWidth_00508C80
 0001:00107C9C _Unit53.TPngImage.SaveToClipboardFormat_00508C9C
 0001:00107D58 _Unit53.TPngImage.LoadFromClipboardFormat_00508D58
 0001:00107DD4 _Unit53.TPngImage.GetTransparent_00508DD4
 0001:00107DE8 _Unit53.TPngImage.SaveToStream_00508DE8
 0001:00107E34 _Unit53.BuildHeader_00508E34
 0001:00107EC8 _Unit53.TPngImage.LoadFromResourceName_00508EC8
 0001:00107F9C _Unit53.DetectPixelFormat_00508F9C
 0001:0010804C _Unit53.TPngImage.AssignTo_0050904C
 0001:00108240 _Unit53.TPngImage.AssignHandle_00509240
 0001:001083D4 _Unit53.TPngImage.AssignPNG_005093D4
 0001:001084A8 _Unit53.TPngImage.GetAlphaScanline_005094A8
 0001:001084D8 _Unit53.TPngImage.GetExtraScanline_005094D8
 0001:00108504 _Unit53.TPngImage.GetScanline_00509504
 0001:00108530 _Unit53.TPngImage.GetSupportsPartialTransparency_00509530
 0001:00108544 _Unit53.TPngImage.InitializeGamma_00509544
 0001:00108560 _Unit53.TPngImage.GetTransparencyMode_00509560
 0001:001085E0 _Unit53.TPngImage.GetTransparentColor_005095E0
 0001:00108610 _Unit53.TPngImage.SetTransparentColor_00509610
 0001:001086FC _Unit53.TPngImage.HeaderPresent_005096FC
 0001:00108744 _Unit53.GetByteArrayPixel_00509744
 0001:001088DC _Unit53.SetByteArrayPixel_005098DC
 0001:001089E0 _Unit53.GetRGBLinePixel_005099E0
 0001:00108A30 _Unit53.SetRGBLinePixel_00509A30
 0001:00108A7C _Unit53.GetGrayLinePixel_00509A7C
 0001:00108AC4 _Unit53.SetGrayLinePixel_00509AC4
 0001:00108AF0 _Unit53.Min_00509AF0
 0001:00108B1C _Unit53.TPngImage.Resize_00509B1C
 0001:00108E54 _Unit53.TPngImage.SetPixels_00509E54
 0001:00108EF8 _Unit53.TPngImage.GetPixels_00509EF8
 0001:00108FA4 _Unit53.TPngImage.GetPalette_00509FA4
 0001:00108FC4 _Unit53.TChunkpHYs.Assign_00509FC4
 0001:00108FF8 _Unit53.TChunkpHYs.LoadFromStream_00509FF8
 0001:0010906C _Unit53.TChunkpHYs.SaveToStream_0050A06C
 0001:001090D4 _Unit53.TPngImage.DoSetPalette_0050A0D4
 0001:00109154 _Unit53.TPngImage.SetPalette_0050A154
 0001:00109174 _Unit53.TPngImage.GetLibraryVersion_0050A174
 0001:001091AC _Unit53.Finalization_0050A1AC
 0001:001093C0 DIB.sub_0050A3C0_0050A3C0
 0001:00109490 DIB.sub_0050A490_0050A490
 0001:001094DC DIB.sub_0050A4DC_0050A4DC
 0001:0010951C DIB.sub_0050A51C_0050A51C
 0001:00109568 DIB.sub_0050A568_0050A568
 0001:00109594 DIB.sub_0050A594_0050A594
 0001:001095BC DIB.sub_0050A5BC_0050A5BC
 0001:001095F4 DIB.sub_0050A5F4_0050A5F4
 0001:0010961C DIB.sub_0050A61C_0050A61C
 0001:00109798 DIB.TPaletteItem.Destroy_0050A798
 0001:001097D8 DIB.sub_0050A7D8_0050A7D8
 0001:001097E8 DIB.sub_0050A7E8_0050A7E8
 0001:0010980C DIB.TPaletteManager.Create_0050A80C
 0001:001098A4 DIB.sub_0050A8A4_0050A8A4
 0001:00109A20 DIB.sub_0050AA20_0050AA20
 0001:00109A8C DIB.sub_0050AA8C_0050AA8C
 0001:00109AB8 DIB.TDIBSharedImage.Create_0050AAB8
 0001:00109B74 DIB.sub_0050AB74_0050AB74
 0001:0010A1EC DIB.sub_0050B1EC_0050B1EC
 0001:0010A2E0 DIB.sub_0050B2E0_0050B2E0
 0001:0010A4AC DIB.sub_0050B4AC_0050B4AC
 0001:0010A5C4 DIB.sub_0050B5C4_0050B5C4
 0001:0010A65C DIB.sub_0050B65C_0050B65C
 0001:0010A6D0 DIB.sub_0050B6D0_0050B6D0
 0001:0010A744 DIB.sub_0050B744_0050B744
 0001:0010A7D4 DIB.sub_0050B7D4_0050B7D4
 0001:0010AB00 DIB.TDIBSharedImage.Destroy_0050BB00
 0001:0010ABC8 DIB.TDIBSharedImage.FreeHandle_0050BBC8
 0001:0010ABD4 DIB.sub_0050BBD4_0050BBD4
 0001:0010AC48 DIB.sub_0050BC48_0050BC48
 0001:0010ACD0 DIB.sub_0050BCD0_0050BCD0
 0001:0010AD10 DIB.TDIB.Create_0050BD10
 0001:0010AD60 DIB.TDIB.Destroy_0050BD60
 0001:0010ADAC DIB.sub_0050BDAC_0050BDAC
 0001:0010AFFC DIB.sub_0050BFFC_0050BFFC
 0001:0010B080 DIB.TDIB.Assign_0050C080
 0001:0010B12C DIB.TDIB.Draw_0050C12C
 0001:0010B2E8 DIB.sub_0050C2E8_0050C2E8
 0001:0010B304 DIB.sub_0050C304_0050C304
 0001:0010B320 DIB.sub_0050C320_0050C320
 0001:0010B3CC DIB.sub_0050C3CC_0050C3CC
 0001:0010B448 DIB.sub_0050C448_0050C448
 0001:0010B464 DIB.sub_0050C464_0050C464
 0001:0010B4DC DIB.TDIB.GetEmpty_0050C4DC
 0001:0010B4FC DIB.TDIB.GetHeight_0050C4FC
 0001:0010B518 DIB.sub_0050C518_0050C518
 0001:0010B538 DIB.sub_0050C538_0050C538
 0001:0010B558 DIB.sub_0050C558_0050C558
 0001:0010B594 DIB.TDIB.GetWidth_0050C594
 0001:0010B5B0 DIB.TDIB.DefineProperties_0050C5B0
 0001:0010B6BC DIB.TGlobalMemoryStream.Create_0050C6BC
 0001:0010B728 DIB.TGlobalMemoryStream.Destroy_0050C728
 0001:0010B774 DIB.TDIB.LoadFromClipboardFormat_0050C774
 0001:0010B7D4 DIB.TDIB.LoadFromStream_0050C7D4
 0001:0010B894 DIB.TDIB.ReadData_0050C894
 0001:0010B90C DIB.TDIB.SaveToClipboardFormat_0050C90C
 0001:0010B9C8 DIB.TDIB.SaveToStream_0050C9C8
 0001:0010BA34 DIB.TDIB.WriteData_0050CA34
 0001:0010BAA0 DIB.TDIB.SetHeight_0050CAA0
 0001:0010BB1C DIB.TDIB.SetWidth_0050CB1C
 0001:0010BB90 DIB.sub_0050CB90_0050CB90
 0001:0010BCF8 DIB.sub_0050CCF8_0050CCF8
 0001:0010BD60 DIB.sub_0050CD60_0050CD60
 0001:0010BE74 DIB.sub_0050CE74_0050CE74
 0001:0010BEF8 DIB.Finalization_0050CEF8
 0001:0010C214 AsphyreTextureFonts.sub_0050D214_0050D214
 0001:0010C264 AsphyreTextureFonts.TAsphyreFontTexture.Create_0050D264
 0001:0010C32C AsphyreTextureFonts.TAsphyreFontTextures.Create_0050D32C
 0001:0010C418 AsphyreTextureFonts.sub_0050D418_0050D418
 0001:0010C498 AsphyreTextureFonts.sub_0050D498_0050D498
 0001:0010C524 AsphyreTextureFonts.sub_0050D524_0050D524
 0001:0010C564 AsphyreTextureFonts.sub_0050D564_0050D564
 0001:0010C580 AsphyreTextureFonts.TAsphyreTextureFont.Create_0050D580
 0001:0010C62C AsphyreTextureFonts.TAsphyreTextureFont.Destroy_0050D62C
 0001:0010C668 AsphyreTextureFonts.sub_0050D668_0050D668
 0001:0010C774 AsphyreTextureFonts.sub_0050D774_0050D774
 0001:0010CAB0 AsphyreTextureFonts.sub_0050DAB0_0050DAB0
 0001:0010CAC8 AsphyreTextureFonts.sub_0050DAC8_0050DAC8
 0001:0010CAEC AsphyreTextureFonts.sub_0050DAEC_0050DAEC
 0001:0010CB14 AsphyreTextureFonts.sub_0050DB14_0050DB14
 0001:0010CB3C AsphyreTextureFonts.sub_0050DB3C_0050DB3C
 0001:0010CB64 AsphyreTextureFonts.sub_0050DB64_0050DB64
 0001:0010CB88 AsphyreTextureFonts.TFontManager.Create_0050DB88
 0001:0010CC90 AsphyreTextureFonts.sub_0050DC90_0050DC90
 0001:0010CD44 AsphyreTextureFonts.sub_0050DD44_0050DD44
 0001:0010CEB8 AsphyreTextureFonts.sub_0050DEB8_0050DEB8
 0001:0010CF24 AsphyreTextureFonts.sub_0050DF24_0050DF24
 0001:0010CFF4 AsphyreTextureFonts.sub_0050DFF4_0050DFF4
 0001:0010D07C AsphyreTextureFonts.Finalization_0050E07C
 0001:0010D0A4 _Unit56.sub_0050E0A4_0050E0A4
 0001:0010D0DC _Unit56.sub_0050E0DC_0050E0DC
 0001:0010D124 _Unit56.sub_0050E124_0050E124
 0001:0010D154 _Unit56.sub_0050E154_0050E154
 0001:0010D194 _Unit56.sub_0050E194_0050E194
 0001:0010D214 _Unit56.sub_0050E214_0050E214
 0001:0010D3C0 _Unit56.sub_0050E3C0_0050E3C0
 0001:0010D418 _Unit56.sub_0050E418_0050E418
 0001:0010D470 _Unit56.sub_0050E470_0050E470
 0001:0010D4E0 _Unit56.sub_0050E4E0_0050E4E0
 0001:0010D740 _Unit56.sub_0050E740_0050E740
 0001:0010D7B8 _Unit56.sub_0050E7B8_0050E7B8
 0001:0010D97C _Unit56.sub_0050E97C_0050E97C
 0001:0010D9D0 _Unit56.sub_0050E9D0_0050E9D0
 0001:0010DE08 _Unit56.sub_0050EE08_0050EE08
 0001:0010DE94 _Unit56.sub_0050EE94_0050EE94
 0001:0010DFA0 _Unit56.sub_0050EFA0_0050EFA0
 0001:0010DFEC _Unit56.sub_0050EFEC_0050EFEC
 0001:0010E06C _Unit56.sub_0050F06C_0050F06C
 0001:0010E0DC _Unit56.sub_0050F0DC_0050F0DC
 0001:0010E36C _Unit56.sub_0050F36C_0050F36C
 0001:0010E60C _Unit56.sub_0050F60C_0050F60C
 0001:0010E638 _Unit56.sub_0050F638_0050F638
 0001:0010E7AC _Unit56.sub_0050F7AC_0050F7AC
 0001:0010EB0C _Unit56.sub_0050FB0C_0050FB0C
 0001:0010EDC8 _Unit56.sub_0050FDC8_0050FDC8
 0001:0010EEF0 _Unit56.sub_0050FEF0_0050FEF0
 0001:0010F0E4 _Unit56.sub_005100E4_005100E4
 0001:0010F124 _Unit56.sub_00510124_00510124
 0001:0010F150 _Unit56.sub_00510150_00510150
 0001:0010F168 _Unit56.sub_00510168_00510168
 0001:0010F290 _Unit56.sub_00510290_00510290
 0001:0010F30C _Unit56.sub_0051030C_0051030C
 0001:0010F3AC _Unit56.sub_005103AC_005103AC
 0001:0010F3E0 _Unit56.sub_005103E0_005103E0
 0001:0010F548 _Unit56.sub_00510548_00510548
 0001:0010F54C _Unit56.Finalization_0051054C
 0001:0010F5D0 _Unit57.Finalization_005105D0
 0001:0010F680 _Unit58.sub_00510680_00510680
 0001:0010F6BC _Unit58.sub_005106BC_005106BC
 0001:0010F7E4 _Unit58.sub_005107E4_005107E4
 0001:0010F8D0 _Unit58.sub_005108D0_005108D0
 0001:0010F928 _Unit58.sub_00510928_00510928
 0001:0010F980 _Unit58.sub_00510980_00510980
 0001:0010F9D4 _Unit58.sub_005109D4_005109D4
 0001:0010FA28 _Unit58.sub_00510A28_00510A28
 0001:00110300 _Unit58.sub_00511300_00511300
 0001:001103AC _Unit58.sub_005113AC_005113AC
 0001:001103E4 _Unit58.sub_005113E4_005113E4
 0001:00110404 _Unit58.sub_00511404_00511404
 0001:00110484 _Unit58.sub_00511484_00511484
 0001:00110504 _Unit58.sub_00511504_00511504
 0001:00110618 _Unit58.sub_00511618_00511618
 0001:00110640 _Unit58.sub_00511640_00511640
 0001:00110690 _Unit58.sub_00511690_00511690
 0001:00110710 _Unit58.sub_00511710_00511710
 0001:00110784 _Unit58.sub_00511784_00511784
 0001:001107A0 _Unit58.Finalization_005117A0
 0001:001107DC _Unit59.sub_005117DC_005117DC
 0001:00113DF8 _Unit59.sub_00514DF8_00514DF8
 0001:00113E50 _Unit59.TMiniResFilePackage.Create_00514E50
 0001:00113F74 _Unit59.sub_00514F74_00514F74
 0001:0011404C _Unit59.sub_0051504C_0051504C
 0001:00114274 _Unit59.sub_00515274_00515274
 0001:001142A0 _Unit59.sub_005152A0_005152A0
 0001:0011467C _Unit59.sub_0051567C_0051567C
 0001:00114718 _Unit59.TImageFilePartInfo.Create_00515718
 0001:001147D4 _Unit59.sub_005157D4_005157D4
 0001:00114810 _Unit59.sub_00515810_00515810
 0001:00114A34 _Unit59.sub_00515A34_00515A34
 0001:00114B1C _Unit59.TEnumerable<uMiniResFileInfo.TPair<System.string,uMiniResFileInfo.TImageFilePartInfo>>.GetEnumerator_00515B1C
 0001:00114B38 _Unit59.TEnumerable<uMiniResFileInfo.TPair<System.string,uMiniResFileInfo.TImageFilePartInfo>>.ToArray_00515B38
 0001:00114C34 _Unit59.TEnumerator<uMiniResFileInfo.TPair<System.string,uMiniResFileInfo.TImageFilePartInfo>>.MoveNext_00515C34
 0001:00114C50 _Unit59.sub_00515C50_00515C50
 0001:00114CBC _Unit59.sub_00515CBC_00515CBC
 0001:00114DDC _Unit59.sub_00515DDC_00515DDC
 0001:00114E14 _Unit59.sub_00515E14_00515E14
 0001:00114EC8 _Unit59.sub_00515EC8_00515EC8
 0001:00114EF8 _Unit59.sub_00515EF8_00515EF8
 0001:00114F60 _Unit59.sub_00515F60_00515F60
 0001:00114FD4 _Unit59.sub_00515FD4_00515FD4
 0001:0011502C _Unit59.sub_0051602C_0051602C
 0001:00115048 _Unit59.sub_00516048_00516048
 0001:0011507C _Unit59.sub_0051607C_0051607C
 0001:001150B0 _Unit59.sub_005160B0_005160B0
 0001:001150FC _Unit59.sub_005160FC_005160FC
 0001:001151CC _Unit59.TDictionary<System.string,uMiniResFileInfo.TImageFilePartInfo>.Destroy_005161CC
 0001:0011521C _Unit59.TDictionary<System.string,uMiniResFileInfo.TImageFilePartInfo>.Clear_0051621C
 0001:00115308 _Unit59.TDictionary<System.string,uMiniResFileInfo.TImageFilePartInfo>.AddOrSetValue_00516308
 0001:00115380 _Unit59.TDictionary<System.string,uMiniResFileInfo.TImageFilePartInfo>.ToArray_00516380
 0001:00115414 _Unit59.TDictionary<System.string,uMiniResFileInfo.TImageFilePartInfo>.GetEnumerator_00516414
 0001:00115438 _Unit59.sub_00516438_00516438
 0001:00115510 _Unit59.TEnumerable<System.string>.GetEnumerator_00516510
 0001:0011552C _Unit59.TEnumerable<System.string>.ToArray_0051652C
 0001:00115618 _Unit59.TEnumerator<System.string>.MoveNext_00516618
 0001:00115650 _Unit59.sub_00516650_00516650
 0001:0011566C _Unit59.sub_0051666C_0051666C
 0001:001156BC _Unit59.TDictionary<System.string,uMiniResFileInfo.TImageFilePartInfo>.TKeyCollection.GetEnumerator_005166BC
 0001:001156E4 _Unit59.TDictionary<System.string,uMiniResFileInfo.TImageFilePartInfo>.TKeyCollection.ToArray_005166E4
 0001:00115708 _Unit59.sub_00516708_00516708
 0001:00115738 _Unit59.sub_00516738_00516738
 0001:00115754 _Unit59.sub_00516754_00516754
 0001:00115770 _Unit59.sub_00516770_00516770
 0001:001157C8 _Unit59.TDictionary<System.string,uMiniResFileInfo.TImageFilePartInfo>.TKeyEnumerator.MoveNext_005167C8
 0001:0011581C _Unit59.sub_0051681C_0051681C
 0001:001158BC _Unit59.TEnumerable<uMiniResFileInfo.TImageFilePartInfo>.GetEnumerator_005168BC
 0001:001158D8 _Unit59.TEnumerable<uMiniResFileInfo.TImageFilePartInfo>.ToArray_005168D8
 0001:00115994 _Unit59.TEnumerator<uMiniResFileInfo.TImageFilePartInfo>.MoveNext_00516994
 0001:001159CC _Unit59.sub_005169CC_005169CC
 0001:001159E8 _Unit59.sub_005169E8_005169E8
 0001:00115A38 _Unit59.TDictionary<System.string,uMiniResFileInfo.TImageFilePartInfo>.TValueCollection.GetEnumerator_00516A38
 0001:00115A60 _Unit59.TDictionary<System.string,uMiniResFileInfo.TImageFilePartInfo>.TValueCollection.ToArray_00516A60
 0001:00115A84 _Unit59.sub_00516A84_00516A84
 0001:00115AB0 _Unit59.sub_00516AB0_00516AB0
 0001:00115ACC _Unit59.sub_00516ACC_00516ACC
 0001:00115AE8 _Unit59.sub_00516AE8_00516AE8
 0001:00115B40 _Unit59.TDictionary<System.string,uMiniResFileInfo.TImageFilePartInfo>.TValueEnumerator.MoveNext_00516B40
 0001:00115B94 _Unit59.sub_00516B94_00516B94
 0001:00115BE0 _Unit59.sub_00516BE0_00516BE0
 0001:00115BFC _Unit59.sub_00516BFC_00516BFC
 0001:00115C18 _Unit59.sub_00516C18_00516C18
 0001:00115C70 _Unit59.TDictionary<System.string,uMiniResFileInfo.TImageFilePartInfo>.TPairEnumerator.MoveNext_00516C70
 0001:00115CC4 _Unit59.sub_00516CC4_00516CC4
 0001:00115DAC _Unit59.TEnumerable<uMiniResFileInfo.TPair<System.string,System.string>>.GetEnumerator_00516DAC
 0001:00115DC8 _Unit59.TEnumerable<uMiniResFileInfo.TPair<System.string,System.string>>.ToArray_00516DC8
 0001:00115EC4 _Unit59.TEnumerator<uMiniResFileInfo.TPair<System.string,System.string>>.MoveNext_00516EC4
 0001:00115EE0 _Unit59.sub_00516EE0_00516EE0
 0001:00115F4C _Unit59.sub_00516F4C_00516F4C
 0001:0011606C _Unit59.sub_0051706C_0051706C
 0001:001160A4 _Unit59.sub_005170A4_005170A4
 0001:00116158 _Unit59.sub_00517158_00517158
 0001:00116188 _Unit59.sub_00517188_00517188
 0001:001161F4 _Unit59.sub_005171F4_005171F4
 0001:00116270 _Unit59.sub_00517270_00517270
 0001:00116300 _Unit59.sub_00517300_00517300
 0001:0011631C _Unit59.sub_0051731C_0051731C
 0001:00116350 _Unit59.sub_00517350_00517350
 0001:00116384 _Unit59.sub_00517384_00517384
 0001:001163D0 _Unit59.sub_005173D0_005173D0
 0001:001164A0 _Unit59.TDictionary<System.string,System.string>.Destroy_005174A0
 0001:001164F0 _Unit59.TDictionary<System.string,System.string>.Add_005174F0
 0001:00116570 _Unit59.TDictionary<System.string,System.string>.Clear_00517570
 0001:0011665C _Unit59.TDictionary<System.string,System.string>.TryGetValue_0051765C
 0001:001166C8 _Unit59.TDictionary<System.string,System.string>.AddOrSetValue_005176C8
 0001:00116740 _Unit59.TDictionary<System.string,System.string>.ToArray_00517740
 0001:001167D4 _Unit59.TDictionary<System.string,System.string>.GetEnumerator_005177D4
 0001:00116814 _Unit59.sub_00517814_00517814
 0001:00116830 _Unit59.sub_00517830_00517830
 0001:00116880 _Unit59.TDictionary<System.string,System.string>.TKeyCollection.GetEnumerator_00517880
 0001:001168A8 _Unit59.TDictionary<System.string,System.string>.TKeyCollection.ToArray_005178A8
 0001:001168CC _Unit59.sub_005178CC_005178CC
 0001:001168FC _Unit59.sub_005178FC_005178FC
 0001:00116918 _Unit59.sub_00517918_00517918
 0001:00116934 _Unit59.sub_00517934_00517934
 0001:0011698C _Unit59.TDictionary<System.string,System.string>.TKeyEnumerator.MoveNext_0051798C
 0001:001169FC _Unit59.sub_005179FC_005179FC
 0001:00116A18 _Unit59.sub_00517A18_00517A18
 0001:00116A68 _Unit59.TDictionary<System.string,System.string>.TValueCollection.GetEnumerator_00517A68
 0001:00116A90 _Unit59.TDictionary<System.string,System.string>.TValueCollection.ToArray_00517A90
 0001:00116AB4 _Unit59.sub_00517AB4_00517AB4
 0001:00116AE4 _Unit59.sub_00517AE4_00517AE4
 0001:00116B00 _Unit59.sub_00517B00_00517B00
 0001:00116B1C _Unit59.sub_00517B1C_00517B1C
 0001:00116B74 _Unit59.TDictionary<System.string,System.string>.TValueEnumerator.MoveNext_00517B74
 0001:00116BC8 _Unit59.sub_00517BC8_00517BC8
 0001:00116C18 _Unit59.sub_00517C18_00517C18
 0001:00116C34 _Unit59.sub_00517C34_00517C34
 0001:00116C50 _Unit59.sub_00517C50_00517C50
 0001:00116CA8 _Unit59.TDictionary<System.string,System.string>.TPairEnumerator.MoveNext_00517CA8
 0001:00116CFC _Unit59.sub_00517CFC_00517CFC
 0001:00116D1C _Unit59.sub_00517D1C_00517D1C
 0001:00116D60 _Unit59.sub_00517D60_00517D60
 0001:00116DD0 _Unit59.sub_00517DD0_00517DD0
 0001:00116E28 _Unit59.sub_00517E28_00517E28
 0001:00116E7C _Unit59.sub_00517E7C_00517E7C
 0001:00116EB4 _Unit59.sub_00517EB4_00517EB4
 0001:00116ED0 _Unit59.sub_00517ED0_00517ED0
 0001:00116F04 _Unit59.sub_00517F04_00517F04
 0001:00116F88 _Unit59.sub_00517F88_00517F88
 0001:00117030 _Unit59.TList<uMiniResFileInfo.TPair<System.string,uMiniResFileInfo.TImageFilePartInfo>>.Destroy_00518030
 0001:0011706C _Unit59.TList<uMiniResFileInfo.TPair<System.string,uMiniResFileInfo.TImageFilePartInfo>>.Add_0051806C
 0001:001170CC _Unit59.TList<uMiniResFileInfo.TPair<System.string,uMiniResFileInfo.TImageFilePartInfo>>.DeleteRange_005180CC
 0001:00117244 _Unit59.TList<uMiniResFileInfo.TPair<System.string,uMiniResFileInfo.TImageFilePartInfo>>.ToArray_00518244
 0001:001172F0 _Unit59.TList<uMiniResFileInfo.TPair<System.string,uMiniResFileInfo.TImageFilePartInfo>>.GetEnumerator_005182F0
 0001:00117314 _Unit59.sub_00518314_00518314
 0001:00117338 _Unit59.sub_00518338_00518338
 0001:00117354 _Unit59.sub_00518354_00518354
 0001:00117370 _Unit59.sub_00518370_00518370
 0001:001173C8 _Unit59.TList<uMiniResFileInfo.TPair<System.string,uMiniResFileInfo.TImageFilePartInfo>>.TEnumerator.MoveNext_005183C8
 0001:00117408 _Unit59.sub_00518408_00518408
 0001:00117430 _Unit59.sub_00518430_00518430
 0001:00117450 _Unit59.sub_00518450_00518450
 0001:00117494 _Unit59.sub_00518494_00518494
 0001:00117504 _Unit59.sub_00518504_00518504
 0001:00117554 _Unit59.sub_00518554_00518554
 0001:001175A8 _Unit59.sub_005185A8_005185A8
 0001:001175E0 _Unit59.sub_005185E0_005185E0
 0001:001175FC _Unit59.sub_005185FC_005185FC
 0001:00117630 _Unit59.sub_00518630_00518630
 0001:001176B4 _Unit59.sub_005186B4_005186B4
 0001:0011775C _Unit59.TList<System.string>.Destroy_0051875C
 0001:00117798 _Unit59.TList<System.string>.Add_00518798
 0001:001177F0 _Unit59.TList<System.string>.DeleteRange_005187F0
 0001:00117968 _Unit59.TList<System.string>.ToArray_00518968
 0001:00117A04 _Unit59.TList<System.string>.GetEnumerator_00518A04
 0001:00117A28 _Unit59.sub_00518A28_00518A28
 0001:00117A4C _Unit59.sub_00518A4C_00518A4C
 0001:00117A68 _Unit59.sub_00518A68_00518A68
 0001:00117A84 _Unit59.sub_00518A84_00518A84
 0001:00117ADC _Unit59.TList<System.string>.TEnumerator.MoveNext_00518ADC
 0001:00117B1C _Unit59.sub_00518B1C_00518B1C
 0001:00117B3C _Unit59.sub_00518B3C_00518B3C
 0001:00117B80 _Unit59.sub_00518B80_00518B80
 0001:00117BF0 _Unit59.sub_00518BF0_00518BF0
 0001:00117C3C _Unit59.sub_00518C3C_00518C3C
 0001:00117C90 _Unit59.sub_00518C90_00518C90
 0001:00117CC8 _Unit59.sub_00518CC8_00518CC8
 0001:00117CE4 _Unit59.sub_00518CE4_00518CE4
 0001:00117D18 _Unit59.sub_00518D18_00518D18
 0001:00117D9C _Unit59.sub_00518D9C_00518D9C
 0001:00117E44 _Unit59.TList<uMiniResFileInfo.TImageFilePartInfo>.Destroy_00518E44
 0001:00117E80 _Unit59.TList<uMiniResFileInfo.TImageFilePartInfo>.Add_00518E80
 0001:00117ED4 _Unit59.TList<uMiniResFileInfo.TImageFilePartInfo>.DeleteRange_00518ED4
 0001:0011804C _Unit59.TList<uMiniResFileInfo.TImageFilePartInfo>.ToArray_0051904C
 0001:001180B0 _Unit59.TList<uMiniResFileInfo.TImageFilePartInfo>.GetEnumerator_005190B0
 0001:001180D4 _Unit59.sub_005190D4_005190D4
 0001:001180F8 _Unit59.sub_005190F8_005190F8
 0001:00118114 _Unit59.sub_00519114_00519114
 0001:00118130 _Unit59.sub_00519130_00519130
 0001:00118188 _Unit59.TList<uMiniResFileInfo.TImageFilePartInfo>.TEnumerator.MoveNext_00519188
 0001:001181C8 _Unit59.sub_005191C8_005191C8
 0001:001181E8 _Unit59.sub_005191E8_005191E8
 0001:0011822C _Unit59.sub_0051922C_0051922C
 0001:0011829C _Unit59.sub_0051929C_0051929C
 0001:001182F4 _Unit59.sub_005192F4_005192F4
 0001:00118348 _Unit59.sub_00519348_00519348
 0001:00118380 _Unit59.sub_00519380_00519380
 0001:0011839C _Unit59.sub_0051939C_0051939C
 0001:001183D0 _Unit59.sub_005193D0_005193D0
 0001:00118454 _Unit59.sub_00519454_00519454
 0001:001184FC _Unit59.TList<uMiniResFileInfo.TPair<System.string,System.string>>.Destroy_005194FC
 0001:00118538 _Unit59.TList<uMiniResFileInfo.TPair<System.string,System.string>>.Add_00519538
 0001:00118598 _Unit59.TList<uMiniResFileInfo.TPair<System.string,System.string>>.DeleteRange_00519598
 0001:00118710 _Unit59.TList<uMiniResFileInfo.TPair<System.string,System.string>>.ToArray_00519710
 0001:001187BC _Unit59.TList<uMiniResFileInfo.TPair<System.string,System.string>>.GetEnumerator_005197BC
 0001:001187E0 _Unit59.sub_005197E0_005197E0
 0001:00118804 _Unit59.sub_00519804_00519804
 0001:00118820 _Unit59.sub_00519820_00519820
 0001:0011883C _Unit59.sub_0051983C_0051983C
 0001:00118894 _Unit59.TList<uMiniResFileInfo.TPair<System.string,System.string>>.TEnumerator.MoveNext_00519894
 0001:001188D4 _Unit59.TComparer<uMiniResFileInfo.TPair<System.string,uMiniResFileInfo.TImageFilePartInfo>>.Default_005198D4
 0001:00118900 _Unit59.TComparer<System.string>.Default_00519900
 0001:0011892C _Unit59.TComparer<uMiniResFileInfo.TImageFilePartInfo>.Default_0051992C
 0001:00118958 _Unit59.TComparer<uMiniResFileInfo.TPair<System.string,System.string>>.Default_00519958
 0001:001234DC _Unit59.sub_005244DC_005244DC
 0001:00123538 _Unit59.sub_00524538_00524538
 0001:00123D08 _Unit59.sub_00524D08_00524D08
 0001:00123FDC _Unit59.sub_00524FDC_00524FDC
 0001:00124000 _Unit59.sub_00525000_00525000
 0001:00124024 _Unit59.sub_00525024_00525024
 0001:00124238 _Unit59.sub_00525238_00525238
 0001:001242CC _Unit59.sub_005252CC_005252CC
 0001:0012434C _Unit59.sub_0052534C_0052534C
 0001:00124480 _Unit59.sub_00525480_00525480
 0001:00124520 _Unit59.sub_00525520_00525520
 0001:00124798 _Unit59.sub_00525798_00525798
 0001:001248E8 _Unit59.sub_005258E8_005258E8
 0001:001248F4 _Unit59.sub_005258F4_005258F4
 0001:00124A70 _Unit59.sub_00525A70_00525A70
 0001:00124B38 _Unit59.sub_00525B38_00525B38
 0001:00124C50 _Unit59.sub_00525C50_00525C50
 0001:00124E88 _Unit59.sub_00525E88_00525E88
 0001:00124F14 _Unit59.sub_00525F14_00525F14
 0001:00124FAC _Unit59.sub_00525FAC_00525FAC
 0001:00125000 _Unit59.sub_00526000_00526000
 0001:00125074 _Unit59.sub_00526074_00526074
 0001:001251B8 _Unit59.sub_005261B8_005261B8
 0001:001251D4 _Unit59.sub_005261D4_005261D4
 0001:00125420 _Unit59.sub_00526420_00526420
 0001:00125674 _Unit59.sub_00526674_00526674
 0001:0012575C _Unit59.sub_0052675C_0052675C
 0001:00125780 _Unit59.sub_00526780_00526780
 0001:00125884 _Unit59.sub_00526884_00526884
 0001:001259A8 _Unit59.sub_005269A8_005269A8
 0001:00125AAC _Unit59.sub_00526AAC_00526AAC
 0001:00125EA0 _Unit59.sub_00526EA0_00526EA0
 0001:00125EC4 _Unit59.sub_00526EC4_00526EC4
 0001:00125FC8 _Unit59.sub_00526FC8_00526FC8
 0001:00126048 _Unit59.sub_00527048_00527048
 0001:001260E8 _Unit59.sub_005270E8_005270E8
 0001:001261E8 _Unit59.sub_005271E8_005271E8
 0001:00126344 _Unit59.sub_00527344_00527344
 0001:001264E0 _Unit59.sub_005274E0_005274E0
 0001:001267B8 _Unit59.sub_005277B8_005277B8
 0001:001268EC _Unit59.sub_005278EC_005278EC
 0001:001269A4 _Unit59.sub_005279A4_005279A4
 0001:00126A4C _Unit59.sub_00527A4C_00527A4C
 0001:00126A60 _Unit59.sub_00527A60_00527A60
 0001:00126A98 _Unit59.sub_00527A98_00527A98
 0001:00126AC8 _Unit59.TWMImages.Destroy_00527AC8
 0001:00126B28 _Unit59.sub_00527B28_00527B28
 0001:00126B40 _Unit59.sub_00527B40_00527B40
 0001:00126B58 _Unit59.sub_00527B58_00527B58
 0001:00126B74 _Unit59.sub_00527B74_00527B74
 0001:00126C50 _Unit59.sub_00527C50_00527C50
 0001:00126C78 _Unit59.sub_00527C78_00527C78
 0001:00126C90 _Unit59.sub_00527C90_00527C90
 0001:00126CCC _Unit59.sub_00527CCC_00527CCC
 0001:00126D10 _Unit59.sub_00527D10_00527D10
 0001:00126D5C _Unit59.sub_00527D5C_00527D5C
 0001:00126F0C _Unit59.sub_00527F0C_00527F0C
 0001:00126F24 _Unit59.sub_00527F24_00527F24
 0001:00126F30 _Unit59.sub_00527F30_00527F30
 0001:00126F60 _Unit59.sub_00527F60_00527F60
 0001:001270C8 _Unit59.sub_005280C8_005280C8
 0001:001271A0 _Unit59.sub_005281A0_005281A0
 0001:00127308 _Unit59.TWMImageLibManager.Create_00528308
 0001:00127448 _Unit59.sub_00528448_00528448
 0001:0012770C _Unit59.sub_0052870C_0052870C
 0001:0012780C _Unit59.sub_0052880C_0052880C
 0001:00127830 _Unit59.sub_00528830_00528830
 0001:00127920 _Unit59.sub_00528920_00528920
 0001:00127B80 _Unit59.sub_00528B80_00528B80
 0001:00127CC0 _Unit59.sub_00528CC0_00528CC0
 0001:00127D7C _Unit59.sub_00528D7C_00528D7C
 0001:00127F40 _Unit59.sub_00528F40_00528F40
 0001:00127F88 _Unit59.sub_00528F88_00528F88
 0001:00127FA0 _Unit59.sub_00528FA0_00528FA0
 0001:00127FB0 _Unit59.sub_00528FB0_00528FB0
 0001:00127FC8 _Unit59.sub_00528FC8_00528FC8
 0001:00127FE8 _Unit59.Finalization_00528FE8
 0001:0012804C _Unit60.TEnumerable<System.Integer>.GetEnumerator_0052904C
 0001:00128068 _Unit60.TEnumerable<System.Integer>.ToArray_00529068
 0001:00128124 _Unit60.TEnumerator<System.Integer>.MoveNext_00529124
 0001:00128140 _Unit60.sub_00529140_00529140
 0001:00128160 _Unit60.sub_00529160_00529160
 0001:001281A4 _Unit60.sub_005291A4_005291A4
 0001:00128214 _Unit60.sub_00529214_00529214
 0001:00128260 _Unit60.sub_00529260_00529260
 0001:001282D8 _Unit60.sub_005292D8_005292D8
 0001:0012832C _Unit60.sub_0052932C_0052932C
 0001:00128364 _Unit60.sub_00529364_00529364
 0001:00128380 _Unit60.sub_00529380_00529380
 0001:001283B4 _Unit60.sub_005293B4_005293B4
 0001:00128438 _Unit60.sub_00529438_00529438
 0001:001284E0 _Unit60.TList<System.Integer>.Destroy_005294E0
 0001:0012851C _Unit60.TList<System.Integer>.Add_0052951C
 0001:00128570 _Unit60.TList<System.Integer>.DeleteRange_00529570
 0001:001286E8 _Unit60.TList<System.Integer>.Clear_005296E8
 0001:00128708 _Unit60.TList<System.Integer>.IndexOf_00529708
 0001:00128768 _Unit60.TList<System.Integer>.Sort_00529768
 0001:001287A4 _Unit60.TList<System.Integer>.ToArray_005297A4
 0001:00128808 _Unit60.TList<System.Integer>.GetEnumerator_00529808
 0001:0012882C _Unit60.sub_0052982C_0052982C
 0001:00128850 _Unit60.sub_00529850_00529850
 0001:0012886C _Unit60.sub_0052986C_0052986C
 0001:00128888 _Unit60.sub_00529888_00529888
 0001:001288E0 _Unit60.TList<System.Integer>.TEnumerator.MoveNext_005298E0
 0001:00128920 _Unit60.sub_00529920_00529920
 0001:001289C0 _Unit60.TEnumerable<WIL.TWMImages>.GetEnumerator_005299C0
 0001:001289DC _Unit60.TEnumerable<WIL.TWMImages>.ToArray_005299DC
 0001:00128A98 _Unit60.TEnumerator<WIL.TWMImages>.MoveNext_00529A98
 0001:00128AB4 _Unit60.sub_00529AB4_00529AB4
 0001:00128AD4 _Unit60.sub_00529AD4_00529AD4
 0001:00128B18 _Unit60.sub_00529B18_00529B18
 0001:00128B88 _Unit60.sub_00529B88_00529B88
 0001:00128BD4 _Unit60.sub_00529BD4_00529BD4
 0001:00128C28 _Unit60.sub_00529C28_00529C28
 0001:00128C60 _Unit60.sub_00529C60_00529C60
 0001:00128C7C _Unit60.sub_00529C7C_00529C7C
 0001:00128CB0 _Unit60.sub_00529CB0_00529CB0
 0001:00128D34 _Unit60.sub_00529D34_00529D34
 0001:00128DDC _Unit60.TList<WIL.TWMImages>.Destroy_00529DDC
 0001:00128E18 _Unit60.TList<WIL.TWMImages>.Add_00529E18
 0001:00128E6C _Unit60.TList<WIL.TWMImages>.DeleteRange_00529E6C
 0001:00128FE4 _Unit60.TList<WIL.TWMImages>.ToArray_00529FE4
 0001:00129048 _Unit60.TList<WIL.TWMImages>.GetEnumerator_0052A048
 0001:0012906C _Unit60.sub_0052A06C_0052A06C
 0001:00129090 _Unit60.sub_0052A090_0052A090
 0001:001290AC _Unit60.sub_0052A0AC_0052A0AC
 0001:001290C8 _Unit60.sub_0052A0C8_0052A0C8
 0001:00129120 _Unit60.TList<WIL.TWMImages>.TEnumerator.MoveNext_0052A120
 0001:00129160 _Unit60.sub_0052A160_0052A160
 0001:00129248 _Unit60.TEnumerable<WIL.TPair<System.string,WIL.TWMImages>>.GetEnumerator_0052A248
 0001:00129264 _Unit60.TEnumerable<WIL.TPair<System.string,WIL.TWMImages>>.ToArray_0052A264
 0001:00129360 _Unit60.TEnumerator<WIL.TPair<System.string,WIL.TWMImages>>.MoveNext_0052A360
 0001:0012937C _Unit60.sub_0052A37C_0052A37C
 0001:001293E8 _Unit60.sub_0052A3E8_0052A3E8
 0001:00129508 _Unit60.sub_0052A508_0052A508
 0001:00129540 _Unit60.sub_0052A540_0052A540
 0001:001295F4 _Unit60.sub_0052A5F4_0052A5F4
 0001:00129624 _Unit60.sub_0052A624_0052A624
 0001:0012968C _Unit60.sub_0052A68C_0052A68C
 0001:00129700 _Unit60.sub_0052A700_0052A700
 0001:00129758 _Unit60.sub_0052A758_0052A758
 0001:00129774 _Unit60.sub_0052A774_0052A774
 0001:001297A8 _Unit60.sub_0052A7A8_0052A7A8
 0001:001297DC _Unit60.sub_0052A7DC_0052A7DC
 0001:00129828 _Unit60.sub_0052A828_0052A828
 0001:001298F8 _Unit60.TDictionary<System.string,WIL.TWMImages>.Destroy_0052A8F8
 0001:00129948 _Unit60.TDictionary<System.string,WIL.TWMImages>.Clear_0052A948
 0001:00129A34 _Unit60.TDictionary<System.string,WIL.TWMImages>.TryGetValue_0052AA34
 0001:00129A94 _Unit60.TDictionary<System.string,WIL.TWMImages>.AddOrSetValue_0052AA94
 0001:00129B0C _Unit60.TDictionary<System.string,WIL.TWMImages>.ToArray_0052AB0C
 0001:00129BA0 _Unit60.TDictionary<System.string,WIL.TWMImages>.GetEnumerator_0052ABA0
 0001:00129BE0 _Unit60.sub_0052ABE0_0052ABE0
 0001:00129BFC _Unit60.sub_0052ABFC_0052ABFC
 0001:00129C4C _Unit60.TDictionary<System.string,WIL.TWMImages>.TKeyCollection.GetEnumerator_0052AC4C
 0001:00129C74 _Unit60.TDictionary<System.string,WIL.TWMImages>.TKeyCollection.ToArray_0052AC74
 0001:00129C98 _Unit60.sub_0052AC98_0052AC98
 0001:00129CC8 _Unit60.sub_0052ACC8_0052ACC8
 0001:00129CE4 _Unit60.sub_0052ACE4_0052ACE4
 0001:00129D00 _Unit60.sub_0052AD00_0052AD00
 0001:00129D58 _Unit60.TDictionary<System.string,WIL.TWMImages>.TKeyEnumerator.MoveNext_0052AD58
 0001:00129DC8 _Unit60.sub_0052ADC8_0052ADC8
 0001:00129DE4 _Unit60.sub_0052ADE4_0052ADE4
 0001:00129E34 _Unit60.TDictionary<System.string,WIL.TWMImages>.TValueCollection.GetEnumerator_0052AE34
 0001:00129E5C _Unit60.TDictionary<System.string,WIL.TWMImages>.TValueCollection.ToArray_0052AE5C
 0001:00129E80 _Unit60.sub_0052AE80_0052AE80
 0001:00129EAC _Unit60.sub_0052AEAC_0052AEAC
 0001:00129EC8 _Unit60.sub_0052AEC8_0052AEC8
 0001:00129EE4 _Unit60.sub_0052AEE4_0052AEE4
 0001:00129F3C _Unit60.TDictionary<System.string,WIL.TWMImages>.TValueEnumerator.MoveNext_0052AF3C
 0001:00129F90 _Unit60.sub_0052AF90_0052AF90
 0001:00129FDC _Unit60.sub_0052AFDC_0052AFDC
 0001:00129FF8 _Unit60.sub_0052AFF8_0052AFF8
 0001:0012A014 _Unit60.sub_0052B014_0052B014
 0001:0012A06C _Unit60.TDictionary<System.string,WIL.TWMImages>.TPairEnumerator.MoveNext_0052B06C
 0001:0012A0C0 _Unit60.sub_0052B0C0_0052B0C0
 0001:0012A1A8 _Unit60.TEnumerable<WIL.TPair<System.string,WIL.PTImageFilePartInfoLite>>.GetEnumerator_0052B1A8
 0001:0012A1C4 _Unit60.TEnumerable<WIL.TPair<System.string,WIL.PTImageFilePartInfoLite>>.ToArray_0052B1C4
 0001:0012A2C0 _Unit60.TEnumerator<WIL.TPair<System.string,WIL.PTImageFilePartInfoLite>>.MoveNext_0052B2C0
 0001:0012A2DC _Unit60.sub_0052B2DC_0052B2DC
 0001:0012A348 _Unit60.sub_0052B348_0052B348
 0001:0012A468 _Unit60.sub_0052B468_0052B468
 0001:0012A4A0 _Unit60.sub_0052B4A0_0052B4A0
 0001:0012A554 _Unit60.sub_0052B554_0052B554
 0001:0012A584 _Unit60.sub_0052B584_0052B584
 0001:0012A5EC _Unit60.sub_0052B5EC_0052B5EC
 0001:0012A660 _Unit60.sub_0052B660_0052B660
 0001:0012A67C _Unit60.sub_0052B67C_0052B67C
 0001:0012A6B0 _Unit60.sub_0052B6B0_0052B6B0
 0001:0012A6E4 _Unit60.sub_0052B6E4_0052B6E4
 0001:0012A730 _Unit60.sub_0052B730_0052B730
 0001:0012A800 _Unit60.TDictionary<System.string,WIL.PTImageFilePartInfoLite>.Destroy_0052B800
 0001:0012A850 _Unit60.TDictionary<System.string,WIL.PTImageFilePartInfoLite>.Add_0052B850
 0001:0012A8D0 _Unit60.TDictionary<System.string,WIL.PTImageFilePartInfoLite>.Clear_0052B8D0
 0001:0012A9BC _Unit60.TDictionary<System.string,WIL.PTImageFilePartInfoLite>.TryGetValue_0052B9BC
 0001:0012AA1C _Unit60.TDictionary<System.string,WIL.PTImageFilePartInfoLite>.ToArray_0052BA1C
 0001:0012AAB0 _Unit60.TDictionary<System.string,WIL.PTImageFilePartInfoLite>.GetEnumerator_0052BAB0
 0001:0012AAF0 _Unit60.sub_0052BAF0_0052BAF0
 0001:0012AB0C _Unit60.sub_0052BB0C_0052BB0C
 0001:0012AB5C _Unit60.TDictionary<System.string,WIL.PTImageFilePartInfoLite>.TKeyCollection.GetEnumerator_0052BB5C
 0001:0012AB84 _Unit60.TDictionary<System.string,WIL.PTImageFilePartInfoLite>.TKeyCollection.ToArray_0052BB84
 0001:0012ABA8 _Unit60.sub_0052BBA8_0052BBA8
 0001:0012ABD8 _Unit60.sub_0052BBD8_0052BBD8
 0001:0012ABF4 _Unit60.sub_0052BBF4_0052BBF4
 0001:0012AC10 _Unit60.sub_0052BC10_0052BC10
 0001:0012AC68 _Unit60.TDictionary<System.string,WIL.PTImageFilePartInfoLite>.TKeyEnumerator.MoveNext_0052BC68
 0001:0012ACBC _Unit60.sub_0052BCBC_0052BCBC
 0001:0012AD5C _Unit60.TEnumerable<WIL.PTImageFilePartInfoLite>.GetEnumerator_0052BD5C
 0001:0012AD78 _Unit60.TEnumerable<WIL.PTImageFilePartInfoLite>.ToArray_0052BD78
 0001:0012AE34 _Unit60.TEnumerator<WIL.PTImageFilePartInfoLite>.MoveNext_0052BE34
 0001:0012AE6C _Unit60.sub_0052BE6C_0052BE6C
 0001:0012AE88 _Unit60.sub_0052BE88_0052BE88
 0001:0012AED8 _Unit60.TDictionary<System.string,WIL.PTImageFilePartInfoLite>.TValueCollection.GetEnumerator_0052BED8
 0001:0012AF00 _Unit60.TDictionary<System.string,WIL.PTImageFilePartInfoLite>.TValueCollection.ToArray_0052BF00
 0001:0012AF24 _Unit60.sub_0052BF24_0052BF24
 0001:0012AF50 _Unit60.sub_0052BF50_0052BF50
 0001:0012AF6C _Unit60.sub_0052BF6C_0052BF6C
 0001:0012AF88 _Unit60.sub_0052BF88_0052BF88
 0001:0012AFE0 _Unit60.TDictionary<System.string,WIL.PTImageFilePartInfoLite>.TValueEnumerator.MoveNext_0052BFE0
 0001:0012B034 _Unit60.sub_0052C034_0052C034
 0001:0012B080 _Unit60.sub_0052C080_0052C080
 0001:0012B09C _Unit60.sub_0052C09C_0052C09C
 0001:0012B0B8 _Unit60.sub_0052C0B8_0052C0B8
 0001:0012B110 _Unit60.TDictionary<System.string,WIL.PTImageFilePartInfoLite>.TPairEnumerator.MoveNext_0052C110
 0001:0012B164 _Unit60.sub_0052C164_0052C164
 0001:0012B24C _Unit60.TEnumerable<WIL.TPair<System.string,System.Boolean>>.GetEnumerator_0052C24C
 0001:0012B268 _Unit60.TEnumerable<WIL.TPair<System.string,System.Boolean>>.ToArray_0052C268
 0001:0012B364 _Unit60.TEnumerator<WIL.TPair<System.string,System.Boolean>>.MoveNext_0052C364
 0001:0012B380 _Unit60.sub_0052C380_0052C380
 0001:0012B3EC _Unit60.sub_0052C3EC_0052C3EC
 0001:0012B50C _Unit60.sub_0052C50C_0052C50C
 0001:0012B544 _Unit60.sub_0052C544_0052C544
 0001:0012B5F8 _Unit60.sub_0052C5F8_0052C5F8
 0001:0012B628 _Unit60.sub_0052C628_0052C628
 0001:0012B690 _Unit60.sub_0052C690_0052C690
 0001:0012B704 _Unit60.sub_0052C704_0052C704
 0001:0012B720 _Unit60.sub_0052C720_0052C720
 0001:0012B754 _Unit60.sub_0052C754_0052C754
 0001:0012B788 _Unit60.sub_0052C788_0052C788
 0001:0012B7D4 _Unit60.sub_0052C7D4_0052C7D4
 0001:0012B8A4 _Unit60.TDictionary<System.string,System.Boolean>.Destroy_0052C8A4
 0001:0012B8F4 _Unit60.TDictionary<System.string,System.Boolean>.Add_0052C8F4
 0001:0012B974 _Unit60.TDictionary<System.string,System.Boolean>.Clear_0052C974
 0001:0012BA60 _Unit60.TDictionary<System.string,System.Boolean>.ToArray_0052CA60
 0001:0012BAF4 _Unit60.TDictionary<System.string,System.Boolean>.GetEnumerator_0052CAF4
 0001:0012BB34 _Unit60.sub_0052CB34_0052CB34
 0001:0012BB50 _Unit60.sub_0052CB50_0052CB50
 0001:0012BBA0 _Unit60.TDictionary<System.string,System.Boolean>.TKeyCollection.GetEnumerator_0052CBA0
 0001:0012BBC8 _Unit60.TDictionary<System.string,System.Boolean>.TKeyCollection.ToArray_0052CBC8
 0001:0012BBEC _Unit60.sub_0052CBEC_0052CBEC
 0001:0012BC1C _Unit60.sub_0052CC1C_0052CC1C
 0001:0012BC38 _Unit60.sub_0052CC38_0052CC38
 0001:0012BC54 _Unit60.sub_0052CC54_0052CC54
 0001:0012BCAC _Unit60.TDictionary<System.string,System.Boolean>.TKeyEnumerator.MoveNext_0052CCAC
 0001:0012BD00 _Unit60.sub_0052CD00_0052CD00
 0001:0012BDA0 _Unit60.TEnumerable<System.Boolean>.GetEnumerator_0052CDA0
 0001:0012BDBC _Unit60.TEnumerable<System.Boolean>.ToArray_0052CDBC
 0001:0012BE78 _Unit60.TEnumerator<System.Boolean>.MoveNext_0052CE78
 0001:0012BEB0 _Unit60.sub_0052CEB0_0052CEB0
 0001:0012BECC _Unit60.sub_0052CECC_0052CECC
 0001:0012BF1C _Unit60.TDictionary<System.string,System.Boolean>.TValueCollection.GetEnumerator_0052CF1C
 0001:0012BF44 _Unit60.TDictionary<System.string,System.Boolean>.TValueCollection.ToArray_0052CF44
 0001:0012BF68 _Unit60.sub_0052CF68_0052CF68
 0001:0012BF94 _Unit60.sub_0052CF94_0052CF94
 0001:0012BFB0 _Unit60.sub_0052CFB0_0052CFB0
 0001:0012BFCC _Unit60.sub_0052CFCC_0052CFCC
 0001:0012C024 _Unit60.TDictionary<System.string,System.Boolean>.TValueEnumerator.MoveNext_0052D024
 0001:0012C078 _Unit60.sub_0052D078_0052D078
 0001:0012C0C4 _Unit60.sub_0052D0C4_0052D0C4
 0001:0012C0E0 _Unit60.sub_0052D0E0_0052D0E0
 0001:0012C0FC _Unit60.sub_0052D0FC_0052D0FC
 0001:0012C154 _Unit60.TDictionary<System.string,System.Boolean>.TPairEnumerator.MoveNext_0052D154
 0001:0012C1A8 _Unit60.TComparer<System.Integer>.Default_0052D1A8
 0001:0012C1D4 _Unit60.TComparer<System.Integer>.Construct_0052D1D4
 0001:0012C208 _Unit60.sub_0052D208_0052D208
 0001:0012C28C _Unit60.TComparer<WIL.TWMImages>.Default_0052D28C
 0001:0012C2B8 _Unit60.sub_0052D2B8_0052D2B8
 0001:0012C2D8 _Unit60.sub_0052D2D8_0052D2D8
 0001:0012C31C _Unit60.sub_0052D31C_0052D31C
 0001:0012C38C _Unit60.sub_0052D38C_0052D38C
 0001:0012C3E4 _Unit60.sub_0052D3E4_0052D3E4
 0001:0012C438 _Unit60.sub_0052D438_0052D438
 0001:0012C470 _Unit60.sub_0052D470_0052D470
 0001:0012C48C _Unit60.sub_0052D48C_0052D48C
 0001:0012C4C0 _Unit60.sub_0052D4C0_0052D4C0
 0001:0012C544 _Unit60.sub_0052D544_0052D544
 0001:0012C5EC _Unit60.TList<WIL.TPair<System.string,WIL.TWMImages>>.Destroy_0052D5EC
 0001:0012C628 _Unit60.TList<WIL.TPair<System.string,WIL.TWMImages>>.Add_0052D628
 0001:0012C688 _Unit60.TList<WIL.TPair<System.string,WIL.TWMImages>>.DeleteRange_0052D688
 0001:0012C800 _Unit60.TList<WIL.TPair<System.string,WIL.TWMImages>>.ToArray_0052D800
 0001:0012C8AC _Unit60.TList<WIL.TPair<System.string,WIL.TWMImages>>.GetEnumerator_0052D8AC
 0001:0012C8D0 _Unit60.sub_0052D8D0_0052D8D0
 0001:0012C8F4 _Unit60.sub_0052D8F4_0052D8F4
 0001:0012C910 _Unit60.sub_0052D910_0052D910
 0001:0012C92C _Unit60.sub_0052D92C_0052D92C
 0001:0012C984 _Unit60.TList<WIL.TPair<System.string,WIL.TWMImages>>.TEnumerator.MoveNext_0052D984
 0001:0012C9C4 _Unit60.sub_0052D9C4_0052D9C4
 0001:0012C9E4 _Unit60.sub_0052D9E4_0052D9E4
 0001:0012CA28 _Unit60.sub_0052DA28_0052DA28
 0001:0012CA98 _Unit60.sub_0052DA98_0052DA98
 0001:0012CAF0 _Unit60.sub_0052DAF0_0052DAF0
 0001:0012CB44 _Unit60.sub_0052DB44_0052DB44
 0001:0012CB7C _Unit60.sub_0052DB7C_0052DB7C
 0001:0012CB98 _Unit60.sub_0052DB98_0052DB98
 0001:0012CBCC _Unit60.sub_0052DBCC_0052DBCC
 0001:0012CC50 _Unit60.sub_0052DC50_0052DC50
 0001:0012CCF8 _Unit60.TList<WIL.TPair<System.string,WIL.PTImageFilePartInfoLite>>.Destroy_0052DCF8
 0001:0012CD34 _Unit60.TList<WIL.TPair<System.string,WIL.PTImageFilePartInfoLite>>.Add_0052DD34
 0001:0012CD94 _Unit60.TList<WIL.TPair<System.string,WIL.PTImageFilePartInfoLite>>.DeleteRange_0052DD94
 0001:0012CF0C _Unit60.TList<WIL.TPair<System.string,WIL.PTImageFilePartInfoLite>>.ToArray_0052DF0C
 0001:0012CFB8 _Unit60.TList<WIL.TPair<System.string,WIL.PTImageFilePartInfoLite>>.GetEnumerator_0052DFB8
 0001:0012CFDC _Unit60.sub_0052DFDC_0052DFDC
 0001:0012D000 _Unit60.sub_0052E000_0052E000
 0001:0012D01C _Unit60.sub_0052E01C_0052E01C
 0001:0012D038 _Unit60.sub_0052E038_0052E038
 0001:0012D090 _Unit60.TList<WIL.TPair<System.string,WIL.PTImageFilePartInfoLite>>.TEnumerator.MoveNext_0052E090
 0001:0012D0D0 _Unit60.sub_0052E0D0_0052E0D0
 0001:0012D0F0 _Unit60.sub_0052E0F0_0052E0F0
 0001:0012D134 _Unit60.sub_0052E134_0052E134
 0001:0012D1A4 _Unit60.sub_0052E1A4_0052E1A4
 0001:0012D1F0 _Unit60.sub_0052E1F0_0052E1F0
 0001:0012D244 _Unit60.sub_0052E244_0052E244
 0001:0012D27C _Unit60.sub_0052E27C_0052E27C
 0001:0012D298 _Unit60.sub_0052E298_0052E298
 0001:0012D2CC _Unit60.sub_0052E2CC_0052E2CC
 0001:0012D350 _Unit60.sub_0052E350_0052E350
 0001:0012D3F8 _Unit60.TList<WIL.PTImageFilePartInfoLite>.Destroy_0052E3F8
 0001:0012D434 _Unit60.TList<WIL.PTImageFilePartInfoLite>.Add_0052E434
 0001:0012D488 _Unit60.TList<WIL.PTImageFilePartInfoLite>.DeleteRange_0052E488
 0001:0012D600 _Unit60.TList<WIL.PTImageFilePartInfoLite>.ToArray_0052E600
 0001:0012D664 _Unit60.TList<WIL.PTImageFilePartInfoLite>.GetEnumerator_0052E664
 0001:0012D688 _Unit60.sub_0052E688_0052E688
 0001:0012D6AC _Unit60.sub_0052E6AC_0052E6AC
 0001:0012D6C8 _Unit60.sub_0052E6C8_0052E6C8
 0001:0012D6E4 _Unit60.sub_0052E6E4_0052E6E4
 0001:0012D73C _Unit60.TList<WIL.PTImageFilePartInfoLite>.TEnumerator.MoveNext_0052E73C
 0001:0012D77C _Unit60.sub_0052E77C_0052E77C
 0001:0012D79C _Unit60.sub_0052E79C_0052E79C
 0001:0012D7E0 _Unit60.sub_0052E7E0_0052E7E0
 0001:0012D850 _Unit60.sub_0052E850_0052E850
 0001:0012D8A8 _Unit60.sub_0052E8A8_0052E8A8
 0001:0012D8FC _Unit60.sub_0052E8FC_0052E8FC
 0001:0012D934 _Unit60.sub_0052E934_0052E934
 0001:0012D950 _Unit60.sub_0052E950_0052E950
 0001:0012D984 _Unit60.sub_0052E984_0052E984
 0001:0012DA08 _Unit60.sub_0052EA08_0052EA08
 0001:0012DAB0 _Unit60.TList<WIL.TPair<System.string,System.Boolean>>.Destroy_0052EAB0
 0001:0012DAEC _Unit60.TList<WIL.TPair<System.string,System.Boolean>>.Add_0052EAEC
 0001:0012DB4C _Unit60.TList<WIL.TPair<System.string,System.Boolean>>.DeleteRange_0052EB4C
 0001:0012DCC4 _Unit60.TList<WIL.TPair<System.string,System.Boolean>>.ToArray_0052ECC4
 0001:0012DD70 _Unit60.TList<WIL.TPair<System.string,System.Boolean>>.GetEnumerator_0052ED70
 0001:0012DD94 _Unit60.sub_0052ED94_0052ED94
 0001:0012DDB8 _Unit60.sub_0052EDB8_0052EDB8
 0001:0012DDD4 _Unit60.sub_0052EDD4_0052EDD4
 0001:0012DDF0 _Unit60.sub_0052EDF0_0052EDF0
 0001:0012DE48 _Unit60.TList<WIL.TPair<System.string,System.Boolean>>.TEnumerator.MoveNext_0052EE48
 0001:0012DE88 _Unit60.sub_0052EE88_0052EE88
 0001:0012DEA8 _Unit60.sub_0052EEA8_0052EEA8
 0001:0012DEEC _Unit60.sub_0052EEEC_0052EEEC
 0001:0012DF5C _Unit60.sub_0052EF5C_0052EF5C
 0001:0012DFA8 _Unit60.sub_0052EFA8_0052EFA8
 0001:0012DFFC _Unit60.sub_0052EFFC_0052EFFC
 0001:0012E034 _Unit60.sub_0052F034_0052F034
 0001:0012E050 _Unit60.sub_0052F050_0052F050
 0001:0012E084 _Unit60.sub_0052F084_0052F084
 0001:0012E108 _Unit60.sub_0052F108_0052F108
 0001:0012E1B0 _Unit60.TList<System.Boolean>.Destroy_0052F1B0
 0001:0012E1EC _Unit60.TList<System.Boolean>.Add_0052F1EC
 0001:0012E240 _Unit60.TList<System.Boolean>.DeleteRange_0052F240
 0001:0012E3AC _Unit60.TList<System.Boolean>.ToArray_0052F3AC
 0001:0012E410 _Unit60.TList<System.Boolean>.GetEnumerator_0052F410
 0001:0012E434 _Unit60.sub_0052F434_0052F434
 0001:0012E458 _Unit60.sub_0052F458_0052F458
 0001:0012E474 _Unit60.sub_0052F474_0052F474
 0001:0012E490 _Unit60.sub_0052F490_0052F490
 0001:0012E4E8 _Unit60.TList<System.Boolean>.TEnumerator.MoveNext_0052F4E8
 0001:0012E528 _Unit60.sub_0052F528_0052F528
 0001:0012E570 _Unit60.TDelegatedComparer<System.Integer>.Compare_0052F570
 0001:0012E59C _Unit60.sub_0052F59C_0052F59C
 0001:0012E6A4 _Unit60.TComparer<WIL.TPair<System.string,WIL.TWMImages>>.Default_0052F6A4
 0001:0012E6D0 _Unit60.TComparer<WIL.TPair<System.string,WIL.PTImageFilePartInfoLite>>.Default_0052F6D0
 0001:0012E6FC _Unit60.TComparer<WIL.PTImageFilePartInfoLite>.Default_0052F6FC
 0001:0012E728 _Unit60.TComparer<WIL.TPair<System.string,System.Boolean>>.Default_0052F728
 0001:0012E754 _Unit60.TComparer<System.Boolean>.Default_0052F754
 0001:00133DB0 _Unit60.sub_00534DB0_00534DB0
 0001:00133E38 _Unit60.sub_00534E38_00534E38
 0001:00134034 _Unit60.sub_00535034_00535034
 0001:00134358 _Unit60.sub_00535358_00535358
 0001:0013456C _Unit60.sub_0053556C_0053556C
 0001:001345AC _Unit60.sub_005355AC_005355AC
 0001:001345EC _Unit60.sub_005355EC_005355EC
 0001:00134880 _Unit60.sub_00535880_00535880
 0001:00134B00 _Unit60.sub_00535B00_00535B00
 0001:00134C34 _Unit60.sub_00535C34_00535C34
 0001:00134DBC _Unit60.sub_00535DBC_00535DBC
 0001:00134E2C _Unit60.sub_00535E2C_00535E2C
 0001:00134EA0 _Unit60.sub_00535EA0_00535EA0
 0001:00134FC0 _Unit60.Finalization_00535FC0
 0001:00135030 _Unit61.sub_00536030_00536030
 0001:0013505C _Unit61.sub_0053605C_0053605C
 0001:00135088 _Unit61.sub_00536088_00536088
 0001:001350AC _Unit61.sub_005360AC_005360AC
 0001:001350D0 _Unit61.sub_005360D0_005360D0
 0001:00135104 _Unit61.sub_00536104_00536104
 0001:00135148 _Unit61.sub_00536148_00536148
 0001:0013518C _Unit61.sub_0053618C_0053618C
 0001:001351D0 _Unit61.sub_005361D0_005361D0
 0001:00135214 _Unit61.sub_00536214_00536214
 0001:00135294 _Unit61.sub_00536294_00536294
 0001:00135318 _Unit61.sub_00536318_00536318
 0001:00135AC0 _Unit61.sub_00536AC0_00536AC0
 0001:00135B1C _Unit61.sub_00536B1C_00536B1C
 0001:00135C04 _Unit61.sub_00536C04_00536C04
 0001:00135C9C _Unit61.sub_00536C9C_00536C9C
 0001:00135DC4 _Unit61.sub_00536DC4_00536DC4
 0001:00135DDC _Unit61.sub_00536DDC_00536DDC
 0001:00135DF8 _Unit61.sub_00536DF8_00536DF8
 0001:00135E14 _Unit61.sub_00536E14_00536E14
 0001:00135E34 _Unit61.sub_00536E34_00536E34
 0001:00135E50 _Unit61.sub_00536E50_00536E50
 0001:00135EC4 _Unit61.sub_00536EC4_00536EC4
 0001:00135F04 _Unit61.sub_00536F04_00536F04
 0001:00135F20 _Unit61.sub_00536F20_00536F20
 0001:00135F44 _Unit61.sub_00536F44_00536F44
 0001:00135F5C _Unit61.sub_00536F5C_00536F5C
 0001:001360C8 _Unit61.sub_005370C8_005370C8
 0001:00136288 _Unit61.sub_00537288_00537288
 0001:0013633C _Unit61.sub_0053733C_0053733C
 0001:001363D8 _Unit61.sub_005373D8_005373D8
 0001:00136478 _Unit61.sub_00537478_00537478
 0001:001365AC _Unit61.sub_005375AC_005375AC
 0001:00136668 _Unit61.sub_00537668_00537668
 0001:001366FC _Unit61.Finalization_005376FC
 0001:00136714 _Unit62.sub_00537714_00537714
 0001:00136760 _Unit62.sub_00537760_00537760
 0001:001367DC _Unit62.sub_005377DC_005377DC
 0001:0013687C _Unit62.sub_0053787C_0053787C
 0001:001368B0 _Unit62.sub_005378B0_005378B0
 0001:00136A18 _Unit62.sub_00537A18_00537A18
 0001:00136A1C _Unit62.Finalization_00537A1C
 0001:00136A64 _Unit63.sub_00537A64_00537A64
 0001:001378A0 _Unit63.wsock32.bind_005388A0
 0001:001378A8 _Unit63.wsock32.closesocket_005388A8
 0001:001378B0 _Unit63.wsock32.connect_005388B0
 0001:001378B8 _Unit63.wsock32.getpeername_005388B8
 0001:001378C0 _Unit63.wsock32.getsockname_005388C0
 0001:001378C8 _Unit63.wsock32.htons_005388C8
 0001:001378D0 _Unit63.wsock32.inet_addr_005388D0
 0001:001378D8 _Unit63.wsock32.inet_ntoa_005388D8
 0001:001378E0 _Unit63.wsock32.ioctlsocket_005388E0
 0001:001378E8 _Unit63.wsock32.listen_005388E8
 0001:001378F0 _Unit63.wsock32.ntohs_005388F0
 0001:001378F8 _Unit63.wsock32.recv_005388F8
 0001:00137900 _Unit63.wsock32.send_00538900
 0001:00137908 _Unit63.wsock32.socket_00538908
 0001:00137910 _Unit63.wsock32.gethostbyaddr_00538910
 0001:00137918 _Unit63.wsock32.gethostbyname_00538918
 0001:00137920 _Unit63.wsock32.getservbyname_00538920
 0001:00137928 _Unit63.wsock32.gethostname_00538928
 0001:00137930 _Unit63.wsock32.WSAAsyncSelect_00538930
 0001:00137938 _Unit63.wsock32.WSAAsyncGetHostByName_00538938
 0001:00137940 _Unit63.wsock32.WSAAsyncGetServByName_00538940
 0001:00137948 _Unit63.wsock32.WSACancelAsyncRequest_00538948
 0001:00137950 _Unit63.wsock32.WSAGetLastError_00538950
 0001:00137958 _Unit63.wsock32.WSAStartup_00538958
 0001:00137960 _Unit63.wsock32.WSACleanup_00538960
 0001:00139170 _Unit63.CheckSocketResult_0053A170
 0001:00139228 _Unit63.Startup_0053A228
 0001:001392E4 _Unit63.Cleanup_0053A2E4
 0001:00139394 _Unit63.TCustomWinSocket.Create_0053A394
 0001:00139410 _Unit63.TCustomWinSocket.Destroy_0053A410
 0001:0013947C _Unit63.TCustomWinSocket.Accept_0053A47C
 0001:001397D4 _Unit63.TCustomWinSocket.Close_0053A7D4
 0001:001397E0 _Unit63.TCustomWinSocket.Connect_0053A7E0
 0001:001397E4 _Unit63.TCustomWinSocket.Lock_0053A7E4
 0001:001397EC _Unit63.TCustomWinSocket.Unlock_0053A7EC
 0001:001397F8 _Unit63.CheckError_0053A7F8
 0001:001398B0 _Unit63.TCustomWinSocket.CMSocketMessage_0053A8B0
 0001:0013993C _Unit63.TCustomWinSocket.sub_0053A93C_0053A93C
 0001:00139944 _Unit63.TCustomWinSocket.DoSetAsyncStyles_0053A944
 0001:001399A4 _Unit63.TCustomWinSocket.DoListen_0053A9A4
 0001:00139A38 _Unit63.TCustomWinSocket.DoOpen_0053AA38
 0001:00139AB0 _Unit63.TCustomWinSocket.GetHandle_0053AAB0
 0001:00139ACC _Unit63.TCustomWinSocket.GetLocalAddress_0053AACC
 0001:00139B58 _Unit63.TCustomWinSocket.GetLocalHost_0053AB58
 0001:00139BE0 _Unit63.TCustomWinSocket.GetLocalPort_0053ABE0
 0001:00139C6C _Unit63.TCustomWinSocket.GetRemoteHost_0053AC6C
 0001:00139D30 _Unit63.TCustomWinSocket.GetRemoteAddress_0053AD30
 0001:00139DE8 _Unit63.TCustomWinSocket.GetRemotePort_0053ADE8
 0001:00139E9C _Unit63.TCustomWinSocket.GetRemoteAddr_0053AE9C
 0001:00139F28 _Unit63.TCustomWinSocket.LookupName_0053AF28
 0001:00139FC4 _Unit63.TCustomWinSocket.LookupService_0053AFC4
 0001:0013A03C _Unit63.TCustomWinSocket.InitSocket_0053B03C
 0001:0013A118 _Unit63.TCustomWinSocket.Open_0053B118
 0001:0013A218 _Unit63.TCustomWinSocket.Disconnect_0053B218
 0001:0013A358 _Unit63.TCustomWinSocket.DefaultHandler_0053B358
 0001:0013A384 _Unit63.TCustomWinSocket.Event_0053B384
 0001:0013A39C _Unit63.TCustomWinSocket.Error_0053B39C
 0001:0013A3C0 _Unit63.TCustomWinSocket.SendText_0053B3C0
 0001:0013A3D4 _Unit63.DropStream_0053B3D4
 0001:0013A41C _Unit63.TCustomWinSocket.SendStreamPiece_0053B41C
 0001:0013A5A8 _Unit63.TCustomWinSocket.SendBuf_0053B5A8
 0001:0013A6F4 _Unit63.TCustomWinSocket.SetAsyncStyles_0053B6F4
 0001:0013A71C _Unit63.TCustomWinSocket.Read_0053B71C
 0001:0013A738 _Unit63.TCustomWinSocket.ReceiveBuf_0053B738
 0001:0013A8D4 _Unit63.TCustomWinSocket.ReceiveText_0053B8D4
 0001:0013A924 _Unit63.TCustomWinSocket.WndProc_0053B924
 0001:0013A978 _Unit63.TCustomWinSocket.Write_0053B978
 0001:0013A9A8 _Unit63.TCustomWinSocket.CMLookupComplete_0053B9A8
 0001:0013AB10 _Unit63.TClientWinSocket.Connect_0053BB10
 0001:0013AB24 _Unit63.TClientWinSocket.SetClientType_0053BB24
 0001:0013AB78 _Unit63.TAbstractSocket.DoEvent_0053BB78
 0001:0013AB8C _Unit63.TAbstractSocket.DoError_0053BB8C
 0001:0013ABA4 _Unit63.TAbstractSocket.SetActive_0053BBA4
 0001:0013ABC4 _Unit63.TAbstractSocket.InitSocket_0053BBC4
 0001:0013ABDC _Unit63.TAbstractSocket.Loaded_0053BBDC
 0001:0013ABF4 _Unit63.TAbstractSocket.SetAddress_0053BBF4
 0001:0013AC74 _Unit63.TAbstractSocket.SetHost_0053BC74
 0001:0013ACF4 _Unit63.TAbstractSocket.SetPort_0053BCF4
 0001:0013AD20 _Unit63.TAbstractSocket.SetService_0053BD20
 0001:0013ADA0 _Unit63.TAbstractSocket.Close_0053BDA0
 0001:0013ADA8 _Unit63.TCustomSocket.Event_0053BDA8
 0001:0013AEA8 _Unit63.TCustomSocket.Error_0053BEA8
 0001:0013AED4 _Unit63.TClientSocket.Create_0053BED4
 0001:0013AF34 _Unit63.TClientSocket.Destroy_0053BF34
 0001:0013AF64 _Unit63.TClientSocket.DoActivate_0053BF64
 0001:0013AFB4 _Unit63.TClientSocket.GetClientType_0053BFB4
 0001:0013AFC0 _Unit63.TClientSocket.SetClientType_0053BFC0
 0001:0013E430 _Unit63.sub_0053F430_0053F430
 0001:0013E480 _Unit63.sub_0053F480_0053F480
 0001:0013E4A8 _Unit63.sub_0053F4A8_0053F4A8
 0001:0013E4C8 _Unit63.sub_0053F4C8_0053F4C8
 0001:0013E4DC _Unit63.TDControl.Create_0053F4DC
 0001:0013E6C0 _Unit63.TDControl.Destroy_0053F6C0
 0001:0013E714 _Unit63.TDControl.SetCaption_0053F714
 0001:0013E7FC _Unit63.TDControl.GetClientRect_0053F7FC
 0001:0013E858 _Unit63.sub_0053F858_0053F858
 0001:0013EA98 _Unit63.TDControl.sub_0053FA98_0053FA98
 0001:0013EAC4 _Unit63.TDControl.Loaded_0053FAC4
 0001:0013EB50 _Unit63.TDControl.sub_0053FB50_0053FB50
 0001:0013EBD8 _Unit63.sub_0053FBD8_0053FBD8
 0001:0013EC20 _Unit63.sub_0053FC20_0053FC20
 0001:0013EC68 _Unit63.sub_0053FC68_0053FC68
 0001:0013ECB0 _Unit63.sub_0053FCB0_0053FCB0
 0001:0013ECF8 _Unit63.sub_0053FCF8_0053FCF8
 0001:0013ED1C _Unit63.sub_0053FD1C_0053FD1C
 0001:0013EDA8 _Unit63.TDControl.sub_0053FDA8_0053FDA8
 0001:0013EEF8 _Unit63.sub_0053FEF8_0053FEF8
 0001:0013EFB0 _Unit63.sub_0053FFB0_0053FFB0
 0001:0013F074 _Unit63.sub_00540074_00540074
 0001:0013F0BC _Unit63.TDControl.sub_005400BC_005400BC
 0001:0013F0C8 _Unit63.sub_005400C8_005400C8
 0001:0013F23C _Unit63.sub_0054023C_0054023C
 0001:0013F3E4 _Unit63.sub_005403E4_005403E4
 0001:0013F568 _Unit63.sub_00540568_00540568
 0001:0013F684 _Unit63.sub_00540684_00540684
 0001:0013F7AC _Unit63.sub_005407AC_005407AC
 0001:0013F82C _Unit63.sub_0054082C_0054082C
 0001:0013FA48 _Unit63.sub_00540A48_00540A48
 0001:0013FB60 _Unit63.TDControl.sub_00540B60_00540B60
 0001:0013FB94 _Unit63.TDButton.Create_00540B94
 0001:0013FC4C _Unit63.sub_00540C4C_00540C4C
 0001:0013FD88 _Unit63.sub_00540D88_00540D88
 0001:0013FE44 _Unit63.sub_00540E44_00540E44
 0001:0013FF44 _Unit63.TDCheckBox.Create_00540F44
 0001:0013FFD0 _Unit63.sub_00540FD0_00540FD0
 0001:0014005C _Unit63.sub_0054105C_0054105C
 0001:001400C0 _Unit63.sub_005410C0_005410C0
 0001:001401B0 _Unit63.TDCustomControl.Create_005411B0
 0001:00140274 _Unit63.TDListBox.SetTransparent_00541274
 0001:001402A0 _Unit63.TDListBox.SetEnabled_005412A0
 0001:001402CC _Unit63.TDListBox.SetFrameVisible_005412CC
 0001:001402F8 _Unit63.TDListBox.SetFrameHot_005412F8
 0001:00140324 _Unit63.TDListBox.SetFrameSize_00541324
 0001:00140350 _Unit63.TDListBox.SetFrameColor_00541350
 0001:0014038C _Unit63.TDListBox.SetFrameHotColor_0054138C
 0001:001403C8 _Unit63.sub_005413C8_005413C8
 0001:00140438 _Unit63.sub_00541438_00541438
 0001:001404A8 _Unit63.sub_005414A8_005414A8
 0001:00140590 _Unit63.TDHint.Create_00541590
 0001:00140640 _Unit63.TDHint.Destroy_00541640
 0001:00140680 _Unit63.sub_00541680_00541680
 0001:001406CC _Unit63.sub_005416CC_005416CC
 0001:00140714 _Unit63.sub_00541714_00541714
 0001:00140748 _Unit63.sub_00541748_00541748
 0001:00140860 _Unit63.sub_00541860_00541860
 0001:00140AB8 _Unit63.sub_00541AB8_00541AB8
 0001:00140C14 _Unit63.sub_00541C14_00541C14
 0001:00141144 _Unit63.TDGrid.Create_00542144
 0001:00141214 _Unit63.sub_00542214_00542214
 0001:00141308 _Unit63.sub_00542308_00542308
 0001:00141384 _Unit63.sub_00542384_00542384
 0001:00141414 _Unit63.sub_00542414_00542414
 0001:001414D4 _Unit63.sub_005424D4_005424D4
 0001:001414F0 _Unit63.sub_005424F0_005424F0
 0001:0014164C _Unit63.TDWindow.Create_0054264C
 0001:001416D8 _Unit63.TDWindow.SetVisible_005426D8
 0001:00141720 _Unit63.sub_00542720_00542720
 0001:001417F4 _Unit63.sub_005427F4_005427F4
 0001:00141870 _Unit63.sub_00542870_00542870
 0001:001418A4 _Unit63.sub_005428A4_005428A4
 0001:001418F8 _Unit63.sub_005428F8_005428F8
 0001:00141934 _Unit63.TDWinManager.Create_00542934
 0001:00141A10 _Unit63.sub_00542A10_00542A10
 0001:00141A94 _Unit63.sub_00542A94_00542A94
 0001:00141B20 _Unit63.sub_00542B20_00542B20
 0001:00141C34 _Unit63.sub_00542C34_00542C34
 0001:00141D50 _Unit63.sub_00542D50_00542D50
 0001:00141E6C _Unit63.sub_00542E6C_00542E6C
 0001:00141F70 _Unit63.sub_00542F70_00542F70
 0001:00142148 _Unit63.TDMoveButton.Create_00543148
 0001:001421D4 _Unit63.TDMoveButton.SetVisible_005431D4
 0001:0014221C _Unit63.sub_0054321C_0054321C
 0001:001427C0 _Unit63.sub_005437C0_005437C0
 0001:00142990 _Unit63.sub_00543990_00543990
 0001:00142A0C _Unit63.sub_00543A0C_00543A0C
 0001:00142A40 _Unit63.sub_00543A40_00543A40
 0001:00142AE4 _Unit63.sub_00543AE4_00543AE4
 0001:00142B0C _Unit63.sub_00543B0C_00543B0C
 0001:00142B68 _Unit63.sub_00543B68_00543B68
 0001:00142BD4 _Unit63.sub_00543BD4_00543BD4
 0001:00143074 _Unit63.sub_00544074_00544074
 0001:00143260 _Unit63.sub_00544260_00544260
 0001:00143404 _Unit63.sub_00544404_00544404
 0001:001434AC _Unit63.TDCustomEdit.Create_005444AC
 0001:001436AC _Unit63.sub_005446AC_005446AC
 0001:001436D4 _Unit63.sub_005446D4_005446D4
 0001:00143700 _Unit63.sub_00544700_00544700
 0001:0014372C _Unit63.TDEdit.SetMaxLength_0054472C
 0001:00143758 _Unit63.TDEdit.SetPasswordChar_00544758
 0001:00143788 _Unit63.TDEdit.SetNomberOnly_00544788
 0001:001437B4 _Unit63.TDEdit.SetIsHotKey_005447B4
 0001:001437E0 _Unit63.TDEdit.SetHotKey_005447E0
 0001:0014380C _Unit63.TDEdit.SetAlignment_0054480C
 0001:00143838 _Unit63.sub_00544838_00544838
 0001:0014385C _Unit63.TDCustomEdit.SetFocus_0054485C
 0001:001438E4 _Unit63.sub_005448E4_005448E4
 0001:00143A90 _Unit63.sub_00544A90_00544A90
 0001:00144D90 _Unit63.sub_00545D90_00545D90
 0001:001455EC _Unit63.TDCustomEdit.sub_00540B60_005465EC
 0001:00145600 _Unit63.TDCustomEdit.sub_0053FA98_00546600
 0001:0014562C _Unit63.sub_0054662C_0054662C
 0001:001456DC _Unit63.sub_005466DC_005466DC
 0001:00145D0C _Unit63.sub_00546D0C_00546D0C
 0001:00147338 _Unit63.sub_00548338_00548338
 0001:001473E8 _Unit63.sub_005483E8_005483E8
 0001:001474A0 _Unit63.sub_005484A0_005484A0
 0001:0014754C _Unit63.TDComboBox.Create_0054854C
 0001:001475C8 _Unit63.sub_005485C8_005485C8
 0001:0014772C _Unit63.sub_0054872C_0054872C
 0001:00147790 _Unit63.TASPCustomListBox.Create_00548790
 0001:00147858 _Unit63.TASPCustomListBox.Destroy_00548858
 0001:00147898 _Unit63.sub_00548898_00548898
 0001:001478E4 _Unit63.sub_005488E4_005488E4
 0001:0014792C _Unit63.TDListBox.SetBackColor_0054892C
 0001:00147968 _Unit63.TDListBox.SetSelectionColor_00548968
 0001:001479A4 _Unit63.sub_005489A4_005489A4
 0001:001479D8 _Unit63.sub_005489D8_005489D8
 0001:00147B04 _Unit63.sub_00548B04_00548B04
 0001:00147D98 _Unit63.sub_00548D98_00548D98
 0001:00147F14 _Unit63.sub_00548F14_00548F14
 0001:001481C0 _Unit63.sub_005491C0_005491C0
 0001:00148380 _Unit63.sub_00549380_00549380
 0001:001485EC _Unit63.sub_005495EC_005495EC
 0001:00148640 _Unit63.TDUpDown.Create_00549640
 0001:0014877C _Unit63.TDUpDown.Destroy_0054977C
 0001:001487D8 _Unit63.sub_005497D8_005497D8
 0001:0014883C _Unit63.sub_0054983C_0054983C
 0001:00148A7C _Unit63.sub_00549A7C_00549A7C
 0001:001490F8 _Unit63.sub_0054A0F8_0054A0F8
 0001:00149164 _Unit63.TDUpDown.SetMaxPosition_0054A164
 0001:00149208 _Unit63.TDUpDown.SetPosition_0054A208
 0001:001492AC _Unit63.sub_0054A2AC_0054A2AC
 0001:0014968C _Unit63.TDMemo.Create_0054A68C
 0001:0014986C _Unit63.TDMemo.Destroy_0054A86C
 0001:001498AC _Unit63.sub_0054A8AC_0054A8AC
 0001:0014A534 _Unit63.sub_0054B534_0054B534
 0001:0014A900 _Unit63.sub_0054B900_0054B900
 0001:0014ABD4 _Unit63.sub_0054BBD4_0054BBD4
 0001:0014B770 _Unit63.sub_0054C770_0054C770
 0001:0014BE04 _Unit63.sub_0054CE04_0054CE04
 0001:0014BEA0 _Unit63.sub_0054CEA0_0054CEA0
 0001:0014BF14 _Unit63.sub_0054CF14_0054CF14
 0001:0014BFB8 _Unit63.sub_0054CFB8_0054CFB8
 0001:0014C270 _Unit63.sub_0054D270_0054D270
 0001:0014C598 _Unit63.sub_0054D598_0054D598
 0001:0014C738 _Unit63.sub_0054D738_0054D738
 0001:0014C760 _Unit63.TDMemo.SetUpDown_0054D760
 0001:0014C7D4 _Unit63.sub_0054D7D4_0054D7D4
 0001:0014C89C _Unit63.sub_0054D89C_0054D89C
 0001:0014C8C8 _Unit63.TDMemoStringList.Add_0054D8C8
 0001:0014C904 _Unit63.TDMemoStringList.AddObject_0054D904
 0001:0014C9E4 _Unit63.TDMemoStringList.Assign_0054D9E4
 0001:0014CA28 _Unit63.TDMemoStringList.Clear_0054DA28
 0001:0014CA64 _Unit63.TDMemoStringList.Get_0054DA64
 0001:0014CAE8 _Unit63.TDMemoStringList.InsertObject_0054DAE8
 0001:0014CBC8 _Unit63.TDMemoStringList.GetText_0054DBC8
 0001:0014CC94 _Unit63.TDMemoStringList.SaveToFile_0054DC94
 0001:0014CD9C _Unit63.TDMemoStringList.LoadFromFile_0054DD9C
 0001:0014CE74 _Unit63.sub_0054DE74_0054DE74
 0001:0014CF48 _Unit63.sub_0054DF48_0054DF48
 0001:0014CF6C _Unit63.Finalization_0054DF6C
 0001:0014D084 _Unit64.sub_0054E084_0054E084
 0001:0014D1F0 _Unit64.TMap.Create_0054E1F0
 0001:0014D2F0 _Unit64.sub_0054E2F0_0054E2F0
 0001:0014D304 _Unit64.sub_0054E304_0054E304
 0001:0014D790 _Unit64.sub_0054E790_0054E790
 0001:0014D804 _Unit64.sub_0054E804_0054E804
 0001:0014D898 _Unit64.sub_0054E898_0054E898
 0001:0014DA18 _Unit64.sub_0054EA18_0054EA18
 0001:0014DAB8 _Unit64.sub_0054EAB8_0054EAB8
 0001:0014DB40 _Unit64.sub_0054EB40_0054EB40
 0001:0014DC24 _Unit64.sub_0054EC24_0054EC24
 0001:0014DCA4 _Unit64.sub_0054ECA4_0054ECA4
 0001:0014DD1C _Unit64.sub_0054ED1C_0054ED1C
 0001:0014DE40 _Unit64.sub_0054EE40_0054EE40
 0001:0014DFEC _Unit64.TGList.Create_0054EFEC
 0001:0014E03C _Unit64.TGList.Destroy_0054F03C
 0001:0014E07C _Unit64.sub_0054F07C_0054F07C
 0001:0014E094 _Unit64.sub_0054F094_0054F094
 0001:0014E0AC _Unit64.sub_0054F0AC_0054F0AC
 0001:0014E0E0 _Unit64.sub_0054F0E0_0054F0E0
 0001:0014F67C _Unit64.sub_0055067C_0055067C
 0001:0014F69C _Unit64.sub_0055069C_0055069C
 0001:0014F6B0 _Unit64.Finalization_005506B0
 0001:0014FC88 _Unit65.TChannel.Create_00550C88
 0001:0014FD14 _Unit65.sub_00550D14_00550D14
 0001:0014FD30 _Unit65.sub_00550D30_00550D30
 0001:0014FD78 _Unit65.sub_00550D78_00550D78
 0001:0014FDC0 _Unit65.sub_00550DC0_00550DC0
 0001:0014FDF8 _Unit65.sub_00550DF8_00550DF8
 0001:0014FE30 _Unit65.sub_00550E30_00550E30
 0001:0014FE54 _Unit65.sub_00550E54_00550E54
 0001:0014FE7C _Unit65.sub_00550E7C_00550E7C
 0001:0014FE98 _Unit65.sub_00550E98_00550E98
 0001:0014FECC _Unit65.sub_00550ECC_00550ECC
 0001:0014FF24 _Unit65.sub_00550F24_00550F24
 0001:0014FF60 _Unit65.sub_00550F60_00550F60
 0001:0014FF94 _Unit65.sub_00550F94_00550F94
 0001:0015002C _Unit65.sub_0055102C_0055102C
 0001:00150050 _Unit65.TEffect.Create_00551050
 0001:00150114 _Unit65.sub_00551114_00551114
 0001:00150130 _Unit65.sub_00551130_00551130
 0001:00150198 _Unit65.sub_00551198_00551198
 0001:00150264 _Unit65.TResource.Create_00551264
 0001:001502F8 _Unit65.sub_005512F8_005512F8
 0001:00150314 _Unit65.sub_00551314_00551314
 0001:00150330 _Unit65.sub_00551330_00551330
 0001:00150364 _Unit65.sub_00551364_00551364
 0001:00150398 _Unit65.TSoundMgr.Create_00551398
 0001:001504A8 _Unit65.TSoundMgr.Destroy_005514A8
 0001:00150588 _Unit65.sub_00551588_00551588
 0001:001505FC _Unit65.sub_005515FC_005515FC
 0001:0015064C _Unit65.sub_0055164C_0055164C
 0001:00150694 _Unit65.sub_00551694_00551694
 0001:001506F8 _Unit65.sub_005516F8_005516F8
 0001:001507A0 _Unit65.sub_005517A0_005517A0
 0001:0015085C _Unit65.sub_0055185C_0055185C
 0001:00150AC0 _Unit65.sub_00551AC0_00551AC0
 0001:00150B18 _Unit65.sub_00551B18_00551B18
 0001:00150B40 _Unit65.TSoundMgr.Execute_00551B40
 0001:00150FAC _Unit65.sub_00551FAC_00551FAC
 0001:0015132C _Unit65.sub_0055232C_0055232C
 0001:00151498 _Unit65.sub_00552498_00552498
 0001:001514C0 _Unit65.sub_005524C0_005524C0
 0001:001514E8 _Unit65.sub_005524E8_005524E8
 0001:00151638 _Unit65.sub_00552638_00552638
 0001:001516C0 _Unit65.sub_005526C0_005526C0
 0001:00151890 _Unit65.sub_00552890_00552890
 0001:00151A6C _Unit65.sub_00552A6C_00552A6C
 0001:00151ACC _Unit65.sub_00552ACC_00552ACC
 0001:00151AEC _Unit65.sub_00552AEC_00552AEC
 0001:00151B40 _Unit65.sub_00552B40_00552B40
 0001:00151B8C _Unit65.sub_00552B8C_00552B8C
 0001:00151B9C _Unit65.sub_00552B9C_00552B9C
 0001:00151BC4 _Unit65.sub_00552BC4_00552BC4
 0001:00152014 _Unit65.TrimPunctuation_00553014
 0001:00152090 _Unit65.EOleSysError.Create_00553090
 0001:00152164 _Unit65.EOleException.Create_00553164
 0001:001521FC _Unit65.OleError_005531FC
 0001:00152218 _Unit65.OleCheck_00553218
 0001:00152228 _Unit65.GUIDToString_00553228
 0001:00152254 _Unit65.ProgIDToClassID_00553254
 0001:001522B0 _Unit65.ClassIDToProgID_005532B0
 0001:001522DC _Unit65.CreateComObject_005532DC
 0001:00152408 _Unit65.CreateRemoteComObject_00553408
 0001:00152570 _Unit65.CreateOleObject_00553570
 0001:00152694 _Unit65.InterfaceConnect_00553694
 0001:00152748 _Unit65.InterfaceDisconnect_00553748
 0001:00152804 _Unit65.LoadComExProcs_00553804
 0001:00152988 _Unit65.CreateSafeCallErrorExceptionObject_00553988
 0001:00152AAC _Unit65.SafeCallError_00553AAC
 0001:00152ABC _Unit65.DispatchInvoke_00553ABC
 0001:00152DF8 _Unit65.RaiseNameException_00553DF8
 0001:00152E2C _Unit65.GetIDsOfNames_00553E2C
 0001:00152F10 _Unit65.RaiseException_00553F10
 0001:00152F28 _Unit65.VarDispInvoke_00553F28
 0001:00152FC4 _Unit65.DispCallError_00553FC4
 0001:00153098 _Unit65.DispatchInvokeError_00554098
 0001:001530A4 _Unit65.ClearExcepInfo_005540A4
 0001:001530B4 _Unit65.DispCall_005540B4
 0001:00153198 _Unit65.DispCallByID_00554198
 0001:00153274 _Unit65.InitComObj_00554274
 0001:001532F0 _Unit65.Finalization_005542F0
 0001:001534E0 _Unit66.TRelationShipInfo.Create_005544E0
 0001:001535A4 _Unit66.TRelationShipMgr.Create_005545A4
 0001:0015365C _Unit66.sub_0055465C_0055465C
 0001:001536B4 _Unit66.sub_005546B4_005546B4
 0001:00153714 _Unit66.sub_00554714_00554714
 0001:00153848 _Unit66.sub_00554848_00554848
 0001:00153B20 _Unit66.sub_00554B20_00554B20
 0001:001541BC _Unit66.sub_005551BC_005551BC
 0001:001541F0 _Unit66.sub_005551F0_005551F0
 0001:00154228 _Unit66.sub_00555228_00555228
 0001:00154268 _Unit66.sub_00555268_00555268
 0001:001542D8 _Unit66.sub_005552D8_005552D8
 0001:00154384 _Unit66.sub_00555384_00555384
 0001:001543DC _Unit66.sub_005553DC_005553DC
 0001:001545B0 _Unit66.sub_005555B0_005555B0
 0001:00154674 _Unit66.sub_00555674_00555674
 0001:00154690 _Unit66.sub_00555690_00555690
 0001:0015474C _Unit66.TMarketItemManager.Create_0055574C
 0001:001547C8 _Unit66.sub_005557C8_005557C8
 0001:00154838 _Unit66.sub_00555838_00555838
 0001:0015486C _Unit66.sub_0055586C_0055586C
 0001:001548AC _Unit66.sub_005558AC_005558AC
 0001:001548DC _Unit66.sub_005558DC_005558DC
 0001:001548F8 _Unit66.sub_005558F8_005558F8
 0001:00154914 _Unit66.sub_00555914_00555914
 0001:00154930 _Unit66.sub_00555930_00555930
 0001:0015494C _Unit66.sub_0055594C_0055594C
 0001:00154984 _Unit66.sub_00555984_00555984
 0001:00154C34 _Unit66.TStallMgr.Create_00555C34
 0001:00155040 _Unit66.sub_00556040_00556040
 0001:001550F8 _Unit66.sub_005560F8_005560F8
 0001:001551EC _Unit66.TCnBucket.AddObject_005561EC
 0001:00155254 _Unit66.TCnBucket.CompareStrings_00556254
 0001:001553D8 _Unit66.TCnBucket.Create_005563D8
 0001:00155444 _Unit66.sub_00556444_00556444
 0001:00155498 _Unit66.sub_00556498_00556498
 0001:001554E4 _Unit66.sub_005564E4_005564E4
 0001:0015556C _Unit66.sub_0055656C_0055656C
 0001:001555B0 _Unit66.sub_005565B0_005565B0
 0001:0015568C _Unit66.sub_0055668C_0055668C
 0001:001556D4 _Unit66.TCnHashTable.Destroy_005566D4
 0001:0015576C _Unit66.sub_0055676C_0055676C
 0001:00155798 _Unit66.sub_00556798_00556798
 0001:001557C4 _Unit66.sub_005567C4_005567C4
 0001:00155820 _Unit66.sub_00556820_00556820
 0001:0015584C _Unit66.sub_0055684C_0055684C
 0001:00155894 _Unit66.sub_00556894_00556894
 0001:001558DC _Unit66.sub_005568DC_005568DC
 0001:00155900 _Unit66.sub_00556900_00556900
 0001:001559C4 _Unit66.sub_005569C4_005569C4
 0001:00155A40 _Unit66.sub_00556A40_00556A40
 0001:00155A84 _Unit66.sub_00556A84_00556A84
 0001:00155AA0 _Unit66.sub_00556AA0_00556AA0
 0001:00155AF0 _Unit66.sub_00556AF0_00556AF0
 0001:00155C28 _Unit66.sub_00556C28_00556C28
 0001:00155C6C _Unit66.sub_00556C6C_00556C6C
 0001:00155C8C _Unit66.sub_00556C8C_00556C8C
 0001:00155CE8 _Unit66.sub_00556CE8_00556CE8
 0001:00155D68 _Unit66.sub_00556D68_00556D68
 0001:00155FC0 _Unit66.sub_00556FC0_00556FC0
 0001:00156008 _Unit66.TCnHashTableSmall.Create_00557008
 0001:00156058 _Unit66.sub_00557058_00557058
 0001:0015607C _Unit66.sub_0055707C_0055707C
 0001:00157110 _Unit66.Finalization_00558110
 0001:00157BEC AxCtrls.HandleException_00558BEC
 0001:00157C18 AxCtrls.GetFontAccess_00558C18
 0001:00157C68 AxCtrls.GetPictureAccess_00558C68
 0001:00157CB8 AxCtrls.GetOleFont_00558CB8
 0001:00157D08 AxCtrls.SetOleFont_00558D08
 0001:00157D70 AxCtrls.GetOlePicture_00558D70
 0001:00157DC0 AxCtrls.TCustomAdapter.Create_00558DC0
 0001:00157E14 AxCtrls.TCustomAdapter.Destroy_00558E14
 0001:00157E40 AxCtrls.TCustomAdapter.Changed_00558E40
 0001:00157E4C AxCtrls.TCustomAdapter.ConnectOleObject_00558E4C
 0001:00157ED0 AxCtrls.TCustomAdapter.ReleaseOleObject_00558ED0
 0001:00157F00 AxCtrls.TAdapterNotifier.Create_00558F00
 0001:00157F3C AxCtrls.TAdapterNotifier.OnChanged_00558F3C
 0001:00157F84 AxCtrls.TActiveXControl.EnableModeless_00558F84
 0001:00157F90 AxCtrls.TFontAdapter.Create_00558F90
 0001:00157FCC AxCtrls.TFontAdapter.Update_00558FCC
 0001:00158198 AxCtrls.TFontAdapter.Changed_00559198
 0001:0015833C AxCtrls.TFontAdapter.GetOleFont_0055933C
 0001:001584A8 AxCtrls.TFontAdapter.SetOleFont_005594A8
 0001:00158514 AxCtrls.TPictureAdapter.Create_00559514
 0001:00158550 AxCtrls.TPictureAdapter.Update_00559550
 0001:001585DC AxCtrls.TPictureAdapter.GetOlePicture_005595DC
 0001:00158810 AxCtrls.TPictureAdapter.SetOlePicture_00559810
 0001:00158824 AxCtrls.TOleGraphic.Create_00559824
 0001:0015885C AxCtrls.TOleGraphic.Assign_0055985C
 0001:00158890 AxCtrls.TOleGraphic.Changed_00559890
 0001:00158894 AxCtrls.TOleGraphic.Draw_00559894
 0001:001589A0 AxCtrls.TOleGraphic.GetEmpty_005599A0
 0001:001589CC AxCtrls.HIMETRICtoDP_005599CC
 0001:00158A14 AxCtrls.TOleGraphic.GetHeight_00559A14
 0001:00158A38 AxCtrls.TOleGraphic.GetMMHeight_00559A38
 0001:00158A54 AxCtrls.TOleGraphic.GetMMWidth_00559A54
 0001:00158A70 AxCtrls.TOleGraphic.GetPalette_00559A70
 0001:00158A8C AxCtrls.TOleGraphic.GetTransparent_00559A8C
 0001:00158AAC AxCtrls.TOleGraphic.GetWidth_00559AAC
 0001:00158AD0 AxCtrls.InvalidOperation_00559AD0
 0001:00158AE8 AxCtrls.TOleGraphic.SetHeight_00559AE8
 0001:00158B30 AxCtrls.TOleGraphic.SetPalette_00559B30
 0001:00158B50 AxCtrls.TOleGraphic.SetWidth_00559B50
 0001:00158B98 AxCtrls.TOleGraphic.LoadFromFile_00559B98
 0001:00158B9C AxCtrls.TOleGraphic.LoadFromStream_00559B9C
 0001:00158BEC AxCtrls.TOleGraphic.SaveToStream_00559BEC
 0001:00158C70 AxCtrls.TOleGraphic.LoadFromClipboardFormat_00559C70
 0001:00158CBC AxCtrls.TOleGraphic.SaveToClipboardFormat_00559CBC
 0001:00158D08 AxCtrls.InitOlePro32_00559D08
 0001:00158E5C AxCtrls.OleCreateFontIndirect_00559E5C
 0001:00158E78 AxCtrls.OleCreatePictureIndirect_00559E78
 0001:00158EA0 AxCtrls.OleLoadPicture_00559EA0
 0001:00158F10 AxCtrls.Finalization_00559F10
 0001:0015A5B8 OleCtrls.FontToOleFont_0055B5B8
 0001:0015A604 OleCtrls.OleFontToFont_0055B604
 0001:0015A680 OleCtrls.StringToVarOleStr_0055B680
 0001:0015A6A0 OleCtrls.TEventDispatch.Create_0055B6A0
 0001:0015A6C4 OleCtrls.sub_0055B6C4_0055B6C4
 0001:0015A730 OleCtrls.TEventDispatch._AddRef_0055B730
 0001:0015A744 OleCtrls.TEventDispatch._Release_0055B744
 0001:0015A758 OleCtrls.TEventDispatch.GetTypeInfoCount_0055B758
 0001:0015A768 OleCtrls.TEventDispatch.GetTypeInfo_0055B768
 0001:0015A77C OleCtrls.TEventDispatch.GetIDsOfNames_0055B77C
 0001:0015A788 OleCtrls.TEventDispatch.Invoke_0055B788
 0001:0015A7D0 OleCtrls.TEnumPropDesc.Destroy_0055B7D0
 0001:0015A810 OleCtrls.TOleControl.Create_0055B810
 0001:0015AA44 OleCtrls.FreeList_0055BA44
 0001:0015AA7C OleCtrls.TOleControl.Destroy_0055BA7C
 0001:0015AB30 OleCtrls.TOleControl.CreateControl_0055BB30
 0001:0015AE50 OleCtrls.LicenseCheck_0055BE50
 0001:0015AED0 OleCtrls.TOleControl.CreateInstance_0055BED0
 0001:0015B018 OleCtrls.TOleControl.CreateStorage_0055C018
 0001:0015B0F8 OleCtrls.TOleControl.CreateWnd_0055C0F8
 0001:0015B19C OleCtrls.TOleControl.DefaultHandler_0055C19C
 0001:0015B22C OleCtrls.TOleControl.SuppressException_0055C22C
 0001:0015B254 OleCtrls.TOleControl.DefineProperties_0055C254
 0001:0015B308 OleCtrls.TOleControl.DestroyControl_0055C308
 0001:0015B370 OleCtrls.TOleControl.DestroyEnumPropDescs_0055C370
 0001:0015B3B0 OleCtrls.TOleControl.DestroyStorage_0055C3B0
 0001:0015B3D0 OleCtrls.TOleControl.DestroyWindowHandle_0055C3D0
 0001:0015B41C OleCtrls.TOleControl.GetEventMethod_0055C41C
 0001:0015B47C OleCtrls.TOleControl.GetIDispatchProp_0055C47C
 0001:0015B49C OleCtrls.TOleControl.GetIntegerProp_0055C49C
 0001:0015B4B0 OleCtrls.TOleControl.GetMainMenu_0055C4B0
 0001:0015B504 OleCtrls.TOleControl.GetOleBoolProp_0055C504
 0001:0015B520 OleCtrls.TOleControl.GetOleObject_0055C520
 0001:0015B590 OleCtrls.TOleControl.GetDefaultDispatch_0055C590
 0001:0015B5C4 OleCtrls.TOleControl.GetOleVariantProp_0055C5C4
 0001:0015B5E4 OleCtrls.TOleControl.GetProperty_0055C5E4
 0001:0015B674 OleCtrls.TOleControl.GetStringProp_0055C674
 0001:0015B6D0 OleCtrls.TOleControl.GetVariantProp_0055C6D0
 0001:0015B6E8 OleCtrls.TOleControl.GetWideStringProp_0055C6E8
 0001:0015B714 OleCtrls.TOleControl.HookControlWndProc_0055C714
 0001:0015B7A4 OleCtrls.CallEventMethod_0055C7A4
 0001:0015B7E4 OleCtrls.TOleControl.D2InvokeEvent_0055C7E4
 0001:0015B984 OleCtrls.TOleControl.InvokeEvent_0055C984
 0001:0015BA64 OleCtrls.sub_0055CA64_0055CA64
 0001:0015BA68 OleCtrls.TOleControl.PaletteChanged_0055CA68
 0001:0015BAB8 OleCtrls.TOleControl.PictureChanged_0055CAB8
 0001:0015BB24 OleCtrls.TOleControl.ReadData_0055CB24
 0001:0015BBE0 OleCtrls.TOleControl.SetBounds_0055CBE0
 0001:0015BCC0 OleCtrls.TOleControl.SetColorProp_0055CCC0
 0001:0015BCC8 OleCtrls.TOleControl.SetIDispatchProp_0055CCC8
 0001:0015BCE0 OleCtrls.TOleControl.SetIntegerProp_0055CCE0
 0001:0015BCF8 OleCtrls.TOleControl.SetName_0055CCF8
 0001:0015BDAC OleCtrls.TOleControl.SetOleBoolProp_0055CDAC
 0001:0015BDD8 OleCtrls.TOleControl.SetOleVariantProp_0055CDD8
 0001:0015BDE0 OleCtrls.TOleControl.SetParent_0055CDE0
 0001:0015BEC0 OleCtrls.TOleControl.SetTPictureProp_0055CEC0
 0001:0015BFB0 OleCtrls.TOleControl.SetProperty_0055CFB0
 0001:0015C068 OleCtrls.TOleControl.SetStringProp_0055D068
 0001:0015C0C8 OleCtrls.TOleControl.SetUIActive_0055D0C8
 0001:0015C120 OleCtrls.TOleControl.SetVariantProp_0055D120
 0001:0015C17C OleCtrls.TOleControl.SetWideStringProp_0055D17C
 0001:0015C1C0 OleCtrls.TOleControl.StandardEvent_0055D1C0
 0001:0015C3D0 OleCtrls.TOleControl.WndProc_0055D3D0
 0001:0015C4B8 OleCtrls.TOleControl.WriteData_0055D4B8
 0001:0015C5C0 OleCtrls.TOleControl.WMEraseBkgnd_0055D5C0
 0001:0015C5E0 OleCtrls.TOleControl.WMPaint_0055D5E0
 0001:0015C650 OleCtrls.TOleControl.CMDocWindowActivate_0055D650
 0001:0015C6AC OleCtrls.TOleControl.CMColorChanged_0055D6AC
 0001:0015C730 OleCtrls.TOleControl.CMEnabledChanged_0055D730
 0001:0015C7BC OleCtrls.TOleControl.CMFontChanged_0055D7BC
 0001:0015C8BC OleCtrls.TOleControl.CMDialogKey_0055D8BC
 0001:0015C958 OleCtrls.TOleControl.CMUIActivate_0055D958
 0001:0015C9A8 OleCtrls.TOleControl.CMUIDeactivate_0055D9A8
 0001:0015C9F0 OleCtrls.TOleControl.QueryInterface_0055D9F0
 0001:0015CA18 OleCtrls.TOleControl._AddRef_0055DA18
 0001:0015CA30 OleCtrls.TOleControl._Release_0055DA30
 0001:0015CA48 OleCtrls.TOleControl.CanInPlaceActivate_0055DA48
 0001:0015CA54 OleCtrls.TOleControl.GetMoniker_0055DA54
 0001:0015CA6C OleCtrls.TOleControl.GetContainer_0055DA6C
 0001:0015CA84 OleCtrls.TOleControl.ShowObject_0055DA84
 0001:0015CA98 OleCtrls.TOleControl.ContextSensitiveHelp_0055DA98
 0001:0015CAA4 OleCtrls.TOleControl.RequestNewObjectLayout_0055DAA4
 0001:0015CB48 OleCtrls.TOleControl.DiscardUndoState_0055DB48
 0001:0015CB54 OleCtrls.TOleControl.LockInPlaceActive_0055DB54
 0001:0015CB60 OleCtrls.TOleControl.GetExtendedControl_0055DB60
 0001:0015CB78 OleCtrls.TOleControl.TransformCoords_0055DB78
 0001:0015CC18 OleCtrls.TOleControl.OleControlSite_TranslateAccelerator_0055DC18
 0001:0015CC24 OleCtrls.TOleControl.OnFocus_0055DC24
 0001:0015CC30 OleCtrls.TOleControl.OnControlInfoChanged_0055DC30
 0001:0015CC3C OleCtrls.TOleControl.EnableModeless_0055DC3C
 0001:0015CC48 OleCtrls.TOleControl.OleInPlaceSite_GetWindow_0055DC48
 0001:0015CC74 OleCtrls.TOleControl.SaveObject_0055DC74
 0001:0015CC80 OleCtrls.TOleControl.OnInPlaceActivate_0055DC80
 0001:0015CCE8 OleCtrls.TOleControl.OnUIActivate_0055DCE8
 0001:0015CCFC OleCtrls.TOleControl.GetWindowContext_0055DCFC
 0001:0015CD90 OleCtrls.TOleControl.Scroll_0055DD90
 0001:0015CD9C OleCtrls.TOleControl.OnUIDeactivate_0055DD9C
 0001:0015CDC0 OleCtrls.TOleControl.OnInPlaceDeactivate_0055DDC0
 0001:0015CDE4 OleCtrls.TOleControl.ShowPropertyFrame_0055DDE4
 0001:0015CDF0 OleCtrls.TOleControl.DeactivateAndUndo_0055DDF0
 0001:0015CE08 OleCtrls.TOleControl.OnPosRectChange_0055DE08
 0001:0015CE48 OleCtrls.TOleControl.GetBorder_0055DE48
 0001:0015CE54 OleCtrls.TOleControl.RequestBorderSpace_0055DE54
 0001:0015CE60 OleCtrls.TOleControl.SetBorderSpace_0055DE60
 0001:0015CE6C OleCtrls.TOleControl.SetActiveObject_0055DE6C
 0001:0015CE78 OleCtrls.TOleControl.OleInPlaceFrame_GetWindow_0055DE78
 0001:0015CE94 OleCtrls.TOleControl.InsertMenus_0055DE94
 0001:0015CED4 OleCtrls.TOleControl.SetMenu_0055DED4
 0001:0015CF0C OleCtrls.TOleControl.RemoveMenus_0055DF0C
 0001:0015CF34 OleCtrls.TOleControl.OnRequestEdit_0055DF34
 0001:0015CF40 OleCtrls.TOleControl.OnShowWindow_0055DF40
 0001:0015CF4C OleCtrls.TOleControl.OleInPlaceFrame_TranslateAccelerator_0055DF4C
 0001:0015CF58 OleCtrls.TOleControl.GetTypeInfoCount_0055DF58
 0001:0015CF68 OleCtrls.TOleControl.GetTypeInfo_0055DF68
 0001:0015CF7C OleCtrls.TOleControl.GetIDsOfNames_0055DF7C
 0001:0015CF88 OleCtrls.TOleControl.Invoke_0055DF88
 0001:0015D12C OleCtrls.sub_0055E12C_0055E12C
 0001:0015D344 OleCtrls.TOleControl.SetStatusText_0055E344
 0001:0015D350 OleCtrls.TOleControl.PostMessageFilter_0055E350
 0001:0015D35C OleCtrls.TOleControl.PreMessageFilter_0055E35C
 0001:0015D368 OleCtrls.TOleControl.QueryService_0055E368
 0001:0015D3A0 OleCtrls.Finalization_0055E3A0
 0001:0015E5F0 Buttons.TGlyphList.CreateSize_0055F5F0
 0001:0015E644 Buttons.TGlyphList.Destroy_0055F644
 0001:0015E674 Buttons.TGlyphList.AllocateIndex_0055F674
 0001:0015E6C0 Buttons.TGlyphList.AddMasked_0055F6C0
 0001:0015E6EC Buttons.TGlyphList.Delete_0055F6EC
 0001:0015E71C Buttons.TGlyphCache.Create_0055F71C
 0001:0015E760 Buttons.TGlyphCache.Destroy_0055F760
 0001:0015E790 Buttons.TGlyphCache.GetList_0055F790
 0001:0015E7F0 Buttons.TGlyphCache.ReturnList_0055F7F0
 0001:0015E818 Buttons.TGlyphCache.Empty_0055F818
 0001:0015E824 Buttons.TButtonGlyph.Create_0055F824
 0001:0015E8BC Buttons.TButtonGlyph.Destroy_0055F8BC
 0001:0015E918 Buttons.TButtonGlyph.Invalidate_0055F918
 0001:0015E95C Buttons.TButtonGlyph.GlyphChanged_0055F95C
 0001:0015E98C Buttons.TButtonGlyph.SetGlyph_0055F98C
 0001:0015EA04 Buttons.TButtonGlyph.SetNumGlyphs_0055FA04
 0001:0015EA2C Buttons.TButtonGlyph.CreateButtonGlyph_0055FA2C
 0001:0015F000 Buttons.TButtonGlyph.DrawButtonGlyph_00560000
 0001:0015F1D4 Buttons.DoDrawText_005601D4
 0001:0015F35C Buttons.TButtonGlyph.DrawButtonText_0056035C
 0001:0015F428 Buttons.TButtonGlyph.CalcButtonLayout_00560428
 0001:0015F7B4 Buttons.TButtonGlyph.Draw_005607B4
 0001:0015F828 Buttons.TBitBtnActionLink.AssignClient_00560828
 0001:0015F84C Buttons.TBitBtnActionLink.Create_0056084C
 0001:0015F888 Buttons.TSpeedButtonActionLink.IsCheckedLinked_00560888
 0001:0015F8C8 Buttons.TBitBtnActionLink.IsGlyphLinked_005608C8
 0001:0015F98C Buttons.TSpeedButtonActionLink.IsGroupIndexLinked_0056098C
 0001:0015F9BC Buttons.TBitBtnActionLink.IsImageIndexLinked_005609BC
 0001:0015F9E0 Buttons.TSpeedButtonActionLink.SetChecked_005609E0
 0001:0015FA00 Buttons.TSpeedButtonActionLink.SetGroupIndex_00560A00
 0001:0015FA20 Buttons.sub_00560A20_00560A20
 0001:0015FABC Buttons.TSpeedButton.Create_00560ABC
 0001:0015FB7C Buttons.TSpeedButton.Destroy_00560B7C
 0001:0015FBB4 Buttons.DoGlassPaint_00560BB4
 0001:0015FC0C Buttons.TSpeedButton.Paint_00560C0C
 0001:00160198 Buttons.TSpeedButton.UpdateTracking_00561198
 0001:001601FC Buttons.TSpeedButton.Loaded_005611FC
 0001:00160228 Buttons.TSpeedButton.MouseDown_00561228
 0001:00160284 Buttons.TSpeedButton.MouseMove_00561284
 0001:0016032C Buttons.TSpeedButton.MouseUp_0056132C
 0001:0016042C Buttons.TSpeedButton.Click_0056142C
 0001:00160434 Buttons.TBitBtn.GetPalette_00561434
 0001:00160448 Buttons.TSpeedButton.sub_004770F0_00561448
 0001:00160450 Buttons.TBitBtn.GetGlyph_00561450
 0001:0016045C Buttons.TSpeedButton.SetGlyph_0056145C
 0001:00160478 Buttons.TSpeedButton.GetNumGlyphs_00561478
 0001:00160484 Buttons.TSpeedButton.SetNumGlyphs_00561484
 0001:001604B4 Buttons.TSpeedButton.GlyphChanged_005614B4
 0001:001604C0 Buttons.TSpeedButton.HasCustomGlyph_005614C0
 0001:001604EC Buttons.TBitBtn.InternalCopyImage_005614EC
 0001:00160574 Buttons.TSpeedButton.UpdateExclusive_00561574
 0001:001605AC Buttons.TSpeedButton.SetDown_005615AC
 0001:0016061C Buttons.TSpeedButton.SetFlat_0056161C
 0001:00160634 Buttons.TSpeedButton.SetGroupIndex_00561634
 0001:00160648 Buttons.TSpeedButton.SetLayout_00561648
 0001:00160660 Buttons.TSpeedButton.SetMargin_00561660
 0001:0016067C Buttons.TSpeedButton.SetSpacing_0056167C
 0001:00160694 Buttons.TSpeedButton.SetTransparent_00561694
 0001:001606D4 Buttons.TSpeedButton.SetAllowAllUp_005616D4
 0001:001606E8 Buttons.TSpeedButton.WMLButtonDblClk_005616E8
 0001:0016070C Buttons.TSpeedButton.CMEnabledChanged_0056170C
 0001:00160740 Buttons.TSpeedButton.CMButtonPressed_00561740
 0001:001607B4 Buttons.TSpeedButton.CMDialogChar_005617B4
 0001:0016084C Buttons.TBitBtn.GlyphChanged_0056184C
 0001:00160858 Buttons.TSpeedButton.CMFontChanged_00561858
 0001:00160864 Buttons.TSpeedButton.CMSysColorChange_00561864
 0001:00160888 Buttons.TSpeedButton.CMMouseEnter_00561888
 0001:00160904 Buttons.TSpeedButton.CMMouseLeave_00561904
 0001:0016096C Buttons.TBitBtn.CopyImage_0056196C
 0001:0016098C Buttons.TSpeedButton.ActionChange_0056198C
 0001:00160A84 Buttons.DestroyLocals_00561A84
 0001:00160B1C Buttons.Finalization_00561B1C
 0001:001611A4 OleServer.TServerEventDispatch.Create_005621A4
 0001:001611D0 OleServer.sub_005621D0_005621D0
 0001:00161234 OleServer.TServerEventDispatch._AddRef_00562234
 0001:00161254 OleServer.TServerEventDispatch._Release_00562254
 0001:00161274 OleServer.TServerEventDispatch.GetTypeInfoCount_00562274
 0001:00161284 OleServer.TServerEventDispatch.GetTypeInfo_00562284
 0001:00161298 OleServer.TServerEventDispatch.GetIDsOfNames_00562298
 0001:001612A4 OleServer.TServerEventDispatch.Invoke_005622A4
 0001:00161444 OleServer.TServerEventDispatch.ServerDisconnect_00562444
 0001:00161454 OleServer.TOleServer.Create_00562454
 0001:001614A8 OleServer.TOleServer.Destroy_005624A8
 0001:001614F8 OleServer.TOleServer.Loaded_005624F8
 0001:0016151C OleServer.sub_0056251C_0056251C
 0001:00161520 OleServer.TOleServer.GetServer_00562520
 0001:00161678 OleServer.TOleServer.GetConnectKind_00562678
 0001:0016168C OleServer.TOleServer.SetConnectKind_0056268C
 0001:00161690 OleServer.TOleServer.GetAutoConnect_00562690
 0001:001616A8 OleServer.TOleServer.SetAutoConnect_005626A8
 0001:001616AC OleServer.TOleServer.QueryInterface_005626AC
 0001:001616D4 OleServer.TOleServer._AddRef_005626D4
 0001:001616E4 OleServer.TOleServer._Release_005626E4
 0001:001616F4 OleServer.Finalization_005626F4
 0001:00164468 _Unit71.TWebBrowser.InitControlData_00565468
 0001:00164484 _Unit71.DoCreate_00565484
 0001:00164508 _Unit71.TWebBrowser.CreateControl_00565508
 0001:00164528 _Unit71.TWebBrowser.GetControlInterface_00565528
 0001:00164548 _Unit71.TWebBrowser.GoBack_00565548
 0001:00164598 _Unit71.TWebBrowser.GoForward_00565598
 0001:001645E8 _Unit71.TWebBrowser.GoHome_005655E8
 0001:00164638 _Unit71.TWebBrowser.Navigate_00565638
 0001:001646A4 _Unit71.TWebBrowser.Stop_005656A4
 0001:001649BC _Unit71.sub_005659BC_005659BC
 0001:00164A30 _Unit71.TfrmWebBrowser.FormCreate_00565A30
 0001:00164A90 _Unit71.TfrmWebBrowser.WebBrowserNewWindow2_00565A90
 0001:00164B34 _Unit71.TfrmWebBrowser.WebBrowserWindowClosing_00565B34
 0001:00164B5C _Unit71.TfrmWebBrowser.sbtnWebBrowserCloseClick_00565B5C
 0001:00164BA4 _Unit71.TfrmWebBrowser.SpeedButton1Click_00565BA4
 0001:00164BC4 _Unit71.TfrmWebBrowser.SpeedButton2Click_00565BC4
 0001:001650CC _Unit71.TEnhancedWebBrowserUI.Create_005660CC
 0001:00165120 _Unit71.TWebBrowserWithUI.Create_00566120
 0001:0016517C _Unit71.TWebBrowserWithUI.Destroy_0056617C
 0001:001651BC _Unit71.sub_005661BC_005661BC
 0001:001651D0 _Unit71.sub_005661D0_005661D0
 0001:001651F0 _Unit71.sub_005661F0_005661F0
 0001:00165210 _Unit71.sub_00566210_00566210
 0001:0016522C _Unit71.sub_0056622C_0056622C
 0001:00165294 _Unit71.sub_00566294_00566294
 0001:001652A8 _Unit71.sub_005662A8_005662A8
 0001:001652BC _Unit71.sub_005662BC_005662BC
 0001:001652D0 _Unit71.sub_005662D0_005662D0
 0001:001652E4 _Unit71.sub_005662E4_005662E4
 0001:001652F8 _Unit71.sub_005662F8_005662F8
 0001:00165324 _Unit71.sub_00566324_00566324
 0001:00165338 _Unit71.sub_00566338_00566338
 0001:0016534C _Unit71.sub_0056634C_0056634C
 0001:00165360 _Unit71.sub_00566360_00566360
 0001:00165374 _Unit71.TWebBrowserWithUI.WMKillFocus_00566374
 0001:00165384 _Unit71.TWebBrowserWithUI.WMSetFocus_00566384
 0001:00165624 _Unit71.TFrmWeb.FormHide_00566624
 0001:00165650 _Unit71.sub_00566650_00566650
 0001:0016576C _Unit71.TFrmWeb.wbDocumentComplete_0056676C
 0001:00165818 _Unit71.TFrmWeb.wbDownloadBegin_00566818
 0001:00165840 _Unit71.TFrmWeb.wbNavigateComplete2_00566840
 0001:0016586C _Unit71.TFrmWeb.wbNewWindow2_0056686C
 0001:0016593C _Unit71.TFrmWeb.wbProgressChange_0056693C
 0001:00165A38 _Unit71.TFrmWeb.wbTitleChange_00566A38
 0001:00165A5C _Unit71.Finalization_00566A5C
 0001:00165B60 _Unit72.TDrawScreen.Create_00566B60
 0001:00165C90 _Unit72.sub_00566C90_00566C90
 0001:00165C9C _Unit72.sub_00566C9C_00566C9C
 0001:00165D50 _Unit72.sub_00566D50_00566D50
 0001:00165FBC _Unit72.sub_00566FBC_00566FBC
 0001:00166034 _Unit72.sub_00567034_00567034
 0001:001662E0 _Unit72.sub_005672E0_005672E0
 0001:0016666C _Unit72.sub_0056766C_0056766C
 0001:00166690 _Unit72.sub_00567690_00567690
 0001:00166718 _Unit72.sub_00567718_00567718
 0001:00166BC0 _Unit72.sub_00567BC0_00567BC0
 0001:001682A0 _Unit72.sub_005692A0_005692A0
 0001:001682E0 _Unit72.sub_005692E0_005692E0
 0001:001682EC _Unit72.sub_005692EC_005692EC
 0001:001682F8 _Unit72.sub_005692F8_005692F8
 0001:00168304 _Unit72.sub_00569304_00569304
 0001:00168310 _Unit72.sub_00569310_00569310
 0001:0016831C _Unit72.sub_0056931C_0056931C
 0001:0016832C _Unit72.sub_0056932C_0056932C
 0001:00168340 _Unit72.sub_00569340_00569340
 0001:00168358 _Unit72.sub_00569358_00569358
 0001:00168370 _Unit72.sub_00569370_00569370
 0001:00168384 _Unit72.sub_00569384_00569384
 0001:00168394 _Unit72.TIntroScene.Create_00569394
 0001:001683D8 _Unit72.TIntroScene.Destroy_005693D8
 0001:0016840C _Unit72.sub_0056940C_0056940C
 0001:00168418 _Unit72.sub_00569418_00569418
 0001:00168424 _Unit72.sub_00569424_00569424
 0001:00168434 _Unit72.sub_00569434_00569434
 0001:001684A8 _Unit72.sub_005694A8_005694A8
 0001:0016852C _Unit72.sub_0056952C_0056952C
 0001:001685A0 _Unit72.sub_005695A0_005695A0
 0001:00168624 _Unit72.TLoginScene.Create_00569624
 0001:00169608 _Unit72.TLoginScene.Destroy_0056A608
 0001:0016963C _Unit72.sub_0056A63C_0056A63C
 0001:00169718 _Unit72.sub_0056A718_0056A718
 0001:00169740 _Unit72.sub_0056A740_0056A740
 0001:00169810 _Unit72.sub_0056A810_0056A810
 0001:001699A0 _Unit72.sub_0056A9A0_0056A9A0
 0001:001699E4 _Unit72.sub_0056A9E4_0056A9E4
 0001:00169AAC _Unit72.sub_0056AAAC_0056AAAC
 0001:0016A0D4 _Unit72.sub_0056B0D4_0056B0D4
 0001:0016ACF8 _Unit72.sub_0056BCF8_0056BCF8
 0001:0016AD0C _Unit72.sub_0056BD0C_0056BD0C
 0001:0016AD3C _Unit72.sub_0056BD3C_0056BD3C
 0001:0016AF14 _Unit72.sub_0056BF14_0056BF14
 0001:0016B1E4 _Unit72.sub_0056C1E4_0056C1E4
 0001:0016B214 _Unit72.sub_0056C214_0056C214
 0001:0016B3E0 _Unit72.sub_0056C3E0_0056C3E0
 0001:0016B488 _Unit72.sub_0056C488_0056C488
 0001:0016B4AC _Unit72.sub_0056C4AC_0056C4AC
 0001:0016B4C0 _Unit72.sub_0056C4C0_0056C4C0
 0001:0016B7E4 _Unit72.sub_0056C7E4_0056C7E4
 0001:0016BC20 _Unit72.sub_0056CC20_0056CC20
 0001:0016BC40 _Unit72.sub_0056CC40_0056CC40
 0001:0016BD50 _Unit72.sub_0056CD50_0056CD50
 0001:0016BD64 _Unit72.TSelectChrScene.Create_0056CD64
 0001:0016BE28 _Unit72.TSelectChrScene.Destroy_0056CE28
 0001:0016BE5C _Unit72.sub_0056CE5C_0056CE5C
 0001:0016BE98 _Unit72.sub_0056CE98_0056CE98
 0001:0016BF28 _Unit72.sub_0056CF28_0056CF28
 0001:0016C014 _Unit72.sub_0056D014_0056D014
 0001:0016C10C _Unit72.sub_0056D10C_0056D10C
 0001:0016C364 _Unit72.sub_0056D364_0056D364
 0001:0016C3F8 _Unit72.sub_0056D3F8_0056D3F8
 0001:0016C5B0 _Unit72.sub_0056D5B0_0056D5B0
 0001:0016C804 _Unit72.sub_0056D804_0056D804
 0001:0016C81C _Unit72.sub_0056D81C_0056D81C
 0001:0016C86C _Unit72.sub_0056D86C_0056D86C
 0001:0016CA08 _Unit72.sub_0056DA08_0056DA08
 0001:0016CB48 _Unit72.sub_0056DB48_0056DB48
 0001:0016CBDC _Unit72.sub_0056DBDC_0056DBDC
 0001:0016CC70 _Unit72.sub_0056DC70_0056DC70
 0001:0016CCC4 _Unit72.sub_0056DCC4_0056DCC4
 0001:0016CDD4 _Unit72.sub_0056DDD4_0056DDD4
 0001:0016CE20 _Unit72.sub_0056DE20_0056DE20
 0001:0016CE64 _Unit72.sub_0056DE64_0056DE64
 0001:0016D918 _Unit72.TLoginNotice.Create_0056E918
 0001:0016D95C _Unit72.TLoginNotice.Destroy_0056E95C
 0001:0016E01C _Unit72.TKillingHerb.sub_0056F01C_0056F01C
 0001:0016E094 _Unit72.TKillingHerb.sub_0056F094_0056F094
 0001:0016E4DC _Unit72.TKillingHerb.sub_0056F4DC_0056F4DC
 0001:0016E5B8 _Unit72.TMineMon.sub_0056F01C_0056F5B8
 0001:0016E630 _Unit72.TMineMon.sub_0056F094_0056F630
 0001:0016E9D0 _Unit72.TMineMon.sub_0056F4DC_0056F9D0
 0001:0016E9F4 _Unit72.TMineMon.sub_0056F9F4_0056F9F4
 0001:0016EA90 _Unit72.TBeeQueen.sub_0056FA90_0056FA90
 0001:0016ED14 _Unit72.TBeeQueen.sub_0056FD14_0056FD14
 0001:0016EDB8 _Unit72.TCentipedeKingMon.sub_0056F094_0056FDB8
 0001:0016EF9C _Unit72.TCentipedeKingMon.sub_0056FF9C_0056FF9C
 0001:0016EFB8 _Unit72.sub_0056FFB8_0056FFB8
 0001:0016F058 _Unit72.TCentipedeKingMon.sub_00570058_00570058
 0001:0016F0C8 _Unit72.TCentipedeKingMon.sub_005700C8_005700C8
 0001:0016F1D0 _Unit72.TBigHeartMon.sub_0056F094_005701D0
 0001:0016F1EC _Unit72.TSpiderHouseMon.sub_0056F094_005701EC
 0001:0016F208 _Unit72.TCastleDoor.sub_00570208_00570208
 0001:0016F268 _Unit72.sub_00570268_00570268
 0001:0016F468 _Unit72.TCastleDoor.sub_00570468_00570468
 0001:0016F4D0 _Unit72.TCastleDoor.sub_005704D0_005704D0
 0001:0016F884 _Unit72.TCastleDoor.sub_00570884_00570884
 0001:0016F950 _Unit72.TCastleDoor.sub_00570950_00570950
 0001:0016F97C _Unit72.TCastleDoor.sub_0057097C_0057097C
 0001:0016FA24 _Unit72.TCastleDoor.sub_00570A24_00570A24
 0001:0016FAB4 _Unit72.TWallStructure.sub_00570AB4_00570AB4
 0001:0016FB1C _Unit72.TWallStructure.sub_00570B1C_00570B1C
 0001:0016FD70 _Unit72.TWallStructure.sub_00570D70_00570D70
 0001:0016FEAC _Unit72.TWallStructure.sub_00570EAC_00570EAC
 0001:0016FF04 _Unit72.TWallStructure.sub_00570F04_00570F04
 0001:0016FFF8 _Unit72.TWallStructure.sub_00570FF8_00570FF8
 0001:0017008C _Unit72.TDragonBody.sub_0057108C_0057108C
 0001:001700DC _Unit72.TDragonBody.sub_0056F094_005710DC
 0001:001701B8 _Unit72.TDragonBody.sub_005711B8_005711B8
 0001:00170384 _Unit72.TClEvent.Create_00571384
 0001:00170444 _Unit72.TClEvent.sub_00571444_00571444
 0001:001704CC _Unit72.TClEvent.sub_005714CC_005714CC
 0001:00170A94 _Unit72.TClEventManager.Create_00571A94
 0001:00170B50 _Unit72.sub_00571B50_00571B50
 0001:00170B9C _Unit72.sub_00571B9C_00571B9C
 0001:00170C20 _Unit72.sub_00571C20_00571C20
 0001:00170C8C _Unit72.sub_00571C8C_00571C8C
 0001:00170D20 _Unit72.sub_00571D20_00571D20
 0001:0017236C _Unit72.TSkeletonOma.sub_0057336C_0057336C
 0001:001723C4 _Unit72.TSkeletonOma.sub_005733C4_005733C4
 0001:00172D38 _Unit72.TSkeletonOma.sub_00573D38_00573D38
 0001:001730A0 _Unit72.TSkeletonOma.sub_005740A0_005740A0
 0001:00173198 _Unit72.TSkeletonOma.sub_00574198_00574198
 0001:00173464 _Unit72.TSkeletonOma.sub_00574464_00574464
 0001:00173584 _Unit72.TDualAxeOma.sub_00574198_00574584
 0001:001738B0 _Unit72.TWarriorElfMonster.sub_005748B0_005748B0
 0001:00173954 _Unit72.TCatMon.sub_00574464_00574954
 0001:00173A5C _Unit72.TArcherMon.sub_00574198_00574A5C
 0001:00173D2C _Unit72.TZombiDigOut.sub_00574D2C_00574D2C
 0001:00173D94 _Unit72.THuSuABi.sub_005740A0_00574D94
 0001:00173DFC _Unit72.TGasKuDeGi.sub_00574DFC_00574DFC
 0001:00173E68 _Unit72.TGasKuDeGi.sub_00574E68_00574E68
 0001:00174428 _Unit72.TGasKuDeGi.sub_00575428_00575428
 0001:00174534 _Unit72.TGasKuDeGi.sub_00575534_00575534
 0001:00174A6C _Unit72.TGasKuDeGi.sub_00575A6C_00575A6C
 0001:00174D40 _Unit72.TGasKuDeGi.sub_00575D40_00575D40
 0001:00174E98 _Unit72.TGasKuDeGi.sub_00575E98_00575E98
 0001:00174F6C _Unit72.TExplosionSpider.sub_00574E68_00575F6C
 0001:00175004 _Unit72.TExplosionSpider.sub_00575534_00576004
 0001:00175064 _Unit72.TFlyingSpider.sub_005733C4_00576064
 0001:001750E8 _Unit72.TFireCowFaceMon.sub_005760E8_005760E8
 0001:00175124 _Unit72.TCowFaceKing.sub_00576124_00576124
 0001:00175160 _Unit72.TSculptureMon.sub_005733C4_00576160
 0001:0017571C _Unit72.TSculptureMon.sub_005740A0_0057671C
 0001:00175794 _Unit72.TSculptureMon.sub_00573D38_00576794
 0001:001759E0 _Unit72.TSculptureMon.sub_005769E0_005769E0
 0001:00175A50 _Unit72.TSculptureMon.sub_00574198_00576A50
 0001:00175AF0 _Unit72.TElectronicScolpionMon.sub_00574E68_00576AF0
 0001:00175CE8 _Unit72.TElectronicScolpionMon.sub_00575534_00576CE8
 0001:00175D70 _Unit72.TBossPigMon.sub_00575534_00576D70
 0001:00175DE8 _Unit72.TKingOfSculpureKingMon.sub_00574E68_00576DE8
 0001:00176128 _Unit72.TKingOfSculpureKingMon.sub_00575534_00577128
 0001:0017625C _Unit72.TSkeletonKingMon.sub_00574E68_0057725C
 0001:00176900 _Unit72.TSkeletonKingMon.sub_00575534_00577900
 0001:00176B68 _Unit72.TSkeletonKingMon.sub_00575A6C_00577B68
 0001:00176EDC _Unit72.TSkeletonArcherMon.sub_005740A0_00577EDC
 0001:00176F3C _Unit72.TSkeletonArcherMon.sub_005733C4_00577F3C
 0001:00176F8C _Unit72.TSkeletonArcherMon.sub_00577F8C_00577F8C
 0001:00177018 _Unit72.TSkeletonArcherMon.sub_00574198_00578018
 0001:001770B8 _Unit72.TBanyaGuardMon.sub_0057336C_005780B8
 0001:00177104 _Unit72.TBanyaGuardMon.sub_005740A0_00578104
 0001:001778AC _Unit72.TBanyaGuardMon.sub_005733C4_005788AC
 0001:00178014 _Unit72.TBanyaGuardMon.sub_00574198_00579014
 0001:001788FC _Unit72.TBanyaGuardMon.sub_00577F8C_005798FC
 0001:00178988 _Unit72.TStoneMonster.sub_0057336C_00579988
 0001:001789E8 _Unit72.TStoneMonster.sub_005740A0_005799E8
 0001:00178C00 _Unit72.TStoneMonster.sub_005733C4_00579C00
 0001:00178F98 _Unit72.TStoneMonster.sub_00574198_00579F98
 0001:001792A8 _Unit72.TStoneMonster.sub_00577F8C_0057A2A8
 0001:00179334 _Unit72.TPBOMA1Mon.sub_00574198_0057A334
 0001:00179610 _Unit72.TPBOMA6Mon.sub_00574198_0057A610
 0001:001798E0 _Unit72.TAngel.sub_005740A0_0057A8E0
 0001:00179A18 _Unit72.TAngel.sub_00574464_0057AA18
 0001:00179B30 _Unit72.TFireDragon.sub_0057336C_0057AB30
 0001:00179C50 _Unit72.TFireDragon.sub_005740A0_0057AC50
 0001:0017A2C8 _Unit72.TFireDragon.sub_005733C4_0057B2C8
 0001:0017AE1C _Unit72.TFireDragon.sub_00574198_0057BE1C
 0001:0017C178 _Unit72.TFireDragon.sub_00577F8C_0057D178
 0001:0017C214 _Unit72.TDragonStatue.sub_0057336C_0057D214
 0001:0017C260 _Unit72.TDragonStatue.sub_005740A0_0057D260
 0001:0017C340 _Unit72.TDragonStatue.sub_005733C4_0057D340
 0001:0017C468 _Unit72.TDragonStatue.sub_00574198_0057D468
 0001:0017C77C _Unit72.TDragonStatue.sub_00577F8C_0057D77C
 0001:0017C808 _Unit72.TJumaThunderMon.sub_0057336C_0057D808
 0001:0017C860 _Unit72.TJumaThunderMon.sub_005740A0_0057D860
 0001:0017C8B8 _Unit72.TJumaThunderMon.sub_005769E0_0057D8B8
 0001:0017C930 _Unit72.TJumaThunderMon.sub_005733C4_0057D930
 0001:0017D250 _Unit72.TPlayScene.Create_0057E250
 0001:0017D3A8 _Unit72.TPlayScene.Destroy_0057E3A8
 0001:0017D55C _Unit72.sub_0057E55C_0057E55C
 0001:0017D6B0 _Unit72.sub_0057E6B0_0057E6B0
 0001:0017D710 _Unit72.sub_0057E710_0057E710
 0001:0017D750 _Unit72.sub_0057E750_0057E750
 0001:0017D784 _Unit72.sub_0057E784_0057E784
 0001:0017D94C _Unit72.sub_0057E94C_0057E94C
 0001:0017DDD0 _Unit72.sub_0057EDD0_0057EDD0
 0001:0017DE28 _Unit72.sub_0057EE28_0057EE28
 0001:0017DF68 _Unit72.sub_0057EF68_0057EF68
 0001:0017E118 _Unit72.sub_0057F118_0057F118
 0001:0017E6C8 _Unit72.sub_0057F6C8_0057F6C8
 0001:001800DC _Unit72.sub_005810DC_005810DC
 0001:00180884 _Unit72.sub_00581884_00581884
 0001:00180DD0 _Unit72.sub_00581DD0_00581DD0
 0001:0018122C _Unit72.sub_0058222C_0058222C
 0001:0018130C _Unit72.sub_0058230C_0058230C
 0001:001859FC _Unit72.sub_005869FC_005869FC
 0001:00186D80 _Unit72.sub_00587D80_00587D80
 0001:00186EDC _Unit72.sub_00587EDC_00587EDC
 0001:00186F68 _Unit72.sub_00587F68_00587F68
 0001:00187010 _Unit72.sub_00588010_00588010
 0001:001871AC _Unit72.sub_005881AC_005881AC
 0001:001873F4 _Unit72.sub_005883F4_005883F4
 0001:0018750C _Unit72.sub_0058850C_0058850C
 0001:001876D8 _Unit72.sub_005886D8_005886D8
 0001:001877C4 _Unit72.sub_005887C4_005887C4
 0001:001881D4 _Unit72.sub_005891D4_005891D4
 0001:0018827C _Unit72.sub_0058927C_0058927C
 0001:001882C0 _Unit72.sub_005892C0_005892C0
 0001:00188304 _Unit72.sub_00589304_00589304
 0001:00188398 _Unit72.sub_00589398_00589398
 0001:0018842C _Unit72.sub_0058942C_0058942C
 0001:00188498 _Unit72.sub_00589498_00589498
 0001:00188540 _Unit72.sub_00589540_00589540
 0001:00188598 _Unit72.sub_00589598_00589598
 0001:00188FE8 _Unit72.sub_00589FE8_00589FE8
 0001:001890B8 _Unit72.sub_0058A0B8_0058A0B8
 0001:00189134 _Unit72.sub_0058A134_0058A134
 0001:001891F8 _Unit72.sub_0058A1F8_0058A1F8
 0001:0018930C _Unit72.sub_0058A30C_0058A30C
 0001:001893A8 _Unit72.sub_0058A3A8_0058A3A8
 0001:0018943C _Unit72.sub_0058A43C_0058A43C
 0001:00189A18 _Unit72.Finalization_0058AA18
 0001:0018EE34 FState.sub_0058FE34_0058FE34
 0001:0018EE50 FState.sub_0058FE50_0058FE50
 0001:0018EE7C FState.sub_0058FE7C_0058FE7C
 0001:0018EEC8 FState.sub_0058FEC8_0058FEC8
 0001:0018EFC8 FState.sub_0058FFC8_0058FFC8
 0001:0018F078 FState.TFrmDlg.FormCreate_00590078
 0001:0018F788 FState.TFrmDlg.FormDestroy_00590788
 0001:0018F8E0 FState.sub_005908E0_005908E0
 0001:0018F978 FState.sub_00590978_00590978
 0001:00198494 FState.sub_00599494_00599494
 0001:0019854C FState.sub_0059954C_0059954C
 0001:001985C4 FState.sub_005995C4_005995C4
 0001:001986B0 FState.sub_005996B0_005996B0
 0001:00198734 FState.sub_00599734_00599734
 0001:001988CC FState.sub_005998CC_005998CC
 0001:00198C44 FState.sub_00599C44_00599C44
 0001:00198CA0 FState.TFrmDlg.DBackgroundBackgroundClick_00599CA0
 0001:00198E28 FState.TFrmDlg.DBackgroundMouseDown_00599E28
 0001:00198E58 FState.sub_00599E58_00599E58
 0001:00198F5C FState.sub_00599F5C_00599F5C
 0001:00198FC0 FState.sub_00599FC0_00599FC0
 0001:00199058 FState.TFrmDlg.DBottomMouse_0059A058
 0001:001993D0 FState.sub_0059A3D0_0059A3D0
 0001:0019975C FState.sub_0059A75C_0059A75C
 0001:00199F58 FState.sub_0059AF58_0059AF58
 0001:0019A340 FState.TFrmDlg.DMsgDlgOkClick_0059B340
 0001:0019A418 FState.TFrmDlg.DMsgDlgKeyDown_0059B418
 0001:0019A560 FState.TFrmDlg.DMsgDlgOkDirectPaint_0059B560
 0001:0019A60C FState.TFrmDlg.DMsgSimpleDlgDirectPaint_0059B60C
 0001:0019A8E0 FState.TFrmDlg.DMsgSimpleDlgKeyDown_0059B8E0
 0001:0019A974 FState.TFrmDlg.DMsgSimpleDlgOkClick_0059B974
 0001:0019A9DC FState.TFrmDlg.DMsgDlgDirectPaint_0059B9DC
 0001:0019AD08 FState.TFrmDlg.DLoginNewDirectPaint_0059BD08
 0001:0019AD98 FState.TFrmDlg.DLoginNewClick_0059BD98
 0001:0019ADF4 FState.TFrmDlg.DLoginOkClick_0059BDF4
 0001:0019AE18 FState.TFrmDlg.DLoginCloseClick_0059BE18
 0001:0019AE3C FState.TFrmDlg.DLBPracticeClick_0059BE3C
 0001:0019AE68 FState.TFrmDlg.DListBox_ItemsChange_0059BE68
 0001:0019AE78 FState.TFrmDlg.DLoginChgPwClick_0059BE78
 0001:0019AED4 FState.TFrmDlg.DLoginNewClickSound_0059BED4
 0001:0019AF18 FState.sub_0059BF18_0059BF18
 0001:0019AF3C FState.TFrmDlg.DSelServerDlgDirectPaint_0059BF3C
 0001:0019B0DC FState.TFrmDlg.DSServer1Click_0059C0DC
 0001:0019B248 FState.TFrmDlg.DEngServer1Click_0059C248
 0001:0019B2F8 FState.TFrmDlg.DSSrvCloseClick_0059C2F8
 0001:0019B32C FState.TFrmDlg.DNewAccountOkClick_0059C32C
 0001:0019B350 FState.TFrmDlg.DNewAccountCloseClick_0059C350
 0001:0019B374 FState.TFrmDlg.DNewAccountDirectPaint_0059C374
 0001:0019B510 FState.TFrmDlg.DChgpwOkClick_0059C510
 0001:0019B55C FState.TFrmDlg.DscSelect1DirectPaint_0059C55C
 0001:0019B5D8 FState.TFrmDlg.DscSelect1Click_0059C5D8
 0001:0019B6A4 FState.TFrmDlg.DccCloseDirectPaint_0059C6A4
 0001:0019B8BC FState.TFrmDlg.DccCloseClick_0059C8BC
 0001:0019B9BC FState.TFrmDlg.DStateWinDirectPaint_0059C9BC
 0001:0019D740 FState.TFrmDlg.DStateWinMouseMove_0059E740
 0001:0019D77C FState.TFrmDlg.DSWLightDirectPaint_0059E77C
 0001:0019E15C FState.TFrmDlg.DStateWinClick_0059F15C
 0001:0019E234 FState.TFrmDlg.DCloseStateClick_0059F234
 0001:0019E25C FState.TFrmDlg.DPrevStateDirectPaint_0059F25C
 0001:0019E2EC FState.sub_0059F2EC_0059F2EC
 0001:0019E698 FState.TFrmDlg.DPrevStateClick_0059F698
 0001:0019E6D8 FState.TFrmDlg.DNextStateClick_0059F6D8
 0001:0019E718 FState.TFrmDlg.DSWWeaponClick_0059F718
 0001:0019EE98 FState.TFrmDlg.DSWWeaponMouseMove_0059FE98
 0001:0019F63C FState.TFrmDlg.DWGameConfigClick_005A063C
 0001:0019F654 FState.TFrmDlg.DStMag1DirectPaint_005A0654
 0001:0019F798 FState.TFrmDlg.DStMag1MouseMove_005A0798
 0001:0019F8DC FState.TFrmDlg.DStMag1Click_005A08DC
 0001:0019FA44 FState.TFrmDlg.DStPageUpClick_005A0A44
 0001:0019FAAC FState.sub_005A0AAC_005A0AAC
 0001:0019FBBC FState.TFrmDlg.DBottomDirectPaint_005A0BBC
 0001:001A10C0 FState.TFrmDlg.DBottomInRealArea_005A20C0
 0001:001A119C FState.TFrmDlg.DMyStateDirectPaint_005A219C
 0001:001A126C FState.TFrmDlg.DMyStateMouseMove_005A226C
 0001:001A177C FState.TFrmDlg.DBotMemoDirectPaint_005A277C
 0001:001A1898 FState.TFrmDlg.DBotGroupDirectPaint_005A2898
 0001:001A1A04 FState.TFrmDlg.DBotGroupMouseDown_005A2A04
 0001:001A1AE4 FState.TFrmDlg.DBotPlusAbilDirectPaint_005A2AE4
 0001:001A1CDC FState.TFrmDlg.DBotQuestionsClick_005A2CDC
 0001:001A1D98 FState.TFrmDlg.DBotQuestionsDirectPaint_005A2D98
 0001:001A1F24 FState.TFrmDlg.DBotShopClick_005A2F24
 0001:001A1FA4 FState.TFrmDlg.DMyStateClick_005A2FA4
 0001:001A2074 FState.sub_005A3074_005A3074
 0001:001A20D4 FState.TFrmDlg.DOptionClick_005A30D4
 0001:001A2E2C FState.TFrmDlg.DBelt1DirectPaint_005A3E2C
 0001:001A305C FState.TFrmDlg.DBelt1MouseMove_005A405C
 0001:001A3300 FState.sub_005A4300_005A4300
 0001:001A33AC FState.TFrmDlg.DBGCActivePage1Click_005A43AC
 0001:001A3B78 FState.TFrmDlg.DBGCActivePage1DirectPaint_005A4B78
 0001:001A3F00 FState.TFrmDlg.DBGCCloseClick_005A4F00
 0001:001A3F28 FState.TFrmDlg.DBGCCloseDirectPaint_005A4F28
 0001:001A4004 FState.TFrmDlg.DBIDownMouseDown_005A5004
 0001:001A40B0 FState.TFrmDlg.DBIDownMouseUp_005A50B0
 0001:001A40E0 FState.TFrmDlg.DBIUPDirectPaint_005A50E0
 0001:001A41C8 FState.TFrmDlg.DBIUPMouseDown_005A51C8
 0001:001A4268 FState.TFrmDlg.DBIUPMouseUp_005A5268
 0001:001A4298 FState.TFrmDlg.DBelt1Click_005A5298
 0001:001A4508 FState.TFrmDlg.DBelt1DblClick_005A5508
 0001:001A469C FState.sub_005A569C_005A569C
 0001:001A4770 FState.sub_005A5770_005A5770
 0001:001A4844 FState.sub_005A5844_005A5844
 0001:001A9B3C FState.TFrmDlg.DItemBagDirectPaint_005AAB3C
 0001:001AA33C FState.TFrmDlg.DItemBagMouseMove_005AB33C
 0001:001AA378 FState.TFrmDlg.DRepairItemInRealArea_005AB378
 0001:001AA390 FState.TFrmDlg.DRepairItemDirectPaint_005AB390
 0001:001AA6D4 FState.TFrmDlg.DCloseBagDirectPaint_005AB6D4
 0001:001AA798 FState.TFrmDlg.DCloseBagClick_005AB798
 0001:001AA7C0 FState.sub_005AB7C0_005AB7C0
 0001:001AA864 FState.TFrmDlg.DItemGridGridMouseMove_005AB864
 0001:001AAB7C FState.TFrmDlg.DItemGridGridSelect_005ABB7C
 0001:001AB550 FState.TFrmDlg.DItemGridDblClick_005AC550
 0001:001AB8C4 FState.sub_005AC8C4_005AC8C4
 0001:001AB904 FState.TFrmDlg.DItemGridGridPaint_005AC904
 0001:001ABE34 FState.TFrmDlg.DGoldClick_005ACE34
 0001:001ABEDC FState.sub_005ACEDC_005ACEDC
 0001:001AC048 FState.TFrmDlg.RefuseCRYClick_005AD048
 0001:001AC160 FState.TFrmDlg.RefuseguildClick_005AD160
 0001:001AC278 FState.TFrmDlg.RefusePublicChatClick_005AD278
 0001:001AC320 FState.TFrmDlg.RefusePublicChatDirectPaint_005AD320
 0001:001AC478 FState.TFrmDlg.RefusePublicChatMouseMove_005AD478
 0001:001AC668 FState.TFrmDlg.RefuseWHISPERClick_005AD668
 0001:001ACDF4 FState.sub_005ADDF4_005ADDF4
 0001:001ACFBC FState.sub_005ADFBC_005ADFBC
 0001:001AD0F4 FState.sub_005AE0F4_005AE0F4
 0001:001AD38C FState.sub_005AE38C_005AE38C
 0001:001AD424 FState.sub_005AE424_005AE424
 0001:001AD4E0 FState.sub_005AE4E0_005AE4E0
 0001:001AD584 FState.sub_005AE584_005AE584
 0001:001AD778 FState.sub_005AE778_005AE778
 0001:001AD798 FState.sub_005AE798_005AE798
 0001:001AD87C FState.sub_005AE87C_005AE87C
 0001:001AD968 FState.sub_005AE968_005AE968
 0001:001ADA08 FState.sub_005AEA08_005AEA08
 0001:001ADA44 FState.TFrmDlg.DMerchantDlgDirectPaint_005AEA44
 0001:001AF44C FState.TFrmDlg.DMerchantDlgCloseClick_005B044C
 0001:001AF46C FState.sub_005B046C_005B046C
 0001:001AF4A4 FState.sub_005B04A4_005B04A4
 0001:001AF4DC FState.TFrmDlg.DMenuDlgDirectPaint_005B04DC
 0001:001AFC30 FState.TFrmDlg.DMenuDlgInRealArea_005B0C30
 0001:001AFC80 FState.TFrmDlg.DMenuDlgClick_005B0C80
 0001:001B0098 FState.TFrmDlg.DMenuDlgMouseMove_005B1098
 0001:001B012C FState.TFrmDlg.DMenuBuyClick_005B112C
 0001:001B05A0 FState.TFrmDlg.DMenuPrevClick_005B15A0
 0001:001B0644 FState.TFrmDlg.DMenuNextClick_005B1644
 0001:001B06BC FState.sub_005B16BC_005B16BC
 0001:001B078C FState.sub_005B178C_005B178C
 0001:001B0890 FState.TFrmDlg.DMenuCloseClick_005B1890
 0001:001B08B8 FState.TFrmDlg.DMerchantDlgClick_005B18B8
 0001:001B0A34 FState.TFrmDlg.DMerchantDlgMouseDown_005B1A34
 0001:001B0B40 FState.TFrmDlg.DMerchantDlgMouseUp_005B1B40
 0001:001B0B64 FState.TFrmDlg.DSellDlgDirectPaint_005B1B64
 0001:001B0D58 FState.TFrmDlg.DSellDlgCloseClick_005B1D58
 0001:001B0D78 FState.TFrmDlg.DSellDlgSpotClick_005B1D78
 0001:001B11A8 FState.TFrmDlg.DSellDlgSpotDirectPaint_005B21A8
 0001:001B1350 FState.TFrmDlg.DSellDlgSpotMouseMove_005B2350
 0001:001B1380 FState.TFrmDlg.DSellDlgOkClick_005B2380
 0001:001B1770 FState.sub_005B2770_005B2770
 0001:001B18A8 FState.TFrmDlg.DKeySelDlgDirectPaint_005B28A8
 0001:001B19F8 FState.TFrmDlg.DKsIconDirectPaint_005B29F8
 0001:001B1AA4 FState.TFrmDlg.DKsF1DirectPaint_005B2AA4
 0001:001B1D94 FState.TFrmDlg.DKsOkClick_005B2D94
 0001:001B1DBC FState.TFrmDlg.DKsF1Click_005B2DBC
 0001:001B1F9C FState.TFrmDlg.DBotMiniMapClick_005B2F9C
 0001:001B2064 FState.TFrmDlg.DBotTradeClick_005B3064
 0001:001B20A8 FState.TFrmDlg.DBotWhisperClick_005B30A8
 0001:001B20F0 FState.sub_005B30F0_005B30F0
 0001:001B2138 FState.TFrmDlg.DBStoreBuyClick_005B3138
 0001:001B23B4 FState.TFrmDlg.DBStoreBuyDirectPaint_005B33B4
 0001:001B2864 FState.TFrmDlg.DBStoreCancelClick_005B3864
 0001:001B28FC FState.TFrmDlg.DBStoreCancelDirectPaint_005B38FC
 0001:001B2CAC FState.TFrmDlg.DBStoreCloseClick_005B3CAC
 0001:001B2CD4 FState.TFrmDlg.DBStoreItemPriceCancelClick_005B3CD4
 0001:001B2D20 FState.TFrmDlg.DBStoreItemPriceOkClick_005B3D20
 0001:001B2FE8 FState.sub_005B3FE8_005B3FE8
 0001:001B3020 FState.TFrmDlg.DBStorePage1Click_005B4020
 0001:001B30A4 FState.TFrmDlg.DBStorePage1DirectPaint_005B40A4
 0001:001B32D0 FState.TFrmDlg.DBStorePriceCloseClick_005B42D0
 0001:001B331C FState.TFrmDlg.DBUserStallBuyClick_005B431C
 0001:001B37E0 FState.TFrmDlg.DBUserStallBuyDirectPaint_005B47E0
 0001:001B3B90 FState.TFrmDlg.DBotGuildClick_005B4B90
 0001:001B3BF8 FState.TFrmDlg.DBotHelpClick_005B4BF8
 0001:001B3C4C FState.TFrmDlg.DBotHostpotClick_005B4C4C
 0001:001B3CF0 FState.TFrmDlg.DBotHostpotDirectPaint_005B4CF0
 0001:001B3E7C FState.TFrmDlg.DBotGroupClick_005B4E7C
 0001:001B3E94 FState.sub_005B4E94_005B4E94
 0001:001B3EC0 FState.TFrmDlg.DGridSaveItemDblClick_005B4EC0
 0001:001B4224 FState.TFrmDlg.DGridSaveItemGridMouseMove_005B5224
 0001:001B450C FState.TFrmDlg.DGridSaveItemGridPaint_005B550C
 0001:001B4678 FState.TFrmDlg.DGridSaveItemGridSelect_005B5678
 0001:001B4B0C FState.TFrmDlg.DGridShop1GridPaint_005B5B0C
 0001:001B501C FState.TFrmDlg.DGridShop1GridSelect_005B601C
 0001:001B5170 FState.TFrmDlg.DGridShop2GridPaint_005B6170
 0001:001B5614 FState.TFrmDlg.DGridShop2GridSelect_005B6614
 0001:001B5740 FState.TFrmDlg.DGridStoreGridMouseMove_005B6740
 0001:001B5A24 FState.TFrmDlg.DGridStoreGridPaint_005B6A24
 0001:001B5C24 FState.TFrmDlg.DGridStoreGridSelect_005B6C24
 0001:001B5EC8 FState.TFrmDlg.DGroupDlgDirectPaint_005B6EC8
 0001:001B60C4 FState.TFrmDlg.DGrpDlgCloseClick_005B70C4
 0001:001B60EC FState.TFrmDlg.DGrpAllowGroupDirectPaint_005B70EC
 0001:001B61AC FState.TFrmDlg.DGrpAllowGroupClick_005B71AC
 0001:001B6208 FState.TFrmDlg.DGrpCreateClick_005B7208
 0001:001B6314 FState.TFrmDlg.DGrpAddMemClick_005B7314
 0001:001B6420 FState.TFrmDlg.DGrpDelMemClick_005B7420
 0001:001B6530 FState.TFrmDlg.DBotLogoutClick_005B7530
 0001:001B65F4 FState.TFrmDlg.DBotExitClick_005B75F4
 0001:001B66A4 FState.TFrmDlg.DBotPlusAbilClick_005B76A4
 0001:001B66C4 FState.sub_005B76C4_005B76C4
 0001:001B68A4 FState.sub_005B78A4_005B78A4
 0001:001B68F8 FState.TFrmDlg.DDealOkClick_005B78F8
 0001:001B698C FState.TFrmDlg.DDealCloseClick_005B798C
 0001:001B69C4 FState.TFrmDlg.DDealRemoteDlgDirectPaint_005B79C4
 0001:001B6B58 FState.TFrmDlg.DDealDlgDirectPaint_005B7B58
 0001:001B6D0C FState.sub_005B7D0C_005B7D0C
 0001:001B6D74 FState.TFrmDlg.DDGridGridSelect_005B7D74
 0001:001B7158 FState.TFrmDlg.DCountDlgKeyDown_005B8158
 0001:001B71EC FState.TFrmDlg.DDGridGridPaint_005B81EC
 0001:001B73B4 FState.TFrmDlg.DDGoldClick_005B83B4
 0001:001B7568 FState.TFrmDlg.DDGridGridMouseMove_005B8568
 0001:001B7824 FState.TFrmDlg.DDRGridGridPaint_005B8824
 0001:001B7B18 FState.TFrmDlg.DDRGridGridMouseMove_005B8B18
 0001:001B7DD4 FState.sub_005B8DD4_005B8DD4
 0001:001B7E14 FState.TFrmDlg.DUserState1DirectPaint_005B8E14
 0001:001B8B9C FState.TFrmDlg.DUserState1MouseDown_005B9B9C
 0001:001B8E3C FState.TFrmDlg.DUserState1MouseMove_005B9E3C
 0001:001B8FB0 FState.TFrmDlg.DWeaponUS1MouseMove_005B9FB0
 0001:001B9498 FState.TFrmDlg.DxEdit_Items_Search_OnTextChanged_005BA498
 0001:001B95C4 FState.TFrmDlg.DListBox_ItemsOnChangeSelect_005BA5C4
 0001:001B9770 FState.TFrmDlg.DListBox_keyChange_005BA770
 0001:001B9780 FState.TFrmDlg.DListBox_keyOnChangeSelect_005BA780
 0001:001B97C8 FState.TFrmDlg.DListBox_MonkeyChange_005BA7C8
 0001:001B97D8 FState.TFrmDlg.DListBox_MonkeyOnChangeSelect_005BA7D8
 0001:001B9820 FState.TFrmDlg.DWGameConfigDirectPaint_005BA820
 0001:001BA8E0 FState.TFrmDlg.DWGameConfigMouseMove_005BB8E0
 0001:001BA904 FState.TFrmDlg.DWGameConfigVisible_005BB904
 0001:001BAF18 FState.sub_005BBF18_005BBF18
 0001:001BAF7C FState.TFrmDlg.DWHeroStoreDirectPaint_005BBF7C
 0001:001BAFF4 FState.TFrmDlg.DWHeroStoreMouseMove_005BBFF4
 0001:001BB018 FState.TFrmDlg.DWhisperCloseClick_005BC018
 0001:001BB040 FState.sub_005BC040_005BC040
 0001:001BB2B0 FState.sub_005BC2B0_005BC2B0
 0001:001BB3B0 FState.sub_005BC3B0_005BC3B0
 0001:001BB46C FState.sub_005BC46C_005BC46C
 0001:001BB5D8 FState.sub_005BC5D8_005BC5D8
 0001:001BB734 FState.TFrmDlg.DWhisperDlgDirectPaint_005BC734
 0001:001BBAF8 FState.TFrmDlg.DWhisperDlgMouseDown_005BCAF8
 0001:001BBBB4 FState.TFrmDlg.DWhisperDlgMouseMove_005BCBB4
 0001:001BBC68 FState.sub_005BCC68_005BCC68
 0001:001BBD98 FState.sub_005BCD98_005BCD98
 0001:001BBE20 FState.TFrmDlg.DWhisperDlgMouseUp_005BCE20
 0001:001BC02C FState.TFrmDlg.DWhisperDownMouseDown_005BD02C
 0001:001BC090 FState.TFrmDlg.DWhisperUPMouseDown_005BD090
 0001:001BC0E8 FState.TFrmDlg.DWindowItemDirectPaint_005BD0E8
 0001:001BC6D8 FState.TFrmDlg.DWindowItemMouseUp_005BD6D8
 0001:001BC8F8 FState.TFrmDlg.DWindowSaveItemDirectPaint_005BD8F8
 0001:001BC9A8 FState.TFrmDlg.DWndWebCloseClick_005BD9A8
 0001:001BCA08 FState.TFrmDlg.DWndWebDirectPaint_005BDA08
 0001:001BCB34 FState.TFrmDlg.DWndWebInRealArea_005BDB34
 0001:001BCB50 FState.TFrmDlg.DWndWebVisible_005BDB50
 0001:001BCB88 FState.TFrmDlg.DWStoreItemPriceDirectPaint_005BDB88
 0001:001BCF80 FState.TFrmDlg.DWUserStallDirectPaint_005BDF80
 0001:001BD0CC FState.TFrmDlg.DxEditRanHPLeave_005BE0CC
 0001:001BD10C FState.TFrmDlg.DxEditRanHPTextChanged_005BE10C
 0001:001BD184 FState.TFrmDlg.DxEditRanHPTimeLeave_005BE184
 0001:001BD1C4 FState.TFrmDlg.DxEditRanHPTimeTextChanged_005BE1C4
 0001:001BD23C FState.TFrmDlg.DxEditSpecialHPLeave_005BE23C
 0001:001BD27C FState.TFrmDlg.DxEditSpecialHPTextChanged_005BE27C
 0001:001BD2F4 FState.TFrmDlg.DxEditSpecialHPTimeLeave_005BE2F4
 0001:001BD334 FState.TFrmDlg.DxEditSpecialHPTimeTextChanged_005BE334
 0001:001BD3AC FState.TFrmDlg.DxEdit_ItemsChange_005BE3AC
 0001:001BD404 FState.TFrmDlg.DCloseUS1Click_005BE404
 0001:001BD42C FState.TFrmDlg.DNecklaceUS1DirectPaint_005BE42C
 0001:001BE010 FState.sub_005BF010_005BF010
 0001:001BE184 FState.sub_005BF184_005BF184
 0001:001BE4EC FState.sub_005BF4EC_005BF4EC
 0001:001BE840 FState.TFrmDlg.DGuildDlgDirectPaint_005BF840
 0001:001BEA88 FState.TFrmDlg.DGDUpClick_005BFA88
 0001:001BEACC FState.TFrmDlg.DGDDownClick_005BFACC
 0001:001BEB0C FState.TFrmDlg.DGDCloseClick_005BFB0C
 0001:001BEB3C FState.TFrmDlg.DGDHomeClick_005BFB3C
 0001:001BEB88 FState.TFrmDlg.DGDListClick_005BFB88
 0001:001BEBD4 FState.TFrmDlg.DGDAddMemClick_005BFBD4
 0001:001BEC94 FState.TFrmDlg.DGDDelMemClick_005BFC94
 0001:001BED54 FState.TFrmDlg.DGDEditNoticeClick_005BFD54
 0001:001BEDA8 FState.TFrmDlg.DGDEditGradeClick_005BFDA8
 0001:001BEE34 FState.TFrmDlg.DGDAllyClick_005BFE34
 0001:001BEEF4 FState.TFrmDlg.DGDBreakAllyClick_005BFEF4
 0001:001BEFD4 FState.TFrmDlg.DGuildEditNoticeDirectPaint_005BFFD4
 0001:001BF0B0 FState.TFrmDlg.DGECloseClick_005C00B0
 0001:001BF0F8 FState.TFrmDlg.DGEOkClick_005C00F8
 0001:001BF130 FState.sub_005C0130_005C0130
 0001:001BF1DC FState.TFrmDlg.AutoCRYClick_005C01DC
 0001:001BF2CC FState.TFrmDlg.DGDChatClick_005C02CC
 0001:001BF348 FState.TFrmDlg.DGoldDirectPaint_005C0348
 0001:001BF404 FState.TFrmDlg.DAdjustAbilCloseClick_005C0404
 0001:001BF438 FState.sub_005C0438_005C0438
 0001:001BF4AC FState.TFrmDlg.DAdjustAbilityDirectPaint_005C04AC
 0001:001C0214 FState.TFrmDlg.DPlusDCClick_005C1214
 0001:001C0358 FState.TFrmDlg.DPopUpEditsPopIndex_005C1358
 0001:001C03A0 FState.TFrmDlg.DMinusDCClick_005C13A0
 0001:001C05A8 FState.TFrmDlg.DAdjustAbilOkClick_005C15A8
 0001:001C05E8 FState.TFrmDlg.DAdjustAbilityMouseMove_005C15E8
 0001:001C06E8 FState.TFrmDlg.DSServer1DirectPaint_005C16E8
 0001:001C0F34 FState.TFrmDlg.DBotFriendClick_005C1F34
 0001:001C0F54 FState.TFrmDlg.DBotFriendDirectPaint_005C1F54
 0001:001C10C0 FState.TFrmDlg.DBotFriendMouseMove_005C20C0
 0001:001C11B0 FState.sub_005C21B0_005C21B0
 0001:001C11DC FState.sub_005C21DC_005C21DC
 0001:001C1210 FState.sub_005C2210_005C2210
 0001:001C123C FState.TFrmDlg.DFriendDlgDirectPaint_005C223C
 0001:001C1974 FState.TFrmDlg.DFrdPgUpClick_005C2974
 0001:001C1A58 FState.TFrmDlg.DFrdPgUpDirectPaint_005C2A58
 0001:001C1BB8 FState.TFrmDlg.DFrdFriendClick_005C2BB8
 0001:001C1BDC FState.TFrmDlg.DFrdBlackListClick_005C2BDC
 0001:001C1C10 FState.TFrmDlg.DFrdAddMouseMove_005C2C10
 0001:001C1D10 FState.TFrmDlg.DFrdDelMouseMove_005C2D10
 0001:001C1E10 FState.TFrmDlg.DFrdMemoMouseMove_005C2E10
 0001:001C1F10 FState.TFrmDlg.DFrdMailMouseMove_005C2F10
 0001:001C2010 FState.TFrmDlg.DFrdWhisperMouseMove_005C3010
 0001:001C2110 FState.TFrmDlg.DFrdCloseClick_005C3110
 0001:001C2130 FState.TFrmDlg.DFrdFriendDirectPaint_005C3130
 0001:001C21FC FState.TFrmDlg.DFrdBlackListDirectPaint_005C31FC
 0001:001C235C FState.TFrmDlg.DMailListDlgDirectPaint_005C335C
 0001:001C2A34 FState.TFrmDlg.DMailListCloseClick_005C3A34
 0001:001C2A54 FState.TFrmDlg.DMailListPgUpClick_005C3A54
 0001:001C2AB8 FState.TFrmDlg.DMLReplyMouseMove_005C3AB8
 0001:001C2BA4 FState.TFrmDlg.DMoveButton_itemsDirectPaint_005C3BA4
 0001:001C2C64 FState.TFrmDlg.DMLReadMouseMove_005C3C64
 0001:001C2D50 FState.TFrmDlg.DMLDelMouseMove_005C3D50
 0001:001C2E3C FState.TFrmDlg.DMLLockMouseMove_005C3E3C
 0001:001C2F28 FState.TFrmDlg.DMLBlockMouseMove_005C3F28
 0001:001C3018 FState.TFrmDlg.DMailListDlgClick_005C4018
 0001:001C30B8 FState.TFrmDlg.DMailListDlgDblClick_005C40B8
 0001:001C30D4 FState.TFrmDlg.DMailListDlgMouseUp_005C40D4
 0001:001C3110 FState.TFrmDlg.DFriendDlgClick_005C4110
 0001:001C32F4 FState.TFrmDlg.DFriendDlgDblClick_005C42F4
 0001:001C331C FState.TFrmDlg.DFriendDlgMouseUp_005C431C
 0001:001C3398 FState.TFrmDlg.DBlockListCloseClick_005C4398
 0001:001C33B8 FState.TFrmDlg.DBLPgUpClick_005C43B8
 0001:001C3420 FState.TFrmDlg.DBlockListDlgDirectPaint_005C4420
 0001:001C3910 FState.TFrmDlg.DBlockListDlgClick_005C4910
 0001:001C39CC FState.TFrmDlg.DBLAddMouseMove_005C49CC
 0001:001C3AC0 FState.TFrmDlg.DBLDelMouseMove_005C4AC0
 0001:001C3BAC FState.TFrmDlg.DMLBlockClick_005C4BAC
 0001:001C3BCC FState.TFrmDlg.DBotMemoMouseMove_005C4BCC
 0001:001C3CC0 FState.TFrmDlg.DBotMemoClick_005C4CC0
 0001:001C3D10 FState.sub_005C4D10_005C4D10
 0001:001C3E4C FState.TFrmDlg.DFrdAddClick_005C4E4C
 0001:001C3FDC FState.TFrmDlg.DFrdDelClick_005C4FDC
 0001:001C4154 FState.TFrmDlg.DFrdMailClick_005C5154
 0001:001C4270 FState.TFrmDlg.DMLReadClick_005C5270
 0001:001C4514 FState.TFrmDlg.DFrdMemoClick_005C5514
 0001:001C471C FState.TFrmDlg.DFrdWhisperClick_005C571C
 0001:001C480C FState.TFrmDlg.DMemoDirectPaint_005C580C
 0001:001C4C28 FState.sub_005C5C28_005C5C28
 0001:001C4FF0 FState.sub_005C5FF0_005C5FF0
 0001:001C5364 FState.sub_005C6364_005C6364
 0001:001C5688 FState.sub_005C6688_005C6688
 0001:001C56DC FState.TFrmDlg.DMemoCloseClick_005C66DC
 0001:001C57D8 FState.TFrmDlg.DMemoB1DirectPaint_005C67D8
 0001:001C58B4 FState.TFrmDlg.DMemoB2DirectPaint_005C68B4
 0001:001C5990 FState.TFrmDlg.DMemoB1Click_005C6990
 0001:001C5BF0 FState.TFrmDlg.DBLAddClick_005C6BF0
 0001:001C5C74 FState.TFrmDlg.DBLDelClick_005C6C74
 0001:001C5D30 FState.TFrmDlg.DMLReplyClick_005C6D30
 0001:001C5E08 FState.TFrmDlg.DMLDelClick_005C6E08
 0001:001C5F50 FState.TFrmDlg.DMLLockClick_005C6F50
 0001:001C5FF8 FState.TFrmDlg.DFrdPgUpMouseMove_005C6FF8
 0001:001C60E8 FState.TFrmDlg.DFrdPgDnMouseMove_005C70E8
 0001:001C61D8 FState.TFrmDlg.DMailListPgUpMouseMove_005C71D8
 0001:001C62C8 FState.TFrmDlg.DMailListPgDnMouseMove_005C72C8
 0001:001C63B8 FState.TFrmDlg.DBLPgUpMouseMove_005C73B8
 0001:001C64A8 FState.TFrmDlg.DBLPgDnMouseMove_005C74A8
 0001:001C6598 FState.TFrmDlg.DFriendDlgMouseMove_005C7598
 0001:001C66D8 FState.TFrmDlg.DMailListDlgMouseMove_005C76D8
 0001:001C66FC FState.TFrmDlg.DMailDlgMouseMove_005C76FC
 0001:001C6720 FState.TFrmDlg.DBlockListDlgMouseMove_005C7720
 0001:001C6744 FState.TFrmDlg.DMemoMouseMove_005C7744
 0001:001C6768 FState.TFrmDlg.DMakeItemDlgOkDirectPaint_005C7768
 0001:001C6824 FState.TFrmDlg.DCountDlgDirectPaint_005C7824
 0001:001C69E0 FState.sub_005C79E0_005C79E0
 0001:001C6DA0 FState.TFrmDlg.DCountDlgOkDirectPaint_005C7DA0
 0001:001C6E64 FState.TFrmDlg.DCountDlgOkClick_005C7E64
 0001:001C6F8C FState.TFrmDlg.DComboBoxAutoMagicListChange_005C7F8C
 0001:001C6F9C FState.TFrmDlg.DComboBox_ItemsChange_005C7F9C
 0001:001C7094 FState.TFrmDlg.DComboBox_KeyChange_005C8094
 0001:001C7154 FState.TFrmDlg.DComboBox_keyClick_005C8154
 0001:001C717C FState.TFrmDlg.DComboBox_keyTextChanged_005C817C
 0001:001C71C4 FState.TFrmDlg.DComboBox_MonKeyChange_005C81C4
 0001:001C7284 FState.TFrmDlg.DComboBox_MonkeyClick_005C8284
 0001:001C72AC FState.TFrmDlg.DCountDlgCloseClick_005C82AC
 0001:001C72F4 FState.TFrmDlg.DMakeItemDlgOkClick_005C82F4
 0001:001C7414 FState.TFrmDlg.DMakeItemDlgDirectPaint_005C8414
 0001:001C7534 FState.sub_005C8534_005C8534
 0001:001C75B8 FState.TFrmDlg.DMakeitemGridGridPaint_005C85B8
 0001:001C7780 FState.TFrmDlg.DMakeitemGridGridSelect_005C8780
 0001:001C7B1C FState.TFrmDlg.DMakeitemGridGridMouseMove_005C8B1C
 0001:001C7B74 FState.sub_005C8B74_005C8B74
 0001:001C7BAC FState.sub_005C8BAC_005C8BAC
 0001:001C7BE4 FState.TFrmDlg.DItemMarketDlgDirectPaint_005C8BE4
 0001:001C89E0 FState.TFrmDlg.DItemMarketDlgClick_005C99E0
 0001:001C8B04 FState.TFrmDlg.DItemMarketDlgMouseMove_005C9B04
 0001:001C8B24 FState.TFrmDlg.DItemListPrevClick_005C9B24
 0001:001C8B9C FState.TFrmDlg.DItemListNextClick_005C9B9C
 0001:001C8C58 FState.TFrmDlg.DItemBuyClick_005C9C58
 0001:001C8E30 FState.TFrmDlg.DItemMarketCloseClick_005C9E30
 0001:001C8EB0 FState.TFrmDlg.DMGoldDirectPaint_005C9EB0
 0001:001C8F84 FState.TFrmDlg.DItemMarketDlgKeyDown_005C9F84
 0001:001C90E8 FState.TFrmDlg.DItemListRefreshClick_005CA0E8
 0001:001C91B0 FState.TFrmDlg.DItemSellCancelClick_005CA1B0
 0001:001C9400 FState.TFrmDlg.DItemFindClick_005CA400
 0001:001C94DC FState.TFrmDlg.DItemSellCancelMouseMove_005CA4DC
 0001:001C94F4 FState.TFrmDlg.DItemCancelMouseMove_005CA4F4
 0001:001C950C FState.TFrmDlg.DItemBagClick_005CA50C
 0001:001C9534 FState.TFrmDlg.DMemoClick_005CA534
 0001:001C955C FState.TFrmDlg.DMailDlgClick_005CA55C
 0001:001C9584 FState.TFrmDlg.DItemMarketDlgMouseDown_005CA584
 0001:001C96F4 FState.sub_005CA6F4_005CA6F4
 0001:001C9734 FState.sub_005CA734_005CA734
 0001:001C999C FState.sub_005CA99C_005CA99C
 0001:001C99D4 FState.sub_005CA9D4_005CA9D4
 0001:001C9A0C FState.TFrmDlg.DJangwonListDlgDirectPaint_005CAA0C
 0001:001C9F2C FState.TFrmDlg.DJangwonListDlgClick_005CAF2C
 0001:001CA01C FState.TFrmDlg.DJangListPrevClick_005CB01C
 0001:001CA05C FState.TFrmDlg.DJangListNextClick_005CB05C
 0001:001CA09C FState.TFrmDlg.DJangwonCloseClick_005CB09C
 0001:001CA0CC FState.TFrmDlg.DJangMemoClick_005CB0CC
 0001:001CA1F8 FState.TFrmDlg.DDealJangwonDirectPaint_005CB1F8
 0001:001CA2FC FState.sub_005CB2FC_005CB2FC
 0001:001CA334 FState.sub_005CB334_005CB334
 0001:001CA36C FState.TFrmDlg.DGABoardListDlgDirectPaint_005CB36C
 0001:001CA90C FState.TFrmDlg.DGABoardListCloseClick_005CB90C
 0001:001CA940 FState.TFrmDlg.DGABoardOkClick_005CB940
 0001:001CA968 FState.sub_005CB968_005CB968
 0001:001CA9A0 FState.sub_005CB9A0_005CB9A0
 0001:001CA9D8 FState.sub_005CB9D8_005CB9D8
 0001:001CAA7C FState.TFrmDlg.DGABoardListDlgDblClick_005CBA7C
 0001:001CACB8 FState.TFrmDlg.DGABoardListDlgMouseDown_005CBCB8
 0001:001CACE8 FState.TFrmDlg.DGABoardDlgDirectPaint_005CBCE8
 0001:001CAE2C FState.TFrmDlg.DGABoardCloseClick_005CBE2C
 0001:001CAE80 FState.TFrmDlg.DGABoardOk2Click_005CBE80
 0001:001CB084 FState.TFrmDlg.DGABoardWriteClick_005CC084
 0001:001CB13C FState.TFrmDlg.DGABoardNoticeClick_005CC13C
 0001:001CB180 FState.TFrmDlg.DGABoardReplyClick_005CC180
 0001:001CB224 FState.TFrmDlg.DGABoardDlgKeyDown_005CC224
 0001:001CB26C FState.TFrmDlg.DGABoardListPrevClick_005CC26C
 0001:001CB2A4 FState.TFrmDlg.DGABoardListNextClick_005CC2A4
 0001:001CB2E4 FState.TFrmDlg.DGABoardListRefreshClick_005CC2E4
 0001:001CB30C FState.TFrmDlg.DGABoardMemoClick_005CC30C
 0001:001CB4AC FState.TFrmDlg.DGABoardDelClick_005CC4AC
 0001:001CB6A8 FState.sub_005CC6A8_005CC6A8
 0001:001CBAEC FState.sub_005CCAEC_005CCAEC
 0001:001CBB98 FState.sub_005CCB98_005CCB98
 0001:001CBBD0 FState.sub_005CCBD0_005CCBD0
 0001:001CBC08 FState.TFrmDlg.DGADecorateDlgDirectPaint_005CCC08
 0001:001CC368 FState.TFrmDlg.DGADecorateCloseClick_005CD368
 0001:001CC390 FState.TFrmDlg.DGADecorateCancelClick_005CD390
 0001:001CC3B8 FState.TFrmDlg.DGADecorateBuyClick_005CD3B8
 0001:001CC46C FState.TFrmDlg.DGADecorateDlgClick_005CD46C
 0001:001CC564 FState.TFrmDlg.DGADecorateDlgKeyDown_005CD564
 0001:001CC6A4 FState.TFrmDlg.DGADecorateListNextClick_005CD6A4
 0001:001CC738 FState.TFrmDlg.DGADecorateListPrevClick_005CD738
 0001:001CC7B0 FState.sub_005CD7B0_005CD7B0
 0001:001CC89C FState.sub_005CD89C_005CD89C
 0001:001CC9B0 FState.TFrmDlg.DEditIDKeyPress_005CD9B0
 0001:001CC9D8 FState.TFrmDlg.DEditIDMouseUp_005CD9D8
 0001:001CCE14 FState.TFrmDlg.DEditPassKeyPress_005CDE14
 0001:001CCE3C FState.TFrmDlg.DEditPtHpLeave_005CDE3C
 0001:001CCE7C FState.TFrmDlg.DEditPtHpTextChanged_005CDE7C
 0001:001CCEF4 FState.TFrmDlg.DEditPtHpTimeLeave_005CDEF4
 0001:001CCF34 FState.TFrmDlg.DEditPtHpTimeTextChanged_005CDF34
 0001:001CCFAC FState.TFrmDlg.DEditPtMpLeave_005CDFAC
 0001:001CCFEC FState.TFrmDlg.DEditPtMpTextChanged_005CDFEC
 0001:001CD064 FState.TFrmDlg.DEditPtMpTimeLeave_005CE064
 0001:001CD0A4 FState.TFrmDlg.DEditPtMpTimeTextChanged_005CE0A4
 0001:001CD11C FState.TFrmDlg.DEditStoreItemPriceKeyPress_005CE11C
 0001:001CD140 FState.TFrmDlg.DEdtSdoExpFiltrateTextChanged_005CE140
 0001:001CD1B8 FState.TFrmDlg.DMasterDlgClick_005CE1B8
 0001:001CD1E0 FState.TFrmDlg.DMasterDlgDirectPaint_005CE1E0
 0001:001CD644 FState.TFrmDlg.DMasterDlgMouseMove_005CE644
 0001:001CD668 FState.TFrmDlg.DLoveCloseClick_005CE668
 0001:001CD688 FState.TFrmDlg.DLoveDlgDirectPaint_005CE688
 0001:001CDA08 FState.TFrmDlg.DLover1Click_005CEA08
 0001:001CDA54 FState.TFrmDlg.DLover1MouseMove_005CEA54
 0001:001CDB60 FState.TFrmDlg.DLover2Click_005CEB60
 0001:001CDB8C FState.TFrmDlg.DLover2MouseMove_005CEB8C
 0001:001CDC8C FState.TFrmDlg.DLover3Click_005CEC8C
 0001:001CDD70 FState.TFrmDlg.DLover3MouseMove_005CED70
 0001:001CDE70 FState.sub_005CEE70_005CEE70
 0001:001CDED0 FState.sub_005CEED0_005CEED0
 0001:001CDF20 FState.TFrmDlg.DMaster1Click_005CEF20
 0001:001CDF70 FState.TFrmDlg.DMaster1MouseMove_005CEF70
 0001:001CE0DC FState.TFrmDlg.DMaster2Click_005CF0DC
 0001:001CE104 FState.TFrmDlg.DMaster2MouseMove_005CF104
 0001:001CE288 FState.TFrmDlg.DMaster3Click_005CF288
 0001:001CE578 FState.TFrmDlg.DMaster3MouseMove_005CF578
 0001:001CE680 FState.TFrmDlg.DMasterCloseClick_005CF680
 0001:001CE6A0 FState.TFrmDlg.DMasterCloseDirectPaint_005CF6A0
 0001:001CE800 FState.TFrmDlg.DHeartImgDirectPaint_005CF800
 0001:001CE8B0 FState.TFrmDlg.DHeartImgUSDirectPaint_005CF8B0
 0001:001CE960 FState.TFrmDlg.DHelpDlgCloseClick_005CF960
 0001:001CE988 FState.TFrmDlg.DHelpDlgCloseDirectPaint_005CF988
 0001:001CEA90 FState.TFrmDlg.DHelpDlgDirectPaint_005CFA90
 0001:001CED84 FState.TFrmDlg.DHelpDlgLeftClick_005CFD84
 0001:001CEDD0 FState.TFrmDlg.DHelpDlgLeftDirectPaint_005CFDD0
 0001:001CEF80 FState.TFrmDlg.DBotMaster1Click_005CFF80
 0001:001CF118 FState.TFrmDlg.DBotMasterClick_005D0118
 0001:001CF138 FState.TFrmDlg.DMarketMemoClick_005D0138
 0001:001CF23C FState.TFrmDlg.DMemoKeyDown_005D023C
 0001:001CF284 FState.TFrmDlg.DSkillBarOnDirectPaint_005D0284
 0001:001CF340 FState.TFrmDlg.DChFriendDirectPaint_005D0340
 0001:001CF3F8 FState.TFrmDlg.DChGroupClick_005D03F8
 0001:001CF520 FState.TFrmDlg.DCheckBoxBagFullClick_005D0520
 0001:001CF54C FState.TFrmDlg.DCheckBoxBlueClick_005D054C
 0001:001CF578 FState.TFrmDlg.DCheckBoxDuFuClick_005D0578
 0001:001CF5A4 FState.TFrmDlg.DCheckBoxGuajiClick_005D05A4
 0001:001CF688 FState.TFrmDlg.DCheckBoxHideShitiClick_005D0688
 0001:001CF6B8 FState.TFrmDlg.DCheckBoxHideShitiDirectPaint_005D06B8
 0001:001CF840 FState.TFrmDlg.DCheckBoxItemGlClick_005D0840
 0001:001CF93C FState.TFrmDlg.DCheckBoxMfClick_005D093C
 0001:001CF990 FState.TFrmDlg.DCheckBoxMonGlClick_005D0990
 0001:001CFA78 FState.TFrmDlg.DCheckBoxPgClick_005D0A78
 0001:001CFACC FState.TFrmDlg.DCheckBoxRedClick_005D0ACC
 0001:001CFAF8 FState.TFrmDlg.DCheckBoxTransClick_005D0AF8
 0001:001CFB4C FState.TFrmDlg.DCheckBoxTransClickSound_005D0B4C
 0001:001CFB90 FState.TFrmDlg.DCheckBoxTransDirectPaint_005D0B90
 0001:001CFD28 FState.TFrmDlg.DCheckBox_AllPickupChange_005D0D28
 0001:001CFD50 FState.TFrmDlg.DCheckBox_AllPickupClick_005D0D50
 0001:001CFD80 FState.TFrmDlg.DCheckMyHpClick_005D0D80
 0001:001CFDB0 FState.TFrmDlg.DCheckPtmfyChange_005D0DB0
 0001:001CFDD8 FState.TFrmDlg.DCheckPtmfyClick_005D0DD8
 0001:001CFE08 FState.TFrmDlg.DCheckPttlyChange_005D0E08
 0001:001CFE30 FState.TFrmDlg.DCheckPttlyClick_005D0E30
 0001:001CFE60 FState.TFrmDlg.DCheckRanProtectClick_005D0E60
 0001:001CFE90 FState.TFrmDlg.DCheckSdoAutoFireHitChange_005D0E90
 0001:001CFEE8 FState.TFrmDlg.DCheckSdoAutoFireHitClick_005D0EE8
 0001:001CFF44 FState.TFrmDlg.DCheckSdoAutoHideChange_005D0F44
 0001:001CFF9C FState.TFrmDlg.DCheckSdoAutoHldChange_005D0F9C
 0001:001CFFF4 FState.TFrmDlg.DCheckSdoAutoJldChange_005D0FF4
 0001:001D004C FState.TFrmDlg.DCheckSdoAutoLongHitChange_005D104C
 0001:001D00A4 FState.TFrmDlg.DCheckSdoAutoLongHitExChange_005D10A4
 0001:001D00FC FState.TFrmDlg.DCheckSdoAutoHideClick_005D10FC
 0001:001D0158 FState.TFrmDlg.DCheckSdoAutoHldClick_005D1158
 0001:001D01B4 FState.TFrmDlg.DCheckSdoAutoJldClick_005D11B4
 0001:001D0210 FState.TFrmDlg.DCheckSdoAutoLongHitClick_005D1210
 0001:001D026C FState.TFrmDlg.DCheckSdoAutoLongHitEXClick_005D126C
 0001:001D02C8 FState.TFrmDlg.DCheckSdoAutoMagicClick_005D12C8
 0001:001D030C FState.TFrmDlg.DCheckSdoAutoMagicTimeLeave_005D130C
 0001:001D0350 FState.TFrmDlg.DCheckSdoAutoMagicTimeTextChanged_005D1350
 0001:001D03CC FState.TFrmDlg.DCheckSdoAutoShieldChange_005D13CC
 0001:001D03DC FState.TFrmDlg.DCheckSdoAutoShieldClick_005D13DC
 0001:001D0438 FState.TFrmDlg.DCheckSdoAvoidShiftClick_005D1438
 0001:001D0468 FState.TFrmDlg.DCheckSdoDuraWarningClick_005D1468
 0001:001D0498 FState.TFrmDlg.DCheckSdoExpFiltrateClick_005D1498
 0001:001D04C8 FState.TFrmDlg.DCheckSdoMapDescClick_005D14C8
 0001:001D04F8 FState.TFrmDlg.DCheckSdoNameShowClick_005D14F8
 0001:001D0524 FState.TFrmDlg.DCheckSdoNameShowMouseMove_005D1524
 0001:001D0ACC FState.TFrmDlg.DCheckSpecialClick_005D1ACC
 0001:001D0AFC FState.TFrmDlg.DCheckSpecialDirectPaint_005D1AFC
 0001:001D0BF8 FState.TFrmDlg.DCheckWhisperDirectPaint_005D1BF8
 0001:001D0D34 FState.TFrmDlg.DChFriendClick_005D1D34
 0001:001D0DA8 FState.TFrmDlg.DChMemoClick_005D1DA8
 0001:001D0E64 FState.TFrmDlg.DSellDlgBtnHoldClick_005D1E64
 0001:001D0E98 FState.TFrmDlg.DSellDlgStHoldDirectPaint_005D1E98
 0001:001D0F58 FState.TFrmDlg.DSdoMemoEndDirectPaint_005D1F58
 0001:001D0F6C FState.TFrmDlg.DSelectChrClick_005D1F6C
 0001:001D1028 FState.TFrmDlg.DSellDlgBtnHoldMouseMove_005D2028
 0001:001D10B0 FState.TFrmDlg.DGrpAllowGroupMouseMove_005D20B0
 0001:001D115C FState.TFrmDlg.DGroupDlgMouseMove_005D215C
 0001:001D1180 FState.TFrmDlg.SwapBujuk_005D2180
 0001:001D124C FState.TFrmDlg.DBottomMouseMove_005D224C
 0001:001D16D0 FState.TFrmDlg.DBUserStallCloseClick_005D26D0
 0001:001D16F8 FState.TFrmDlg.DButtonDefaultConfigClick_005D26F8
 0001:001D1758 FState.TFrmDlg.DButtonDefaultConfigDirectPaint_005D2758
 0001:001D1DB0 FState.TFrmDlg.DButtonShopEffectDirectPaint_005D2DB0
 0001:001D1F9C FState.sub_005D2F9C_005D2F9C
 0001:001D2010 FState.TFrmDlg.DButtonType1Click_005D3010
 0001:001D2080 FState.TFrmDlg.DButtonType1DirectPaint_005D3080
 0001:001D2158 FState.TFrmDlg.Db_MoveButtonDirectPaint_005D3158
 0001:001D2218 FState.TFrmDlg.DCashItemBuyClick_005D3218
 0001:001D22F0 FState.TFrmDlg.DCashItemGiftClick_005D32F0
 0001:001D24DC FState.TFrmDlg.DCashItemListNextClick_005D34DC
 0001:001D2530 FState.TFrmDlg.DCashItemListPrevClick_005D3530
 0001:001D2564 FState.TFrmDlg.DCashShopDlgCloseClick_005D3564
 0001:001D258C FState.TFrmDlg.DCashShopDlgDirectPaint_005D358C
 0001:001D2754 FState.TFrmDlg.DCashShopDlgMouseMove_005D3754
 0001:001D2778 FState.TFrmDlg.DCBRenewBookNowBookClick_005D3778
 0001:001D27AC FState.TFrmDlg.DCBRenewBookNowBookTextChanged_005D37AC
 0001:001D2810 FState.TFrmDlg.DGridUserStallGridMouseMove_005D3810
 0001:001D2B0C FState.TFrmDlg.DGridUserStallGridPaint_005D3B0C
 0001:001D2E18 FState.TFrmDlg.DGridUserStallGridSelect_005D3E18
 0001:001D2F04 FState.TFrmDlg.DRefreshPotCashDirectPaint_005D3F04
 0001:001D2FAC FState.TFrmDlg.DRepairItemClick_005D3FAC
 0001:001D3120 FState.Finalization_005D4120
 0001:001D31F0 _Unit74.sub_005D41F0_005D41F0
 0001:001D3394 _Unit74.sub_005D4394_005D4394
 0001:001D3424 _Unit74.sub_005D4424_005D4424
 0001:001D4268 _Unit74.sub_005D5268_005D5268
 0001:001D4DC0 _Unit74.sub_005D5DC0_005D5DC0
 0001:001D4F0C _Unit74.sub_005D5F0C_005D5F0C
 0001:001D5230 _Unit74.sub_005D6230_005D6230
 0001:001D52D8 _Unit74.sub_005D62D8_005D62D8
 0001:001D53BC _Unit74.Finalization_005D63BC
 0001:001D544C _Unit75.sub_005D644C_005D644C
 0001:001D554C _Unit75.sub_005D654C_005D654C
 0001:001D5654 _Unit75.sub_005D6654_005D6654
 0001:001D56E4 _Unit75.sub_005D66E4_005D66E4
 0001:001D5764 _Unit75.sub_005D6764_005D6764
 0001:001D578C _Unit75.sub_005D678C_005D678C
 0001:001D5974 _Unit75.sub_005D6974_005D6974
 0001:001D5A38 _Unit75.sub_005D6A38_005D6A38
 0001:001D5CF4 _Unit75.sub_005D6CF4_005D6CF4
 0001:001D5DA4 _Unit75.sub_005D6DA4_005D6DA4
 0001:001D5E34 _Unit75.sub_005D6E34_005D6E34
 0001:001D5EFC _Unit75.sub_005D6EFC_005D6EFC
 0001:001D6034 _Unit75.sub_005D7034_005D7034
 0001:001D6228 _Unit75.sub_005D7228_005D7228
 0001:001D6274 _Unit75.sub_005D7274_005D7274
 0001:001D6338 _Unit75.sub_005D7338_005D7338
 0001:001D6408 _Unit75.sub_005D7408_005D7408
 0001:001D65A8 _Unit75.sub_005D75A8_005D75A8
 0001:001D6658 _Unit75.sub_005D7658_005D7658
 0001:001D6738 _Unit75.sub_005D7738_005D7738
 0001:001D67A8 _Unit75.sub_005D77A8_005D77A8
 0001:001D690C _Unit75.sub_005D790C_005D790C
 0001:001D695C _Unit75.sub_005D795C_005D795C
 0001:001D69C0 _Unit75.sub_005D79C0_005D79C0
 0001:001D6A5C _Unit75.sub_005D7A5C_005D7A5C
 0001:001D6AE0 _Unit75.sub_005D7AE0_005D7AE0
 0001:001D6B1C _Unit75.sub_005D7B1C_005D7B1C
 0001:001D6BD8 _Unit75.sub_005D7BD8_005D7BD8
 0001:001D6CA0 _Unit75.sub_005D7CA0_005D7CA0
 0001:001D6DD8 _Unit75.sub_005D7DD8_005D7DD8
 0001:001D6EC4 _Unit75.sub_005D7EC4_005D7EC4
 0001:001D6F4C _Unit75.sub_005D7F4C_005D7F4C
 0001:001D6FEC _Unit75.sub_005D7FEC_005D7FEC
 0001:001D708C _Unit75.sub_005D808C_005D808C
 0001:001D72CC _Unit75.sub_005D82CC_005D82CC
 0001:001D7608 _Unit75.sub_005D8608_005D8608
 0001:001D7630 _Unit75.sub_005D8630_005D8630
 0001:001D7658 _Unit75.sub_005D8658_005D8658
 0001:001D779C _Unit75.sub_005D879C_005D879C
 0001:001D77E8 _Unit75.sub_005D87E8_005D87E8
 0001:001D7804 _Unit75.sub_005D8804_005D8804
 0001:001D7858 _Unit75.sub_005D8858_005D8858
 0001:001D78A8 _Unit75.sub_005D88A8_005D88A8
 0001:001D7970 _Unit75.Finalization_005D8970
 0001:001D8300 _Unit76.sub_005D9300_005D9300
 0001:001D85F4 _Unit76.TMagicEff.Create_005D95F4
 0001:001D9028 _Unit76.sub_005DA028_005DA028
 0001:001D9070 _Unit76.TMagicEff.sub_005DA070_005DA070
 0001:001D98B4 _Unit76.TMagicEff.sub_005DA8B4_005DA8B4
 0001:001D98FC _Unit76.TMagicEff.sub_005DA8FC_005DA8FC
 0001:001D9AF8 _Unit76.TFlyingAxe.Create_005DAAF8
 0001:001D9B7C _Unit76.TFlyingAxe.sub_005DA8FC_005DAB7C
 0001:001D9CC8 _Unit76.TFlyingBug.Create_005DACC8
 0001:001D9D4C _Unit76.TFlyingBug.sub_005DA8FC_005DAD4C
 0001:001D9F18 _Unit76.TFlyingArrow.sub_005DA8FC_005DAF18
 0001:001DA058 _Unit76.TCharEffect.Create_005DB058
 0001:001DA0EC _Unit76.TCharEffect.sub_005DA8B4_005DB0EC
 0001:001DA1A4 _Unit76.TCharEffect.sub_005DA8FC_005DB1A4
 0001:001DA2EC _Unit76.TMapEffect.Create_005DB2EC
 0001:001DA37C _Unit76.TMapEffect.sub_005DA8B4_005DB37C
 0001:001DA424 _Unit76.TMapEffect.sub_005DA8FC_005DB424
 0001:001DA4D0 _Unit76.TScrollHideEffect.Create_005DB4D0
 0001:001DA530 _Unit76.TScrollHideEffect.sub_005DA8B4_005DB530
 0001:001DA578 _Unit76.TFireGunEffect.Create_005DB578
 0001:001DA614 _Unit76.TFireGunEffect.sub_005DA8B4_005DB614
 0001:001DA7DC _Unit76.TFireGunEffect.sub_005DA8FC_005DB7DC
 0001:001DA97C _Unit76.TThuderEffect.Create_005DB97C
 0001:001DAA30 _Unit76.TThuderEffect.sub_005DA8FC_005DBA30
 0001:001DAAB0 _Unit76.TThuderEffectEx.Create_005DBAB0
 0001:001DAB1C _Unit76.TThuderEffectEx.sub_005DA8FC_005DBB1C
 0001:001DAB90 _Unit76.TLightingThunder.Create_005DBB90
 0001:001DAC00 _Unit76.TLightingThunder.sub_005DA8FC_005DBC00
 0001:001DAD10 _Unit76.TExploBujaukEffect.Create_005DBD10
 0001:001DADA4 _Unit76.TExploBujaukEffect.sub_005DA8FC_005DBDA4
 0001:001DB004 _Unit76.TBujaukGroundEffect.Create_005DC004
 0001:001DB098 _Unit76.TBujaukGroundEffect.sub_005DA8B4_005DC098
 0001:001DB1AC _Unit76.TBujaukGroundEffect.sub_005DA8FC_005DC1AC
 0001:001DB454 _Unit76.TNormalDrawEffect.Create_005DC454
 0001:001DB50C _Unit76.TNormalDrawEffect.sub_005DA8B4_005DC50C
 0001:001DB594 _Unit76.TNormalDrawEffect.sub_005DA8FC_005DC594
 0001:001DB668 _Unit76.TFlyingFireBall.Create_005DC668
 0001:001DB6D4 _Unit76.TFlyingFireBall.sub_005DA8FC_005DC6D4
 0001:001DBA88 _Unit76.sub_005DCA88_005DCA88
 0001:001DBEE8 _Unit76.sub_005DCEE8_005DCEE8
 0001:001DC188 _Unit76.sub_005DD188_005DD188
 0001:001DCA30 _Unit76.sub_005DDA30_005DDA30
 0001:001DD640 _Unit76.TActor.sub_005DE640_005DE640
 0001:001DD978 _Unit76.sub_005DE978_005DE978
 0001:001DDA34 _Unit76.sub_005DEA34_005DEA34
 0001:001DDC00 _Unit76.sub_005DEC00_005DEC00
 0001:001DDC8C _Unit76.TActor.sub_005DEC8C_005DEC8C
 0001:001DE124 _Unit76.sub_005DF124_005DF124
 0001:001DE8D4 _Unit76.sub_005DF8D4_005DF8D4
 0001:001DEBC4 _Unit76.sub_005DFBC4_005DFBC4
 0001:001DED88 _Unit76.sub_005DFD88_005DFD88
 0001:001DEDC0 _Unit76.sub_005DFDC0_005DFDC0
 0001:001DEDFC _Unit76.sub_005DFDFC_005DFDFC
 0001:001DEE34 _Unit76.sub_005DFE34_005DFE34
 0001:001DEE7C _Unit76.sub_005DFE7C_005DFE7C
 0001:001DF720 _Unit76.TActor.sub_005E0720_005E0720
 0001:001DF8C8 _Unit76.TActor.sub_005E08C8_005E08C8
 0001:001DF8E4 _Unit76.TActor.sub_005E08E4_005E08E4
 0001:001DF9A0 _Unit76.sub_005E09A0_005E09A0
 0001:001DF9D4 _Unit76.sub_005E09D4_005E09D4
 0001:001DFA08 _Unit76.sub_005E0A08_005E0A08
 0001:001DFAB8 _Unit76.sub_005E0AB8_005E0AB8
 0001:001DFBD8 _Unit76.sub_005E0BD8_005E0BD8
 0001:001DFCC8 _Unit76.sub_005E0CC8_005E0CC8
 0001:001DFD84 _Unit76.sub_005E0D84_005E0D84
 0001:001DFE90 _Unit76.TActor.sub_005E0E90_005E0E90
 0001:001E0004 _Unit76.TActor.sub_005E1004_005E1004
 0001:001E001C _Unit76.sub_005E101C_005E101C
 0001:001E0148 _Unit76.TActor.sub_005E1148_005E1148
 0001:001E023C _Unit76.TActor.sub_005E123C_005E123C
 0001:001E02DC _Unit76.TActor.sub_005E12DC_005E12DC
 0001:001E0F80 _Unit76.TActor.sub_005E1F80_005E1F80
 0001:001E1250 _Unit76.TActor.sub_005E2250_005E2250
 0001:001E1500 _Unit76.TActor.sub_005E2500_005E2500
 0001:001E1510 _Unit76.TActor.sub_005E2510_005E2510
 0001:001E151C _Unit76.sub_005E251C_005E251C
 0001:001E1554 _Unit76.TActor.sub_005E2554_005E2554
 0001:001E19C0 _Unit76.sub_005E29C0_005E29C0
 0001:001E2000 _Unit76.sub_005E3000_005E3000
 0001:001E2064 _Unit76.sub_005E3064_005E3064
 0001:001E2094 _Unit76.sub_005E3094_005E3094
 0001:001E20B4 _Unit76.sub_005E30B4_005E30B4
 0001:001E2140 _Unit76.sub_005E3140_005E3140
 0001:001E2368 _Unit76.TNpcActor.sub_005DE640_005E3368
 0001:001E23D4 _Unit76.TNpcActor.sub_005DEC8C_005E33D4
 0001:001E2D64 _Unit76.TNpcActor.sub_005E1148_005E3D64
 0001:001E2EBC _Unit76.TNpcActor.sub_005E08E4_005E3EBC
 0001:001E32C8 _Unit76.TNpcActor.sub_005E2554_005E42C8
 0001:001E37EC _Unit76.TNpcActor.sub_005E0E90_005E47EC
 0001:001E3948 _Unit76.TNpcActor.sub_005E1004_005E4948
 0001:001E39B8 _Unit76.THumActor.sub_005DE640_005E49B8
 0001:001E3B70 _Unit76.THumActor.sub_005DEC8C_005E4B70
 0001:001E4DB0 _Unit76.THumActor.sub_005E123C_005E5DB0
 0001:001E50C0 _Unit76.THumActor.sub_005E1148_005E60C0
 0001:001E51B0 _Unit76.THumActor.sub_005E2500_005E61B0
 0001:001E533C _Unit76.sub_005E633C_005E633C
 0001:001E535C _Unit76.sub_005E635C_005E635C
 0001:001E5394 _Unit76.THumActor.sub_005E2554_005E6394
 0001:001E5894 _Unit76.THumActor.sub_005E08C8_005E6894
 0001:001E58E8 _Unit76.THumActor.sub_005E08E4_005E68E8
 0001:001E5DBC _Unit76.THumActor.sub_005E0E90_005E6DBC
 0001:001E7374 _Unit76.sub_005E8374_005E8374
 0001:001E73F4 _Unit76.sub_005E83F4_005E83F4
 0001:001E746C _Unit76.TStringHash.Create_005E846C
 0001:001E74D0 _Unit76.TStringHash.Destroy_005E84D0
 0001:001E750C _Unit76.sub_005E850C_005E850C
 0001:001E768C _Unit76.sub_005E868C_005E868C
 0001:001E76F8 _Unit76.sub_005E86F8_005E86F8
 0001:001E7760 _Unit76.sub_005E8760_005E8760
 0001:001E779C _Unit76.THStringList.Changed_005E879C
 0001:001E77BC _Unit76.THStringList.Destroy_005E87BC
 0001:001E7804 _Unit76.THStringList.IndexOf_005E8804
 0001:001E7888 _Unit76.THStringList.IndexOfName_005E8888
 0001:001E790C _Unit76.sub_005E890C_005E890C
 0001:001E7A5C _Unit76.sub_005E8A5C_005E8A5C
 0001:001E7C3C _Unit76.sub_005E8C3C_005E8C3C
 0001:001E8344 _Unit76.sub_005E9344_005E9344
 0001:001E8400 _Unit76.sub_005E9400_005E9400
 0001:001E8454 _Unit76.sub_005E9454_005E9454
 0001:001E86E8 _Unit76.sub_005E96E8_005E96E8
 0001:001EA628 _Unit76.sub_005EB628_005EB628
 0001:001EA758 _Unit76.sub_005EB758_005EB758
 0001:001EA9B8 _Unit76.sub_005EB9B8_005EB9B8
 0001:001EACCC _Unit76.sub_005EBCCC_005EBCCC
 0001:001EAD04 _Unit76.sub_005EBD04_005EBD04
 0001:001EAE30 _Unit76.sub_005EBE30_005EBE30
 0001:001EAEA4 _Unit76.sub_005EBEA4_005EBEA4
 0001:001EB064 _Unit76.sub_005EC064_005EC064
 0001:001EB1B8 _Unit76.sub_005EC1B8_005EC1B8
 0001:001EB21C _Unit76.Finalization_005EC21C
 0001:001EBC04 jpeg._malloc_005ECC04
 0001:001EBC14 jpeg._free_005ECC14
 0001:001EBC24 jpeg._memset_005ECC24
 0001:001EBC38 jpeg._memcpy_005ECC38
 0001:001EBC4C jpeg._fread_005ECC4C
 0001:001EBC68 jpeg._fwrite_005ECC68
 0001:001EBC84 jpeg._fflush_005ECC84
 0001:001EBC8C jpeg.__ftol_005ECC8C
 0001:001EBD2C jpeg.InvalidOperation_005ECD2C
 0001:001EBD44 jpeg.JpegError_005ECD44
 0001:001EBDC4 jpeg.ResetErrorMgr_005ECDC4
 0001:001EBDD4 jpeg.TJPEGData.Destroy_005ECDD4
 0001:001EBE04 jpeg.TJPEGData.FreeHandle_005ECE04
 0001:001EBE08 jpeg.TJPEGImage.Create_005ECE08
 0001:001EBE84 jpeg.TJPEGImage.Destroy_005ECE84
 0001:001EBEC8 jpeg.TJPEGImage.Assign_005ECEC8
 0001:001EBF48 jpeg.TJPEGImage.AssignTo_005ECF48
 0001:001EBF80 jpeg.ProgressCallback_005ECF80
 0001:001EC074 jpeg.ReleaseContext_005ED074
 0001:001EC098 jpeg.InitDecompressor_005ED098
 0001:001EC2A8 jpeg.TJPEGImage.CalcOutputDimensions_005ED2A8
 0001:001EC334 jpeg.TJPEGImage.Changed_005ED334
 0001:001EC33C jpeg.TJPEGImage.Compress_005ED33C
 0001:001EC6B8 jpeg.TJPEGImage.Draw_005ED6B8
 0001:001EC6DC jpeg.TJPEGImage.Equals_005ED6DC
 0001:001EC724 jpeg.TJPEGImage.FreeBitmap_005ED724
 0001:001EC738 jpeg.BuildPalette_005ED738
 0001:001EC7E4 jpeg.BuildColorMap_005ED7E4
 0001:001EC870 jpeg.CMYKToRGB_005ED870
 0001:001EC8C4 jpeg.TJPEGImage.GetBitmap_005ED8C4
 0001:001ECDB0 jpeg.TJPEGImage.GetEmpty_005EDDB0
 0001:001ECDDC jpeg.TJPEGImage.GetGrayscale_005EDDDC
 0001:001ECDF4 jpeg.TJPEGImage.GetPalette_005EDDF4
 0001:001ECE5C jpeg.TJPEGImage.GetHeight_005EDE5C
 0001:001ECE88 jpeg.TJPEGImage.GetWidth_005EDE88
 0001:001ECEB4 jpeg.TJPEGImage.JPEGNeeded_005EDEB4
 0001:001ECEC4 jpeg.TJPEGImage.LoadFromClipboardFormat_005EDEC4
 0001:001ECEEC jpeg.TJPEGImage.LoadFromStream_005EDEEC
 0001:001ECF10 jpeg.TJPEGImage.NewBitmap_005EDF10
 0001:001ECF2C jpeg.TJPEGImage.NewImage_005EDF2C
 0001:001ECF58 jpeg.TJPEGImage.ReadData_005EDF58
 0001:001ECF80 jpeg.TJPEGImage.ReadStream_005EDF80
 0001:001ED0C4 jpeg.TJPEGImage.SaveToClipboardFormat_005EE0C4
 0001:001ED0EC jpeg.TJPEGImage.SaveToStream_005EE0EC
 0001:001ED114 jpeg.TJPEGImage.SetGrayscale_005EE114
 0001:001ED13C jpeg.TJPEGImage.SetHeight_005EE13C
 0001:001ED184 jpeg.TJPEGImage.SetPalette_005EE184
 0001:001ED1DC jpeg.TJPEGImage.SetPerformance_005EE1DC
 0001:001ED204 jpeg.TJPEGImage.SetPixelFormat_005EE204
 0001:001ED22C jpeg.TJPEGImage.SetScale_005EE22C
 0001:001ED254 jpeg.TJPEGImage.SetSmoothing_005EE254
 0001:001ED278 jpeg.TJPEGImage.SetWidth_005EE278
 0001:001ED2C0 jpeg.TJPEGImage.WriteData_005EE2C0
 0001:001ED30C jpeg.InitDefaults_005EE30C
 0001:001ED34C jpeg.jpeg_CreateDecompress_005EE34C
 0001:001ED41C jpeg.jpeg_destroy_decompress_005EE41C
 0001:001ED42C jpeg.sub_005EE42C_005EE42C
 0001:001ED614 jpeg.jpeg_read_header_005EE614
 0001:001ED680 jpeg.jpeg_consume_input_005EE680
 0001:001ED760 jpeg.jpeg_has_multiple_scans_005EE760
 0001:001ED794 jpeg.jpeg_finish_decompress_005EE794
 0001:001ED844 jpeg._DF_._005EE844
 0001:001EE370 jpeg.@jinit_memory_mgr_005EF370
 0001:001EE464 jpeg.@jpeg_get_small_005EF464
 0001:001EE46C jpeg.@jpeg_free_small_005EF46C
 0001:001EE474 jpeg.@jpeg_get_large_005EF474
 0001:001EE47C jpeg.@jpeg_free_large_005EF47C
 0001:001EE484 jpeg.@jpeg_mem_available_005EF484
 0001:001EE490 jpeg.@jpeg_open_backing_store_005EF490
 0001:001EE4A0 jpeg.@jpeg_mem_init_005EF4A0
 0001:001EE4A4 jpeg.@jpeg_mem_term_005EF4A4
 0001:001EE4A8 jpeg._DF_._005EF4A8
 0001:001EE9C4 jpeg.@jinit_input_controller_005EF9C4
 0001:001EEA0C jpeg._DF_._005EFA0C
 0001:001EEAB8 jpeg.jpeg_stdio_src_005EFAB8
 0001:001EEB24 jpeg.jpeg_start_decompress_005EFB24
 0001:001EEBEC jpeg.sub_005EFBEC_005EFBEC
 0001:001EECAC jpeg.jpeg_read_scanlines_005EFCAC
 0001:001EEDE8 jpeg.jpeg_start_output_005EFDE8
 0001:001EEE48 jpeg.jpeg_finish_output_005EFE48
 0001:001EEED0 jpeg._DF_._005EFED0
 0001:001EEF60 jpeg.jpeg_calc_output_dimensions_005EFF60
 0001:001EF14C jpeg.sub_005F014C_005F014C
 0001:001EF1E8 jpeg.sub_005F01E8_005F01E8
 0001:001EF5D8 jpeg.@jinit_master_decompress_005F05D8
 0001:001EF610 jpeg._DF_._005F0610
 0001:001F02C4 jpeg.@jinit_phuff_decoder_005F12C4
 0001:001F0338 jpeg._DF_._005F1338
 0001:001F0470 jpeg.@jpeg_make_d_derived_tbl_005F1470
 0001:001F076C jpeg.@jpeg_fill_bit_buffer_005F176C
 0001:001F08B8 jpeg.@jpeg_huff_decode_005F18B8
 0001:001F0E84 jpeg.@jinit_huff_decoder_005F1E84
 0001:001F0EC4 jpeg._DF_._005F1EC4
 0001:001F1430 jpeg.@jinit_merged_upsampler_005F2430
 0001:001F14B0 jpeg._DF_._005F24B0
 0001:001F188C jpeg.@jinit_color_deconverter_005F288C
 0001:001F1A58 jpeg._DF_._005F2A58
 0001:001F1B50 jpeg.sub_005F2B50_005F2B50
 0001:001F1B74 jpeg.sub_005F2B74_005F2B74
 0001:001F1B98 jpeg.sub_005F2B98_005F2B98
 0001:001F1D4C jpeg.sub_005F2D4C_005F2D4C
 0001:001F24E0 jpeg.sub_005F34E0_005F34E0
 0001:001F260C jpeg.@jinit_1pass_quantizer_005F360C
 0001:001F26A0 jpeg._DF_._005F36A0
 0001:001F36A8 jpeg.sub_005F46A8_005F46A8
 0001:001F3880 jpeg.@jinit_2pass_quantizer_005F4880
 0001:001F39A0 jpeg._DF_._005F49A0
 0001:001F3F98 jpeg.@jinit_d_main_controller_005F4F98
 0001:001F4078 jpeg._DF_._005F5078
 0001:001F4FF4 jpeg.@jinit_d_coef_controller_005F5FF4
 0001:001F5108 jpeg._DF_._005F6108
 0001:001F5368 jpeg.@jinit_d_post_controller_005F6368
 0001:001F53FC jpeg._DF_._005F63FC
 0001:001F5650 jpeg.@jinit_inverse_dct_005F6650
 0001:001F56CC jpeg._DF_._005F66CC
 0001:001F5BB0 jpeg.@jinit_upsampler_005F6BB0
 0001:001F5DC8 jpeg.@jpeg_idct_float_005F6DC8
 0001:001F620C jpeg.@jpeg_idct_ifast_005F720C
 0001:001F6640 jpeg.@jpeg_idct_4x4_005F7640
 0001:001F69F4 jpeg.@jpeg_idct_2x2_005F79F4
 0001:001F6BE4 jpeg.@jpeg_idct_1x1_005F7BE4
 0001:001F6C20 jpeg._DF_._005F7C20
 0001:001F8298 jpeg.sub_005F9298_005F9298
 0001:001F87E8 jpeg.@jpeg_resync_to_restart_005F97E8
 0001:001F88E4 jpeg.sub_005F98E4_005F98E4
 0001:001F891C jpeg.@jinit_marker_reader_005F991C
 0001:001F8990 jpeg.jpeg_save_markers_005F9990
 0001:001F8A78 jpeg.@jdiv_round_up_005F9A78
 0001:001F8A88 jpeg.@jround_up_005F9A88
 0001:001F8AA0 jpeg.@jcopy_sample_rows_005F9AA0
 0001:001F8AEC jpeg.@jcopy_block_row_005F9AEC
 0001:001F8AFC jpeg.@jzero_far_005F9AFC
 0001:001F8B0C jpeg.@jpeg_abort_005F9B0C
 0001:001F8B4C jpeg.jpeg_destroy_005F9B4C
 0001:001F8B6C jpeg.@jpeg_alloc_quant_table_005F9B6C
 0001:001F8B84 jpeg.@jpeg_alloc_huff_table_005F9B84
 0001:001F8B9C jpeg._DF_._005F9B9C
 0001:001F8C6C jpeg.jpeg_stdio_dest_005F9C6C
 0001:001F8CAC jpeg._DF_._005F9CAC
 0001:001F8D64 jpeg.sub_005F9D64_005F9D64
 0001:001F8D94 jpeg.sub_005F9D94_005F9D94
 0001:001F8DC8 jpeg.jpeg_set_quality_005F9DC8
 0001:001F8DE4 jpeg.sub_005F9DE4_005F9DE4
 0001:001F8E6C jpeg.sub_005F9E6C_005F9E6C
 0001:001F8EC4 jpeg.jpeg_set_defaults_005F9EC4
 0001:001F8FC4 jpeg.sub_005F9FC4_005F9FC4
 0001:001F9038 jpeg.jpeg_set_colorspace_005FA038
 0001:001F93F0 jpeg.sub_005FA3F0_005FA3F0
 0001:001F9418 jpeg.sub_005FA418_005FA418
 0001:001F9454 jpeg.sub_005FA454_005FA454
 0001:001F94A0 jpeg.jpeg_simple_progression_005FA4A0
 0001:001F96B8 jpeg.jpeg_start_compress_005FA6B8
 0001:001F972C jpeg.jpeg_write_scanlines_005FA72C
 0001:001F9898 jpeg.jpeg_CreateCompress_005FA898
 0001:001F9970 jpeg.@jpeg_suppress_tables_005FA970
 0001:001F99B8 jpeg.jpeg_finish_compress_005FA9B8
 0001:001F9BAC jpeg.@jinit_compress_master_005FABAC
 0001:001F9C58 jpeg._DF_._005FAC58
 0001:001FA42C jpeg.@jinit_marker_writer_005FB42C
 0001:001FA480 jpeg._DF_._005FB480
 0001:001FA644 jpeg.sub_005FB644_005FB644
 0001:001FAEE8 jpeg.@jinit_c_master_control_005FBEE8
 0001:001FAFB0 jpeg._DF_._005FBFB0
 0001:001FB088 jpeg.@jinit_c_main_controller_005FC088
 0001:001FB10C jpeg._DF_._005FC10C
 0001:001FB488 jpeg.sub_005FC488_005FC488
 0001:001FB5A0 jpeg.@jinit_c_prep_controller_005FC5A0
 0001:001FB648 jpeg._DF_._005FC648
 0001:001FBD84 jpeg.@jinit_c_coef_controller_005FCD84
 0001:001FBE4C jpeg._DF_._005FCE4C
 0001:001FC288 jpeg.@jinit_color_converter_005FD288
 0001:001FC4D4 jpeg._DF_._005FD4D4
 0001:001FCC74 jpeg.@jinit_downsampler_005FDC74
 0001:001FCDFC jpeg._DF_._005FDDFC
 0001:001FD298 jpeg.@jinit_forward_dct_005FE298
 0001:001FD314 jpeg._DF_._005FE314
 0001:001FDDA4 jpeg.@jinit_phuff_encoder_005FEDA4
 0001:001FDDE8 jpeg.@jpeg_fdct_ifast_005FEDE8
 0001:001FE054 jpeg.@jpeg_fdct_float_005FF054
 0001:001FE380 jpeg._DF_._005FF380
 0001:001FE510 jpeg.@jpeg_make_c_derived_tbl_005FF510
 0001:001FED20 jpeg.@jpeg_gen_optimal_table_005FFD20
 0001:001FEFDC jpeg.@jinit_huff_encoder_005FFFDC
 0001:001FF020 jpeg.Finalization_00600020
 0001:0020063C _Unit78.TMediaPlayer.Create_0060163C
 0001:00200730 _Unit78.TMediaPlayer.Destroy_00601730
 0001:00200780 _Unit78.TMediaPlayer.Loaded_00601780
 0001:002007A4 _Unit78.TMediaPlayer.LoadBitmaps_006017A4
 0001:00200908 _Unit78.TMediaPlayer.DestroyBitmaps_00601908
 0001:00200940 _Unit78.TMediaPlayer.SetAutoEnable_00601940
 0001:00200968 _Unit78.TMediaPlayer.SetEnabledButtons_00601968
 0001:002009B0 _Unit78.TMediaPlayer.DrawAutoButtons_006019B0
 0001:002009E8 _Unit78.TMediaPlayer.SetColored_006019E8
 0001:00200A30 _Unit78.TMediaPlayer.SetVisible_00601A30
 0001:00200AA4 _Unit78.TMediaPlayer.VisibleButtonCount_00601AA4
 0001:00200AC8 _Unit78.TMediaPlayer.Adjust_00601AC8
 0001:00200AF0 _Unit78.TMediaPlayer.WMSize_00601AF0
 0001:00200B80 _Unit78.TMediaPlayer.DrawButton_00601B80
 0001:00200E78 _Unit78.TMediaPlayer.Paint_00601E78
 0001:00200EEC _Unit78.TMediaPlayer.AutoButtonSet_00601EEC
 0001:0020111C _Unit78.TMediaPlayer.DoMouseDown_0060211C
 0001:0020120C _Unit78.TMediaPlayer.WMLButtonDblClk_0060220C
 0001:0020121C _Unit78.TMediaPlayer.WMLButtonDown_0060221C
 0001:0020122C _Unit78.TMediaPlayer.WMMouseMove_0060222C
 0001:002012A4 _Unit78.TMediaPlayer.DoClick_006022A4
 0001:00201364 _Unit78.TMediaPlayer.DoPostClick_00602364
 0001:00201378 _Unit78.TMediaPlayer.WMLButtonUp_00602378
 0001:00201400 _Unit78.TMediaPlayer.WMKillFocus_00602400
 0001:0020140C _Unit78.TMediaPlayer.WMSetFocus_0060240C
 0001:00201418 _Unit78.TMediaPlayer.WMGetDlgCode_00602418
 0001:00201420 _Unit78.TMediaPlayer.KeyDown_00602420
 0001:00201504 _Unit78.TMediaPlayer.MMNotify_00602504
 0001:002015A8 _Unit78.TMediaPlayer.CheckIfOpen_006025A8
 0001:002015CC _Unit78.TMediaPlayer.Click_006025CC
 0001:002015EC _Unit78.TMediaPlayer.PostClick_006025EC
 0001:0020160C _Unit78.TMediaPlayer.DoNotify_0060260C
 0001:0020162C _Unit78.TMediaPlayer.Updated_0060262C
 0001:00201640 _Unit78.TMediaPlayer.GetDeviceID_00602640
 0001:00201714 _Unit78.TMediaPlayer.Open_00602714
 0001:0020199C _Unit78.TMediaPlayer.Close_0060299C
 0001:00201A68 _Unit78.TMediaPlayer.Play_00602A68
 0001:00201B78 _Unit78.TMediaPlayer.StartRecording_00602B78
 0001:00201C50 _Unit78.TMediaPlayer.Stop_00602C50
 0001:00201CE4 _Unit78.TMediaPlayer.Pause_00602CE4
 0001:00201D30 _Unit78.TMediaPlayer.PauseOnly_00602D30
 0001:00201DC4 _Unit78.TMediaPlayer.Resume_00602DC4
 0001:00201E78 _Unit78.TMediaPlayer.Next_00602E78
 0001:00201FFC _Unit78.TMediaPlayer.Previous_00602FFC
 0001:002021B4 _Unit78.TMediaPlayer.Step_006031B4
 0001:00202290 _Unit78.TMediaPlayer.Back_00603290
 0001:00202354 _Unit78.TMediaPlayer.Eject_00603354
 0001:00202400 _Unit78.TMediaPlayer.SetPosition_00603400
 0001:002024A4 _Unit78.TMediaPlayer.Rewind_006034A4
 0001:002024D0 _Unit78.TMediaPlayer.GetTrackPosition_006034D0
 0001:00202508 _Unit78.TMediaPlayer.SetWait_00603508
 0001:00202520 _Unit78.TMediaPlayer.SetNotify_00603520
 0001:00202538 _Unit78.TMediaPlayer.SetFrom_00603538
 0001:00202550 _Unit78.TMediaPlayer.SetTo_00603550
 0001:00202568 _Unit78.TMediaPlayer.SetDeviceType_00603568
 0001:00202578 _Unit78.TMediaPlayer.SetTimeFormat_00603578
 0001:002025B4 _Unit78.TMediaPlayer.SetDisplay_006035B4
 0001:0020263C _Unit78.TMediaPlayer.Notification_0060363C
 0001:0020267C _Unit78.TMediaPlayer.SetOrigDisplay_0060367C
 0001:002026C8 _Unit78.TMediaPlayer.SetDisplayRect_006036C8
 0001:00202764 _Unit78.TMediaPlayer.GetDisplayRect_00603764
 0001:002027B8 _Unit78.TMediaPlayer.GetDeviceCaps_006037B8
 0001:0020294C _Unit78.TMediaPlayer.GetFileName_0060394C
 0001:00202964 _Unit78.TMediaPlayer.GetStart_00603964
 0001:002029AC _Unit78.TMediaPlayer.GetLength_006039AC
 0001:002029F4 _Unit78.TMediaPlayer.GetTracks_006039F4
 0001:00202A3C _Unit78.TMediaPlayer.GetMode_00603A3C
 0001:00202A80 _Unit78.TMediaPlayer.GetPosition_00603A80
 0001:00202AC0 _Unit78.TMediaPlayer.GetTimeFormat_00603AC0
 0001:00202B08 _Unit78.TMediaPlayer.GetErrorMessage_00603B08
 0001:00202B6C _Unit78.TMediaPlayer.SetFileName_00603B6C
 0001:00203FA8 _Unit78.TSpinButton.Create_00604FA8
 0001:00204068 _Unit78.TSpinButton.CreateButton_00605068
 0001:002040D0 _Unit78.TSpinButton.Notification_006050D0
 0001:00204100 _Unit78.TSpinButton.AdjustSize_00605100
 0001:0020416C _Unit78.TSpinButton.SetBounds_0060516C
 0001:002041B0 _Unit78.TSpinButton.WMSize_006051B0
 0001:00204210 _Unit78.TSpinButton.WMSetFocus_00605210
 0001:00204240 _Unit78.TSpinButton.WMKillFocus_00605240
 0001:00204270 _Unit78.TSpinButton.KeyDown_00605270
 0001:002042D8 _Unit78.TSpinButton.BtnMouseDown_006052D8
 0001:00204374 _Unit78.TSpinButton.BtnClick_00605374
 0001:002043B8 _Unit78.TSpinButton.SetFocusBtn_006053B8
 0001:00204440 _Unit78.TSpinButton.WMGetDlgCode_00605440
 0001:00204448 _Unit78.TSpinButton.Loaded_00605448
 0001:0020449C _Unit78.TSpinButton.GetUpGlyph_0060549C
 0001:002044A8 _Unit78.TSpinButton.SetUpGlyph_006054A8
 0001:0020450C _Unit78.TSpinButton.GetUpNumGlyphs_0060550C
 0001:00204518 _Unit78.TSpinButton.SetUpNumGlyphs_00605518
 0001:00204524 _Unit78.TSpinButton.GetDownGlyph_00605524
 0001:00204530 _Unit78.TSpinButton.SetDownGlyph_00605530
 0001:00204598 _Unit78.TSpinButton.GetDownNumGlyphs_00605598
 0001:002045A4 _Unit78.TSpinButton.SetDownNumGlyphs_006055A4
 0001:002045B0 _Unit78.TSpinEdit.Create_006055B0
 0001:002046B8 _Unit78.TSpinEdit.Destroy_006056B8
 0001:002046E8 _Unit78.TSpinEdit.GetChildren_006056E8
 0001:002046F0 _Unit78.TSpinEdit.KeyDown_006056F0
 0001:00204734 _Unit78.TSpinEdit.KeyPress_00605734
 0001:0020476C _Unit78.TSpinEdit.IsValidChar_0060576C
 0001:00204804 _Unit78.TSpinEdit.CreateParams_00605804
 0001:00204820 _Unit78.TSpinEdit.CreateWnd_00605820
 0001:00204834 _Unit78.TSpinEdit.SetEditRect_00605834
 0001:002048B4 _Unit78.TSpinEdit.WMSize_006058B4
 0001:00204954 _Unit78.TSpinEdit.GetMinHeight_00605954
 0001:002049C8 _Unit78.TSpinEdit.UpClick_006059C8
 0001:002049F8 _Unit78.TSpinEdit.DownClick_006059F8
 0001:00204A28 _Unit78.TSpinEdit.WMCut_00605A28
 0001:00204A48 _Unit78.TSpinEdit.WMPaste_00605A48
 0001:00204A68 _Unit78.TSpinEdit.CMExit_00605A68
 0001:00204AA4 _Unit78.TSpinEdit.GetValue_00605AA4
 0001:00204B2C _Unit78.TSpinEdit.SetValue_00605B2C
 0001:00204B84 _Unit78.TSpinEdit.CheckValue_00605B84
 0001:00204BAC _Unit78.TSpinEdit.CMEnter_00605BAC
 0001:00204BD4 _Unit78.TTimerSpeedButton.Destroy_00605BD4
 0001:00204C08 _Unit78.TTimerSpeedButton.MouseDown_00605C08
 0001:00204C80 _Unit78.TTimerSpeedButton.MouseUp_00605C80
 0001:00204CB8 _Unit78.TTimerSpeedButton.TimerExpired_00605CB8
 0001:00204D38 _Unit78.TTimerSpeedButton.Paint_00605D38
 0001:002050CC _Unit78.TfrmDlgConfig.ButtonShowClick_006060CC
 0001:00205100 _Unit78.TfrmDlgConfig.EditImageChange_00606100
 0001:002051F0 _Unit78.TfrmDlgConfig.TreeViewChange_006061F0
 0001:002052B8 _Unit78.Finalization_006062B8
 0001:00205544 _Unit79.sub_00606544_00606544
 0001:00205668 _Unit79.sub_00606668_00606668
 0001:00205680 _Unit79.sub_00606680_00606680
 0001:002056BC _Unit79.sub_006066BC_006066BC
 0001:00205784 _Unit79.sub_00606784_00606784
 0001:002057B8 _Unit79.Finalization_006067B8
 0001:002058C8 AsphyreFormats.sub_006068C8_006068C8
 0001:0020597C AsphyreFormats.sub_0060697C_0060697C
 0001:00205A0C AsphyreFormats.sub_00606A0C_00606A0C
 0001:00205A8C AsphyreFormats.sub_00606A8C_00606A8C
 0001:00205B54 AsphyreFormats.sub_00606B54_00606B54
 0001:00205C00 AsphyreFormats.sub_00606C00_00606C00
 0001:00205C70 AsphyreFormats.TAsphyreFormatList.Create_00606C70
 0001:00205CB4 AsphyreFormats.sub_00606CB4_00606CB4
 0001:00205CD4 AsphyreFormats.sub_00606CD4_00606CD4
 0001:00205D14 AsphyreFormats.sub_00606D14_00606D14
 0001:00205DF4 AsphyreFormats.sub_00606DF4_00606DF4
 0001:00205E40 AsphyreFormats.sub_00606E40_00606E40
 0001:00205F78 AsphyreFormats.sub_00606F78_00606F78
 0001:00206034 AsphyreFormats.sub_00607034_00607034
 0001:00206080 AsphyreFormats.sub_00607080_00607080
 0001:002060C0 AsphyreFormats.Finalization_006070C0
 0001:002060E8 _Unit81.sub_006070E8_006070E8
 0001:002062A0 _Unit81.sub_006072A0_006072A0
 0001:00206454 _Unit81.sub_00607454_00607454
 0001:00206530 _Unit81.sub_00607530_00607530
 0001:002065E0 _Unit81.sub_006075E0_006075E0
 0001:002066D0 _Unit81.sub_006076D0_006076D0
 0001:00206798 _Unit81.sub_00607798_00607798
 0001:0020689C _Unit81.sub_0060789C_0060789C
 0001:002068BC _Unit81.sub_006078BC_006078BC
 0001:002068D4 _Unit81.sub_006078D4_006078D4
 0001:002068EC _Unit81.Finalization_006078EC
 0001:00206AE0 _Unit82.TDX9SwapChain.Create_00607AE0
 0001:00206B94 _Unit82.sub_00607B94_00607B94
 0001:00206C60 _Unit82.sub_00607C60_00607C60
 0001:00206D04 _Unit82.sub_00607D04_00607D04
 0001:00206D3C _Unit82.sub_00607D3C_00607D3C
 0001:00206DE4 _Unit82.sub_00607DE4_00607DE4
 0001:00206E04 _Unit82.sub_00607E04_00607E04
 0001:00206E84 _Unit82.sub_00607E84_00607E84
 0001:00206ED8 _Unit82.sub_00607ED8_00607ED8
 0001:00206F90 _Unit82.sub_00607F90_00607F90
 0001:00207008 _Unit82.sub_00608008_00608008
 0001:00207114 _Unit82.sub_00608114_00608114
 0001:00207170 _Unit82.sub_00608170_00608170
 0001:00207184 _Unit82.sub_00608184_00608184
 0001:002071D8 _Unit82.TDX9SwapChains.Create_006081D8
 0001:00207258 _Unit82.sub_00608258_00608258
 0001:00207298 _Unit82.sub_00608298_00608298
 0001:00207314 _Unit82.sub_00608314_00608314
 0001:0020739C _Unit82.sub_0060839C_0060839C
 0001:00207504 _Unit82.TDX9Device.Create_00608504
 0001:00207578 _Unit82.TDX9Device.Destroy_00608578
 0001:002075CC _Unit82.sub_006085CC_006085CC
 0001:00207744 _Unit82.sub_00608744_00608744
 0001:00207784 _Unit82.sub_00608784_00608784
 0001:00207850 _Unit82.sub_00608850_00608850
 0001:0020797C _Unit82.sub_0060897C_0060897C
 0001:00207D08 _Unit82.sub_00608D08_00608D08
 0001:00207D3C _Unit82.sub_00608D3C_00608D3C
 0001:00207E08 _Unit82.sub_00608E08_00608E08
 0001:00207E38 _Unit82.sub_00608E38_00608E38
 0001:00207E70 _Unit82.sub_00608E70_00608E70
 0001:00207F54 _Unit82.sub_00608F54_00608F54
 0001:00208078 _Unit82.sub_00609078_00609078
 0001:00208094 _Unit82.sub_00609094_00609094
 0001:002080B8 _Unit82.sub_006090B8_006090B8
 0001:00208114 _Unit82.sub_00609114_00609114
 0001:0020817C _Unit82.sub_0060917C_0060917C
 0001:002082D4 _Unit82.sub_006092D4_006092D4
 0001:00208368 _Unit82.sub_00609368_00609368
 0001:002085A0 _Unit82.TDX9Canvas.Create_006095A0
 0001:0020871C _Unit82.TDX9Canvas.Destroy_0060971C
 0001:00208760 _Unit82.sub_00609760_00609760
 0001:002087BC _Unit82.sub_006097BC_006097BC
 0001:00208808 _Unit82.sub_00609808_00609808
 0001:00208868 _Unit82.sub_00609868_00609868
 0001:0020889C _Unit82.sub_0060989C_0060989C
 0001:0020895C _Unit82.sub_0060995C_0060995C
 0001:00208990 _Unit82.sub_00609990_00609990
 0001:00208BB4 _Unit82.sub_00609BB4_00609BB4
 0001:00208BF0 _Unit82.sub_00609BF0_00609BF0
 0001:00208C14 _Unit82.sub_00609C14_00609C14
 0001:00208C88 _Unit82.sub_00609C88_00609C88
 0001:00208CA4 _Unit82.sub_00609CA4_00609CA4
 0001:00208CB8 _Unit82.sub_00609CB8_00609CB8
 0001:00208CCC _Unit82.sub_00609CCC_00609CCC
 0001:00208D4C _Unit82.sub_00609D4C_00609D4C
 0001:00208DAC _Unit82.sub_00609DAC_00609DAC
 0001:00208E10 _Unit82.sub_00609E10_00609E10
 0001:00208E94 _Unit82.sub_00609E94_00609E94
 0001:00208EE0 _Unit82.sub_00609EE0_00609EE0
 0001:00208F38 _Unit82.sub_00609F38_00609F38
 0001:00208FBC _Unit82.sub_00609FBC_00609FBC
 0001:00209044 _Unit82.sub_0060A044_0060A044
 0001:00209130 _Unit82.sub_0060A130_0060A130
 0001:002091C4 _Unit82.sub_0060A1C4_0060A1C4
 0001:00209814 _Unit82.sub_0060A814_0060A814
 0001:00209974 _Unit82.sub_0060A974_0060A974
 0001:00209994 _Unit82.sub_0060A994_0060A994
 0001:002099C8 _Unit82.sub_0060A9C8_0060A9C8
 0001:00209A30 _Unit82.sub_0060AA30_0060AA30
 0001:00209AC8 _Unit82.sub_0060AAC8_0060AAC8
 0001:00209BBC _Unit82.sub_0060ABBC_0060ABBC
 0001:00209BF0 _Unit82.sub_0060ABF0_0060ABF0
 0001:00209FFC _Unit82.TDX9LockableTexture.Create_0060AFFC
 0001:0020A05C _Unit82.sub_0060B05C_0060B05C
 0001:0020A128 _Unit82.sub_0060B128_0060B128
 0001:0020A14C _Unit82.sub_0060B14C_0060B14C
 0001:0020A1DC _Unit82.sub_0060B1DC_0060B1DC
 0001:0020A1FC _Unit82.sub_0060B1FC_0060B1FC
 0001:0020A2A8 _Unit82.sub_0060B2A8_0060B2A8
 0001:0020A2C8 _Unit82.sub_0060B2C8_0060B2C8
 0001:0020A310 _Unit82.sub_0060B310_0060B310
 0001:0020A334 _Unit82.sub_0060B334_0060B334
 0001:0020A36C _Unit82.sub_0060B36C_0060B36C
 0001:0020A394 _Unit82.sub_0060B394_0060B394
 0001:0020A3D4 _Unit82.sub_0060B3D4_0060B3D4
 0001:0020A4F4 _Unit82.sub_0060B4F4_0060B4F4
 0001:0020A568 _Unit82.sub_0060B568_0060B568
 0001:0020A5B8 _Unit82.sub_0060B5B8_0060B5B8
 0001:0020A5D8 _Unit82.sub_0060B5D8_0060B5D8
 0001:0020A5F4 _Unit82.TDX9RenderTargetTexture.Create_0060B5F4
 0001:0020A66C _Unit82.sub_0060B66C_0060B66C
 0001:0020A7E0 _Unit82.sub_0060B7E0_0060B7E0
 0001:0020A81C _Unit82.sub_0060B81C_0060B81C
 0001:0020A838 _Unit82.sub_0060B838_0060B838
 0001:0020A84C _Unit82.sub_0060B84C_0060B84C
 0001:0020A88C _Unit82.sub_0060B88C_0060B88C
 0001:0020A8A8 _Unit82.sub_0060B8A8_0060B8A8
 0001:0020A8C4 _Unit82.sub_0060B8C4_0060B8C4
 0001:0020A8E4 _Unit82.sub_0060B8E4_0060B8E4
 0001:0020A900 _Unit82.sub_0060B900_0060B900
 0001:0020A9B8 _Unit82.sub_0060B9B8_0060B9B8
 0001:0020AA30 _Unit82.sub_0060BA30_0060BA30
 0001:0020AB38 _Unit82.sub_0060BB38_0060BB38
 0001:0020AB8C _Unit82.sub_0060BB8C_0060BB8C
 0001:0020AC14 _Unit82.sub_0060BC14_0060BC14
 0001:0020AD10 _Unit82.TDX9Rasterizer.Create_0060BD10
 0001:0020AD64 _Unit82.TDX9Rasterizer.Destroy_0060BD64
 0001:0020ADA8 _Unit82.sub_0060BDA8_0060BDA8
 0001:0020ADE8 _Unit82.sub_0060BDE8_0060BDE8
 0001:0020AE1C _Unit82.sub_0060BE1C_0060BE1C
 0001:0020AE3C _Unit82.sub_0060BE3C_0060BE3C
 0001:0020AE9C _Unit82.sub_0060BE9C_0060BE9C
 0001:0020AEBC _Unit82.sub_0060BEBC_0060BEBC
 0001:0020B128 _Unit82.sub_0060C128_0060C128
 0001:0020B164 _Unit82.sub_0060C164_0060C164
 0001:0020B188 _Unit82.sub_0060C188_0060C188
 0001:0020B1B4 _Unit82.sub_0060C1B4_0060C1B4
 0001:0020B1D0 _Unit82.sub_0060C1D0_0060C1D0
 0001:0020B1E4 _Unit82.sub_0060C1E4_0060C1E4
 0001:0020B1F8 _Unit82.sub_0060C1F8_0060C1F8
 0001:0020B278 _Unit82.sub_0060C278_0060C278
 0001:0020B2D8 _Unit82.sub_0060C2D8_0060C2D8
 0001:0020B360 _Unit82.sub_0060C360_0060C360
 0001:0020B3DC _Unit82.sub_0060C3DC_0060C3DC
 0001:0020B454 _Unit82.sub_0060C454_0060C454
 0001:0020B710 _Unit82.sub_0060C710_0060C710
 0001:0020B810 _Unit82.sub_0060C810_0060C810
 0001:0020B834 _Unit82.sub_0060C834_0060C834
 0001:0020B9BC _Unit82.sub_0060C9BC_0060C9BC
 0001:0020B9D8 _Unit82.sub_0060C9D8_0060C9D8
 0001:0020BC34 _Unit82.TDX9Provider.Create_0060CC34
 0001:0020BC90 _Unit82.TDX9Provider.Destroy_0060CC90
 0001:0020BCD4 _Unit82.sub_0060CCD4_0060CCD4
 0001:0020BCF4 _Unit82.sub_0060CCF4_0060CCF4
 0001:0020BD14 _Unit82.sub_0060CD14_0060CD14
 0001:0020BD34 _Unit82.sub_0060CD34_0060CD34
 0001:0020BD54 _Unit82.sub_0060CD54_0060CD54
 0001:0020BD74 _Unit82.Finalization_0060CD74
 0001:0020BDE0 _Unit83.Finalization_0060CDE0
 0001:0020BE48 _Unit84.sub_0060CE48_0060CE48
 0001:0020BE7C _Unit84.Finalization_0060CE7C
 0001:0020BE94 _Unit85.sub_0060CE94_0060CE94
 0001:0020BF0C _Unit85.sub_0060CF0C_0060CF0C
 0001:0020BF50 _Unit85.sub_0060CF50_0060CF50
 0001:0020C158 _Unit85.sub_0060D158_0060D158
 0001:0020C444 _Unit85.sub_0060D444_0060D444
 0001:0020C538 _Unit85.sub_0060D538_0060D538
 0001:0020C59C _Unit85.Finalization_0060D59C
 0001:0020C6BC _Unit86.TDX7Device.Create_0060D6BC
 0001:0020C724 _Unit86.sub_0060D724_0060D724
 0001:0020C77C _Unit86.sub_0060D77C_0060D77C
 0001:0020C79C _Unit86.sub_0060D79C_0060D79C
 0001:0020C7DC _Unit86.sub_0060D7DC_0060D7DC
 0001:0020C7FC _Unit86.sub_0060D7FC_0060D7FC
 0001:0020C848 _Unit86.sub_0060D848_0060D848
 0001:0020C8C8 _Unit86.sub_0060D8C8_0060D8C8
 0001:0020C8E8 _Unit86.sub_0060D8E8_0060D8E8
 0001:0020CA34 _Unit86.sub_0060DA34_0060DA34
 0001:0020CA54 _Unit86.sub_0060DA54_0060DA54
 0001:0020CAF4 _Unit86.sub_0060DAF4_0060DAF4
 0001:0020CB44 _Unit86.sub_0060DB44_0060DB44
 0001:0020CB64 _Unit86.sub_0060DB64_0060DB64
 0001:0020CCD0 _Unit86.sub_0060DCD0_0060DCD0
 0001:0020CD04 _Unit86.sub_0060DD04_0060DD04
 0001:0020CD28 _Unit86.sub_0060DD28_0060DD28
 0001:0020CE08 _Unit86.sub_0060DE08_0060DE08
 0001:0020CE60 _Unit86.sub_0060DE60_0060DE60
 0001:0020CF44 _Unit86.sub_0060DF44_0060DF44
 0001:0020D008 _Unit86.sub_0060E008_0060E008
 0001:0020D09C _Unit86.sub_0060E09C_0060E09C
 0001:0020D204 _Unit86.TDX7Canvas.Create_0060E204
 0001:0020D258 _Unit86.TDX7Canvas.Destroy_0060E258
 0001:0020D29C _Unit86.sub_0060E29C_0060E29C
 0001:0020D2E8 _Unit86.sub_0060E2E8_0060E2E8
 0001:0020D31C _Unit86.sub_0060E31C_0060E31C
 0001:0020D33C _Unit86.sub_0060E33C_0060E33C
 0001:0020D3C4 _Unit86.sub_0060E3C4_0060E3C4
 0001:0020D3E4 _Unit86.sub_0060E3E4_0060E3E4
 0001:0020D540 _Unit86.sub_0060E540_0060E540
 0001:0020D55C _Unit86.sub_0060E55C_0060E55C
 0001:0020D570 _Unit86.sub_0060E570_0060E570
 0001:0020D58C _Unit86.sub_0060E58C_0060E58C
 0001:0020D5A0 _Unit86.sub_0060E5A0_0060E5A0
 0001:0020D5B4 _Unit86.sub_0060E5B4_0060E5B4
 0001:0020D5C8 _Unit86.sub_0060E5C8_0060E5C8
 0001:0020D648 _Unit86.sub_0060E648_0060E648
 0001:0020D6A4 _Unit86.sub_0060E6A4_0060E6A4
 0001:0020D708 _Unit86.sub_0060E708_0060E708
 0001:0020D78C _Unit86.sub_0060E78C_0060E78C
 0001:0020D7D8 _Unit86.sub_0060E7D8_0060E7D8
 0001:0020D830 _Unit86.sub_0060E830_0060E830
 0001:0020D8B8 _Unit86.sub_0060E8B8_0060E8B8
 0001:0020D978 _Unit86.sub_0060E978_0060E978
 0001:0020DA18 _Unit86.sub_0060EA18_0060EA18
 0001:0020DDB8 _Unit86.sub_0060EDB8_0060EDB8
 0001:0020DF40 _Unit86.sub_0060EF40_0060EF40
 0001:0020DF64 _Unit86.sub_0060EF64_0060EF64
 0001:0020DF94 _Unit86.sub_0060EF94_0060EF94
 0001:0020DFFC _Unit86.sub_0060EFFC_0060EFFC
 0001:0020E09C _Unit86.sub_0060F09C_0060F09C
 0001:0020E194 _Unit86.sub_0060F194_0060F194
 0001:0020E1CC _Unit86.sub_0060F1CC_0060F1CC
 0001:0020E5A4 _Unit86.TPixelSurface.Create_0060F5A4
 0001:0020E6A0 _Unit86.sub_0060F6A0_0060F6A0
 0001:0020E6E0 _Unit86.sub_0060F6E0_0060F6E0
 0001:0020E76C _Unit86.sub_0060F76C_0060F76C
 0001:0020E7F0 _Unit86.sub_0060F7F0_0060F7F0
 0001:0020E91C _Unit86.sub_0060F91C_0060F91C
 0001:0020EA70 _Unit86.sub_0060FA70_0060FA70
 0001:0020EAE4 _Unit86.TPixelSurfaces.Create_0060FAE4
 0001:0020EB64 _Unit86.sub_0060FB64_0060FB64
 0001:0020EBA4 _Unit86.sub_0060FBA4_0060FBA4
 0001:0020EC00 _Unit86.sub_0060FC00_0060FC00
 0001:0020EE50 _Unit86.sub_0060FE50_0060FE50
 0001:0020EEA4 _Unit86.TDX7LockableTexture.Create_0060FEA4
 0001:0020EF04 _Unit86.sub_0060FF04_0060FF04
 0001:0020EFBC _Unit86.sub_0060FFBC_0060FFBC
 0001:0020F06C _Unit86.sub_0061006C_0061006C
 0001:0020F09C _Unit86.sub_0061009C_0061009C
 0001:0020F0D8 _Unit86.sub_006100D8_006100D8
 0001:0020F0EC _Unit86.sub_006100EC_006100EC
 0001:0020F12C _Unit86.sub_0061012C_0061012C
 0001:0020F1F8 _Unit86.sub_006101F8_006101F8
 0001:0020F31C _Unit86.sub_0061031C_0061031C
 0001:0020F3E8 _Unit86.sub_006103E8_006103E8
 0001:0020F454 _Unit86.sub_00610454_00610454
 0001:0020F4A0 _Unit86.sub_006104A0_006104A0
 0001:0020F4F0 _Unit86.sub_006104F0_006104F0
 0001:0020F518 _Unit86.sub_00610518_00610518
 0001:0020F534 _Unit86.sub_00610534_00610534
 0001:0020F614 _Unit86.sub_00610614_00610614
 0001:0020F708 _Unit86.sub_00610708_00610708
 0001:0020F7BC _Unit86.TDX7RenderTargetTexture.Create_006107BC
 0001:0020F828 _Unit86.sub_00610828_00610828
 0001:0020F890 _Unit86.sub_00610890_00610890
 0001:0020F940 _Unit86.sub_00610940_00610940
 0001:0020F98C _Unit86.sub_0061098C_0061098C
 0001:0020F9C8 _Unit86.sub_006109C8_006109C8
 0001:0020F9DC _Unit86.sub_006109DC_006109DC
 0001:0020FA1C _Unit86.sub_00610A1C_00610A1C
 0001:0020FA30 _Unit86.sub_00610A30_00610A30
 0001:0020FA44 _Unit86.sub_00610A44_00610A44
 0001:0020FA60 _Unit86.sub_00610A60_00610A60
 0001:0020FB54 _Unit86.sub_00610B54_00610B54
 0001:0020FC84 _Unit86.TDX7Rasterizer.Create_00610C84
 0001:0020FCD8 _Unit86.TDX7Rasterizer.Destroy_00610CD8
 0001:0020FD1C _Unit86.sub_00610D1C_00610D1C
 0001:0020FD48 _Unit86.sub_00610D48_00610D48
 0001:0020FD68 _Unit86.sub_00610D68_00610D68
 0001:0020FDF0 _Unit86.sub_00610DF0_00610DF0
 0001:0020FE10 _Unit86.sub_00610E10_00610E10
 0001:00210064 _Unit86.sub_00611064_00611064
 0001:00210080 _Unit86.sub_00611080_00611080
 0001:00210094 _Unit86.sub_00611094_00611094
 0001:002100B0 _Unit86.sub_006110B0_006110B0
 0001:002100C4 _Unit86.sub_006110C4_006110C4
 0001:002100D8 _Unit86.sub_006110D8_006110D8
 0001:002100EC _Unit86.sub_006110EC_006110EC
 0001:0021016C _Unit86.sub_0061116C_0061116C
 0001:002101C8 _Unit86.sub_006111C8_006111C8
 0001:00210268 _Unit86.sub_00611268_00611268
 0001:002102A8 _Unit86.sub_006112A8_006112A8
 0001:00210320 _Unit86.sub_00611320_00611320
 0001:002105B0 _Unit86.sub_006115B0_006115B0
 0001:002106B0 _Unit86.sub_006116B0_006116B0
 0001:002106D4 _Unit86.sub_006116D4_006116D4
 0001:0021085C _Unit86.sub_0061185C_0061185C
 0001:00210878 _Unit86.sub_00611878_00611878
 0001:00210AD4 _Unit86.TDX7Provider.Create_00611AD4
 0001:00210B30 _Unit86.TDX7Provider.Destroy_00611B30
 0001:00210B74 _Unit86.sub_00611B74_00611B74
 0001:00210B94 _Unit86.sub_00611B94_00611B94
 0001:00210BB4 _Unit86.sub_00611BB4_00611BB4
 0001:00210BD4 _Unit86.sub_00611BD4_00611BD4
 0001:00210BF4 _Unit86.sub_00611BF4_00611BF4
 0001:00210C14 _Unit86.Finalization_00611C14
 0001:00210C3C _Unit87.sub_00611C3C_00611C3C
 0001:00210CDC _Unit87.sub_00611CDC_00611CDC
 0001:00210CF8 _Unit87.sub_00611CF8_00611CF8
 0001:00210D14 _Unit87.sub_00611D14_00611D14
 0001:00210D34 _Unit87.sub_00611D34_00611D34
 0001:00210E00 _Unit87.sub_00611E00_00611E00
 0001:00210E1C _Unit87.sub_00611E1C_00611E1C
 0001:00210E38 _Unit87.sub_00611E38_00611E38
 0001:00210E54 _Unit87.sub_00611E54_00611E54
 0001:00210EF4 _Unit87.sub_00611EF4_00611EF4
 0001:00210F10 _Unit87.sub_00611F10_00611F10
 0001:00210F2C _Unit87.sub_00611F2C_00611F2C
 0001:00210F50 _Unit87.sub_00611F50_00611F50
 0001:00210F78 _Unit87.sub_00611F78_00611F78
 0001:00210FA0 _Unit87.sub_00611FA0_00611FA0
 0001:00211034 _Unit87.sub_00612034_00612034
 0001:00211050 _Unit87.sub_00612050_00612050
 0001:0021106C _Unit87.sub_0061206C_0061206C
 0001:00211088 _Unit87.sub_00612088_00612088
 0001:002110AC _Unit87.sub_006120AC_006120AC
 0001:002110D0 _Unit87.sub_006120D0_006120D0
 0001:002110E8 _Unit87.sub_006120E8_006120E8
 0001:0021110C _Unit87.sub_0061210C_0061210C
 0001:00211120 _Unit87.sub_00612120_00612120
 0001:00211144 _Unit87.sub_00612144_00612144
 0001:00211154 _Unit87.sub_00612154_00612154
 0001:00211164 _Unit87.sub_00612164_00612164
 0001:00211174 _Unit87.sub_00612174_00612174
 0001:00211184 _Unit87.sub_00612184_00612184
 0001:002111A0 _Unit87.sub_006121A0_006121A0
 0001:002111F0 _Unit87.sub_006121F0_006121F0
 0001:0021120C _Unit87.sub_0061220C_0061220C
 0001:00211224 _Unit87.sub_00612224_00612224
 0001:0021123C _Unit87.sub_0061223C_0061223C
 0001:00211258 _Unit87.sub_00612258_00612258
 0001:0021126C _Unit87.sub_0061226C_0061226C
 0001:0021127C _Unit87.sub_0061227C_0061227C
 0001:00211290 _Unit87.sub_00612290_00612290
 0001:002112B8 _Unit87.sub_006122B8_006122B8
 0001:002112E0 _Unit87.sub_006122E0_006122E0
 0001:002112FC _Unit87.Finalization_006122FC
 0001:00211338 OverbyteIcsThreadTimer.sub_00612338_00612338
 0001:00211378 OverbyteIcsThreadTimer.sub_00612378_00612378
 0001:002113B0 OverbyteIcsThreadTimer.sub_006123B0_006123B0
 0001:002113C8 OverbyteIcsThreadTimer.sub_006123C8_006123C8
 0001:002114A8 OverbyteIcsThreadTimer.sub_006124A8_006124A8
 0001:0021155C OverbyteIcsThreadTimer.sub_0061255C_0061255C
 0001:002115B0 OverbyteIcsThreadTimer.sub_006125B0_006125B0
 0001:002115E8 OverbyteIcsThreadTimer.sub_006125E8_006125E8
 0001:00211624 OverbyteIcsThreadTimer.sub_00612624_00612624
 0001:00211674 OverbyteIcsThreadTimer.sub_00612674_00612674
 0001:002117B8 OverbyteIcsThreadTimer.sub_006127B8_006127B8
 0001:00211864 OverbyteIcsThreadTimer.sub_00612864_00612864
 0001:00211B98 OverbyteIcsThreadTimer.TIcsClockThread.Create_00612B98
 0001:00211C68 OverbyteIcsThreadTimer.TIcsClockThread.Destroy_00612C68
 0001:00211CD4 OverbyteIcsThreadTimer.TIcsClockThread.Execute_00612CD4
 0001:00211F24 OverbyteIcsThreadTimer.sub_00612F24_00612F24
 0001:00211F70 OverbyteIcsThreadTimer.TIcsClock.Create_00612F70
 0001:0021205C OverbyteIcsThreadTimer.sub_0061305C_0061305C
 0001:00212148 OverbyteIcsThreadTimer.sub_00613148_00613148
 0001:002122D0 OverbyteIcsThreadTimer.sub_006132D0_006132D0
 0001:00212330 OverbyteIcsThreadTimer.sub_00613330_00613330
 0001:0021239C OverbyteIcsThreadTimer.sub_0061339C_0061339C
 0001:00212420 OverbyteIcsThreadTimer.sub_00613420_00613420
 0001:00212578 OverbyteIcsThreadTimer.sub_00613578_00613578
 0001:0021262C OverbyteIcsThreadTimer.sub_0061362C_0061362C
 0001:002126E8 OverbyteIcsThreadTimer.TIcsThreadTimer.Create_006136E8
 0001:00212750 OverbyteIcsThreadTimer.TIcsThreadTimer.Destroy_00613750
 0001:002127A8 OverbyteIcsThreadTimer.sub_006137A8_006137A8
 0001:002127C4 OverbyteIcsThreadTimer.sub_006137C4_006137C4
 0001:00212828 OverbyteIcsThreadTimer.sub_00613828_00613828
 0001:002128A0 OverbyteIcsThreadTimer.Finalization_006138A0
 0001:00212FF4 OverbyteIcsWndControl.sub_00613FF4_00613FF4
 0001:00213060 OverbyteIcsWndControl.sub_00614060_00614060
 0001:002130CC OverbyteIcsWndControl.sub_006140CC_006140CC
 0001:002130E4 OverbyteIcsWndControl.sub_006140E4_006140E4
 0001:00213104 OverbyteIcsWndControl.sub_00614104_00614104
 0001:00213128 OverbyteIcsWndControl.sub_00614128_00614128
 0001:0021330C OverbyteIcsWndControl.sub_0061430C_0061430C
 0001:002133B0 OverbyteIcsWndControl.sub_006143B0_006143B0
 0001:00213430 OverbyteIcsWndControl.sub_00614430_00614430
 0001:002134B8 OverbyteIcsWndControl.sub_006144B8_006144B8
 0001:002134F8 OverbyteIcsWndControl.sub_006144F8_006144F8
 0001:0021354C OverbyteIcsWndControl.sub_0061454C_0061454C
 0001:00213568 OverbyteIcsWndControl.sub_00614568_00614568
 0001:002135AC OverbyteIcsWndControl.sub_006145AC_006145AC
 0001:002135D8 OverbyteIcsWndControl.TIcsWndControl.Create_006145D8
 0001:00213620 OverbyteIcsWndControl.TIcsWndControl.Destroy_00614620
 0001:0021365C OverbyteIcsWndControl.sub_0061465C_0061465C
 0001:00213688 OverbyteIcsWndControl.sub_00614688_00614688
 0001:002136B8 OverbyteIcsWndControl.sub_006146B8_006146B8
 0001:0021374C OverbyteIcsWndControl.sub_0061474C_0061474C
 0001:002137A4 OverbyteIcsWndControl.sub_006147A4_006147A4
 0001:0021388C OverbyteIcsWndControl.sub_0061488C_0061488C
 0001:002138C0 OverbyteIcsWndControl.sub_006148C0_006148C0
 0001:002138E4 OverbyteIcsWndControl.TWSocket.SetMultiThreaded_006148E4
 0001:00213900 OverbyteIcsWndControl.TWSocket.SetOnBgException_00614900
 0001:0021391C OverbyteIcsWndControl.sub_0061491C_0061491C
 0001:00213938 OverbyteIcsWndControl.sub_00614938_00614938
 0001:00213954 OverbyteIcsWndControl.sub_00614954_00614954
 0001:00213970 OverbyteIcsWndControl.sub_00614970_00614970
 0001:0021397C OverbyteIcsWndControl.sub_0061497C_0061497C
 0001:00213C90 OverbyteIcsWndControl.sub_00614C90_00614C90
 0001:00213D70 OverbyteIcsWndControl.sub_00614D70_00614D70
 0001:00213F0C OverbyteIcsWndControl.sub_00614F0C_00614F0C
 0001:00213F40 OverbyteIcsWndControl.sub_00614F40_00614F40
 0001:00213F78 OverbyteIcsWndControl.sub_00614F78_00614F78
 0001:00214148 OverbyteIcsWndControl.sub_00615148_00615148
 0001:00214280 OverbyteIcsWndControl.TIcsWndHandler.Create_00615280
 0001:002142E4 OverbyteIcsWndControl.sub_006152E4_006152E4
 0001:00214304 OverbyteIcsWndControl.TIcsWndHandlerPool.Create_00615304
 0001:002143B8 OverbyteIcsWndControl.sub_006153B8_006153B8
 0001:002145E4 OverbyteIcsWndControl.sub_006155E4_006155E4
 0001:00214684 OverbyteIcsWndControl.sub_00615684_00615684
 0001:0021469C OverbyteIcsWndControl.sub_0061569C_0061569C
 0001:002146B4 OverbyteIcsWndControl.sub_006156B4_006156B4
 0001:00214714 OverbyteIcsWndControl.sub_00615714_00615714
 0001:002147E8 OverbyteIcsWndControl.TIcsTimer.Destroy_006157E8
 0001:00214848 OverbyteIcsWndControl.TIcsTimer.SetEnabled_00615848
 0001:0021487C OverbyteIcsWndControl.TIcsTimer.SetInterval_0061587C
 0001:002148B0 OverbyteIcsWndControl.TIcsTimer.SetOnTimer_006158B0
 0001:002148DC OverbyteIcsWndControl.sub_006158DC_006158DC
 0001:00214948 OverbyteIcsWndControl.sub_00615948_00615948
 0001:002149FC OverbyteIcsWndControl.Finalization_006159FC
 0001:00214F78 OverbyteIcsLogger.TIcsLogger.Create_00615F78
 0001:00215024 OverbyteIcsLogger.TIcsLogger.Destroy_00616024
 0001:0021506C OverbyteIcsLogger.sub_0061606C_0061606C
 0001:002150BC OverbyteIcsLogger.sub_006160BC_006160BC
 0001:0021510C OverbyteIcsLogger.sub_0061610C_0061610C
 0001:00215134 OverbyteIcsLogger.sub_00616134_00616134
 0001:00215360 OverbyteIcsLogger.sub_00616360_00616360
 0001:00215394 OverbyteIcsLogger.sub_00616394_00616394
 0001:00215450 OverbyteIcsLogger.sub_00616450_00616450
 0001:00215638 OverbyteIcsLogger.TIcsLogger.SetLogFileName_00616638
 0001:002156C4 OverbyteIcsLogger.TIcsLogger.SetLogFileOption_006166C4
 0001:00215710 OverbyteIcsLogger.TIcsLogger.SetLogOptions_00616710
 0001:00215760 OverbyteIcsLogger.TIcsLogger.SetOnIcsLogEvent_00616760
 0001:002157B0 OverbyteIcsLogger.sub_006167B0_006167B0
 0001:002157C8 OverbyteIcsLogger.sub_006167C8_006167C8
 0001:002157E0 OverbyteIcsLogger.sub_006167E0_006167E0
 0001:00215828 OverbyteIcsLogger.Finalization_00616828
 0001:002159DC _Unit91.sub_006169DC_006169DC
 0001:00215FDC _Unit91.sub_00616FDC_00616FDC
 0001:00219850 _Unit91.Finalization_0061A850
 0001:002198F0 _Unit92.sub_0061A8F0_0061A8F0
 0001:00219AFC _Unit92.sub_0061AAFC_0061AAFC
 0001:00219B38 _Unit92.sub_0061AB38_0061AB38
 0001:00219BA8 _Unit92.sub_0061ABA8_0061ABA8
 0001:00219D54 _Unit92.sub_0061AD54_0061AD54
 0001:00219D74 _Unit92.Finalization_0061AD74
 0001:00219E0C _Unit93.sub_0061AE0C_0061AE0C
 0001:00219E50 _Unit93.sub_0061AE50_0061AE50
 0001:00219EAC _Unit93.sub_0061AEAC_0061AEAC
 0001:0021A078 _Unit93.sub_0061B078_0061B078
 0001:0021A0BC _Unit93.sub_0061B0BC_0061B0BC
 0001:0021A160 _Unit93.sub_0061B160_0061B160
 0001:0021A380 _Unit93.Finalization_0061B380
 0001:0021A4BC OverbyteIcsMD4.sub_0061B4BC_0061B4BC
 0001:0021A4EC OverbyteIcsMD4.sub_0061B4EC_0061B4EC
 0001:0021A538 OverbyteIcsMD4.sub_0061B538_0061B538
 0001:0021A578 OverbyteIcsMD4.sub_0061B578_0061B578
 0001:0021A6A4 OverbyteIcsMD4.sub_0061B6A4_0061B6A4
 0001:0021AE08 OverbyteIcsMD4.sub_0061BE08_0061BE08
 0001:0021AEC8 OverbyteIcsMD4.sub_0061BEC8_0061BEC8
 0001:0021AF18 OverbyteIcsMD4.sub_0061BF18_0061BF18
 0001:0021AF5C OverbyteIcsMD4.Finalization_0061BF5C
 0001:0021B040 _Unit95.sub_0061C040_0061C040
 0001:0021B0D0 _Unit95.sub_0061C0D0_0061C0D0
 0001:0021B0EC _Unit95.sub_0061C0EC_0061C0EC
 0001:0021B228 _Unit95.sub_0061C228_0061C228
 0001:0021B414 _Unit95.sub_0061C414_0061C414
 0001:0021B518 _Unit95.sub_0061C518_0061C518
 0001:0021B700 _Unit95.sub_0061C700_0061C700
 0001:0021BA70 _Unit95.sub_0061CA70_0061CA70
 0001:0021BD38 _Unit95.sub_0061CD38_0061CD38
 0001:0021BE14 _Unit95.sub_0061CE14_0061CE14
 0001:0021C0D4 _Unit95.sub_0061D0D4_0061D0D4
 0001:0021C780 _Unit95.Finalization_0061D780
 0001:0021C82C _Unit96.sub_0061D82C_0061D82C
 0001:0021CAB0 _Unit96.sub_0061DAB0_0061DAB0
 0001:0021CC5C _Unit96.sub_0061DC5C_0061DC5C
 0001:0021D160 _Unit96.sub_0061E160_0061E160
 0001:0021D380 _Unit96.sub_0061E380_0061E380
 0001:0021D798 _Unit96.Finalization_0061E798
 0001:0021DAAC OverbyteIcsWSockBuf.TIcsBuffer.Create_0061EAAC
 0001:0021DB0C OverbyteIcsWSockBuf.TIcsBuffer.Destroy_0061EB0C
 0001:0021DB58 OverbyteIcsWSockBuf.sub_0061EB58_0061EB58
 0001:0021DC34 OverbyteIcsWSockBuf.sub_0061EC34_0061EC34
 0001:0021DCA8 OverbyteIcsWSockBuf.sub_0061ECA8_0061ECA8
 0001:0021DCF0 OverbyteIcsWSockBuf.sub_0061ECF0_0061ECF0
 0001:0021DD64 OverbyteIcsWSockBuf.sub_0061ED64_0061ED64
 0001:0021DD84 OverbyteIcsWSockBuf.TIcsBufferHandler.Create_0061ED84
 0001:0021DE08 OverbyteIcsWSockBuf.TIcsBufferHandler.Destroy_0061EE08
 0001:0021DE88 OverbyteIcsWSockBuf.sub_0061EE88_0061EE88
 0001:0021DEF0 OverbyteIcsWSockBuf.sub_0061EEF0_0061EEF0
 0001:0021DFC0 OverbyteIcsWSockBuf.sub_0061EFC0_0061EFC0
 0001:0021E00C OverbyteIcsWSockBuf.sub_0061F00C_0061F00C
 0001:0021E05C OverbyteIcsWSockBuf.sub_0061F05C_0061F05C
 0001:0021E0B0 OverbyteIcsWSockBuf.sub_0061F0B0_0061F0B0
 0001:0021E0E8 OverbyteIcsWSockBuf.sub_0061F0E8_0061F0E8
 0001:0021E100 OverbyteIcsWSockBuf.sub_0061F100_0061F100
 0001:0021E118 OverbyteIcsWSockBuf.sub_0061F118_0061F118
 0001:0021E154 OverbyteIcsWSockBuf.sub_0061F154_0061F154
 0001:0021E2F4 OverbyteIcsWSockBuf.sub_0061F2F4_0061F2F4
 0001:0021E318 OverbyteIcsWSockBuf.sub_0061F318_0061F318
 0001:0021E3AC OverbyteIcsWSockBuf.Finalization_0061F3AC
 0001:00220D54 OverbyteIcsWSocket.sub_00621D54_00621D54
 0001:00220D78 OverbyteIcsWSocket.sub_00621D78_00621D78
 0001:00220EFC OverbyteIcsWSocket.sub_00621EFC_00621EFC
 0001:00220F3C OverbyteIcsWSocket.sub_00621F3C_00621F3C
 0001:00220F94 OverbyteIcsWSocket.sub_00621F94_00621F94
 0001:00220FD8 OverbyteIcsWSocket.sub_00621FD8_00621FD8
 0001:00221020 OverbyteIcsWSocket.sub_00622020_00622020
 0001:00221068 OverbyteIcsWSocket.sub_00622068_00622068
 0001:002210C4 OverbyteIcsWSocket.sub_006220C4_006220C4
 0001:00221138 OverbyteIcsWSocket.sub_00622138_00622138
 0001:002211B4 OverbyteIcsWSocket.sub_006221B4_006221B4
 0001:0022121C OverbyteIcsWSocket.sub_0062221C_0062221C
 0001:00221274 OverbyteIcsWSocket.sub_00622274_00622274
 0001:002212CC OverbyteIcsWSocket.sub_006222CC_006222CC
 0001:00221320 OverbyteIcsWSocket.sub_00622320_00622320
 0001:00221380 OverbyteIcsWSocket.sub_00622380_00622380
 0001:002213D4 OverbyteIcsWSocket.sub_006223D4_006223D4
 0001:0022142C OverbyteIcsWSocket.sub_0062242C_0062242C
 0001:00221480 OverbyteIcsWSocket.sub_00622480_00622480
 0001:002214E8 OverbyteIcsWSocket.sub_006224E8_006224E8
 0001:00221550 OverbyteIcsWSocket.sub_00622550_00622550
 0001:002215B8 OverbyteIcsWSocket.sub_006225B8_006225B8
 0001:00221620 OverbyteIcsWSocket.sub_00622620_00622620
 0001:00221688 OverbyteIcsWSocket.sub_00622688_00622688
 0001:002216F0 OverbyteIcsWSocket.sub_006226F0_006226F0
 0001:00221758 OverbyteIcsWSocket.sub_00622758_00622758
 0001:002217B8 OverbyteIcsWSocket.sub_006227B8_006227B8
 0001:00221804 OverbyteIcsWSocket.sub_00622804_00622804
 0001:00221854 OverbyteIcsWSocket.sub_00622854_00622854
 0001:002218B0 OverbyteIcsWSocket.sub_006228B0_006228B0
 0001:00221928 OverbyteIcsWSocket.sub_00622928_00622928
 0001:00221974 OverbyteIcsWSocket.sub_00622974_00622974
 0001:002219C8 OverbyteIcsWSocket.sub_006229C8_006229C8
 0001:00221A14 OverbyteIcsWSocket.sub_00622A14_00622A14
 0001:00221A70 OverbyteIcsWSocket.sub_00622A70_00622A70
 0001:00221ACC OverbyteIcsWSocket.sub_00622ACC_00622ACC
 0001:00221B24 OverbyteIcsWSocket.sub_00622B24_00622B24
 0001:00221B74 OverbyteIcsWSocket.sub_00622B74_00622B74
 0001:00221BCC OverbyteIcsWSocket.sub_00622BCC_00622BCC
 0001:00221C24 OverbyteIcsWSocket.sub_00622C24_00622C24
 0001:00221C84 OverbyteIcsWSocket.sub_00622C84_00622C84
 0001:00221CF0 OverbyteIcsWSocket.sub_00622CF0_00622CF0
 0001:00221E84 OverbyteIcsWSocket.sub_00622E84_00622E84
 0001:00222174 OverbyteIcsWSocket.sub_00623174_00623174
 0001:002223C4 OverbyteIcsWSocket.sub_006233C4_006233C4
 0001:002223E4 OverbyteIcsWSocket.sub_006233E4_006233E4
 0001:00222404 OverbyteIcsWSocket.sub_00623404_00623404
 0001:002224A4 OverbyteIcsWSocket.sub_006234A4_006234A4
 0001:00222504 OverbyteIcsWSocket.sub_00623504_00623504
 0001:00222564 OverbyteIcsWSocket.sub_00623564_00623564
 0001:002225D4 OverbyteIcsWSocket.sub_006235D4_006235D4
 0001:00222658 OverbyteIcsWSocket.sub_00623658_00623658
 0001:0022268C OverbyteIcsWSocket.TCustomWSocket.Notification_0062368C
 0001:002226CC OverbyteIcsWSocket.sub_006236CC_006236CC
 0001:00222840 OverbyteIcsWSocket.sub_00623840_00623840
 0001:00222888 OverbyteIcsWSocket.sub_00623888_00623888
 0001:002229C4 OverbyteIcsWSocket.sub_006239C4_006239C4
 0001:002229E4 OverbyteIcsWSocket.sub_006239E4_006239E4
 0001:00222A80 OverbyteIcsWSocket.sub_00623A80_00623A80
 0001:00222B14 OverbyteIcsWSocket.sub_00623B14_00623B14
 0001:00222B28 OverbyteIcsWSocket.sub_00623B28_00623B28
 0001:00222B3C OverbyteIcsWSocket.sub_00623B3C_00623B3C
 0001:00222B88 OverbyteIcsWSocket.sub_00623B88_00623B88
 0001:00222BD0 OverbyteIcsWSocket.TCustomWSocket.Create_00623BD0
 0001:00222D0C OverbyteIcsWSocket.TCustomWSocket.Destroy_00623D0C
 0001:00222E50 OverbyteIcsWSocket.sub_00623E50_00623E50
 0001:00222E8C OverbyteIcsWSocket.TWSocket.GetReqVerLow_00623E8C
 0001:00222EA4 OverbyteIcsWSocket.TWSocket.SetReqVerLow_00623EA4
 0001:00222F54 OverbyteIcsWSocket.TWSocket.GetReqVerHigh_00623F54
 0001:00222F6C OverbyteIcsWSocket.TWSocket.SetReqVerHigh_00623F6C
 0001:0022301C OverbyteIcsWSocket.sub_0062401C_0062401C
 0001:002232A8 OverbyteIcsWSocket.sub_006242A8_006242A8
 0001:00223304 OverbyteIcsWSocket.sub_00624304_00624304
 0001:00223324 OverbyteIcsWSocket.sub_00624324_00624324
 0001:00223344 OverbyteIcsWSocket.sub_00624344_00624344
 0001:002233C0 OverbyteIcsWSocket.sub_006243C0_006243C0
 0001:00223404 OverbyteIcsWSocket.sub_00624404_00624404
 0001:0022346C OverbyteIcsWSocket.sub_0062446C_0062446C
 0001:002234D0 OverbyteIcsWSocket.sub_006244D0_006244D0
 0001:00223534 OverbyteIcsWSocket.sub_00624534_00624534
 0001:00223558 OverbyteIcsWSocket.sub_00624558_00624558
 0001:002235E4 OverbyteIcsWSocket.sub_006245E4_006245E4
 0001:00223604 OverbyteIcsWSocket.sub_00624604_00624604
 0001:0022364C OverbyteIcsWSocket.sub_0062464C_0062464C
 0001:002236C4 OverbyteIcsWSocket.sub_006246C4_006246C4
 0001:00223788 OverbyteIcsWSocket.sub_00624788_00624788
 0001:00223848 OverbyteIcsWSocket.sub_00624848_00624848
 0001:00223AC0 OverbyteIcsWSocket.sub_00624AC0_00624AC0
 0001:00223B0C OverbyteIcsWSocket.sub_00624B0C_00624B0C
 0001:00223B74 OverbyteIcsWSocket.sub_00624B74_00624B74
 0001:00223BD8 OverbyteIcsWSocket.sub_00624BD8_00624BD8
 0001:00223C60 OverbyteIcsWSocket.sub_00624C60_00624C60
 0001:00223D48 OverbyteIcsWSocket.sub_00624D48_00624D48
 0001:00223D74 OverbyteIcsWSocket.sub_00624D74_00624D74
 0001:00223DE0 OverbyteIcsWSocket.sub_00624DE0_00624DE0
 0001:00223E44 OverbyteIcsWSocket.sub_00624E44_00624E44
 0001:00223E98 OverbyteIcsWSocket.sub_00624E98_00624E98
 0001:00223EC0 OverbyteIcsWSocket.sub_00624EC0_00624EC0
 0001:00223EEC OverbyteIcsWSocket.sub_00624EEC_00624EEC
 0001:0022401C OverbyteIcsWSocket.sub_0062501C_0062501C
 0001:00224084 OverbyteIcsWSocket.sub_00625084_00625084
 0001:002240E0 OverbyteIcsWSocket.sub_006250E0_006250E0
 0001:00224120 OverbyteIcsWSocket.sub_00625120_00625120
 0001:002241AC OverbyteIcsWSocket.sub_006251AC_006251AC
 0001:002241D4 OverbyteIcsWSocket.sub_006251D4_006251D4
 0001:00224304 OverbyteIcsWSocket.sub_00625304_00625304
 0001:00224398 OverbyteIcsWSocket.sub_00625398_00625398
 0001:00224414 OverbyteIcsWSocket.sub_00625414_00625414
 0001:00224500 OverbyteIcsWSocket.sub_00625500_00625500
 0001:002245DC OverbyteIcsWSocket.TWSocket.SetProto_006255DC
 0001:00224718 OverbyteIcsWSocket.TWSocket.SetPort_00625718
 0001:00224854 OverbyteIcsWSocket.TWSocket.GetPort_00625854
 0001:00224878 OverbyteIcsWSocket.TWSocket.SetLocalPort_00625878
 0001:00224918 OverbyteIcsWSocket.TWSocket.SetLocalAddr_00625918
 0001:00224A28 OverbyteIcsWSocket.sub_00625A28_00625A28
 0001:00224AAC OverbyteIcsWSocket.sub_00625AAC_00625AAC
 0001:00224B28 OverbyteIcsWSocket.TWSocket.SetAddr_00625B28
 0001:00224C64 OverbyteIcsWSocket.sub_00625C64_00625C64
 0001:00224F34 OverbyteIcsWSocket.sub_00625F34_00625F34
 0001:00225198 OverbyteIcsWSocket.sub_00626198_00626198
 0001:00225420 OverbyteIcsWSocket.sub_00626420_00626420
 0001:00225450 OverbyteIcsWSocket.sub_00626450_00626450
 0001:002254F8 OverbyteIcsWSocket.sub_006264F8_006264F8
 0001:002255A0 OverbyteIcsWSocket.sub_006265A0_006265A0
 0001:002255E4 OverbyteIcsWSocket.sub_006265E4_006265E4
 0001:00225690 OverbyteIcsWSocket.sub_00626690_00626690
 0001:002256A4 OverbyteIcsWSocket.sub_006266A4_006266A4
 0001:00225964 OverbyteIcsWSocket.sub_00626964_00626964
 0001:00225BC0 OverbyteIcsWSocket.sub_00626BC0_00626BC0
 0001:00225DDC OverbyteIcsWSocket.sub_00626DDC_00626DDC
 0001:00225FD8 OverbyteIcsWSocket.sub_00626FD8_00626FD8
 0001:00226254 OverbyteIcsWSocket.sub_00627254_00627254
 0001:0022636C OverbyteIcsWSocket.sub_0062736C_0062736C
 0001:0022652C OverbyteIcsWSocket.sub_0062752C_0062752C
 0001:00227124 OverbyteIcsWSocket.sub_00628124_00628124
 0001:00227ABC OverbyteIcsWSocket.sub_00628ABC_00628ABC
 0001:00227C88 OverbyteIcsWSocket.sub_00628C88_00628C88
 0001:00227CB8 OverbyteIcsWSocket.sub_00628CB8_00628CB8
 0001:00227CF8 OverbyteIcsWSocket.sub_00628CF8_00628CF8
 0001:00227E20 OverbyteIcsWSocket.sub_00628E20_00628E20
 0001:00227E90 OverbyteIcsWSocket.sub_00628E90_00628E90
 0001:00227EA8 OverbyteIcsWSocket.sub_00628EA8_00628EA8
 0001:00227F08 OverbyteIcsWSocket.sub_00628F08_00628F08
 0001:00227F24 OverbyteIcsWSocket.sub_00628F24_00628F24
 0001:00227F4C OverbyteIcsWSocket.sub_00628F4C_00628F4C
 0001:00227F68 OverbyteIcsWSocket.sub_00628F68_00628F68
 0001:00227FA4 OverbyteIcsWSocket.sub_00628FA4_00628FA4
 0001:00228144 OverbyteIcsWSocket.sub_00629144_00629144
 0001:002281F0 OverbyteIcsWSocket.sub_006291F0_006291F0
 0001:0022826C OverbyteIcsWSocket.sub_0062926C_0062926C
 0001:0022829C OverbyteIcsWSocket.sub_0062929C_0062929C
 0001:002282E8 OverbyteIcsWSocket.sub_006292E8_006292E8
 0001:00228308 OverbyteIcsWSocket.TWSocket.SetSendFlags_00629308
 0001:0022837C OverbyteIcsWSocket.TWSocket.GetSendFlags_0062937C
 0001:00228400 OverbyteIcsWSocket.sub_00629400_00629400
 0001:00228434 OverbyteIcsWSocket.sub_00629434_00629434
 0001:0022846C OverbyteIcsWSocket.sub_0062946C_0062946C
 0001:002284B8 OverbyteIcsWSocket.sub_006294B8_006294B8
 0001:0022851C OverbyteIcsWSocket.sub_0062951C_0062951C
 0001:00228554 OverbyteIcsWSocket.sub_00629554_00629554
 0001:00228598 OverbyteIcsWSocket.sub_00629598_00629598
 0001:002286A4 OverbyteIcsWSocket.sub_006296A4_006296A4
 0001:002286D0 OverbyteIcsWSocket.sub_006296D0_006296D0
 0001:00228708 OverbyteIcsWSocket.sub_00629708_00629708
 0001:00228744 OverbyteIcsWSocket.sub_00629744_00629744
 0001:00228888 OverbyteIcsWSocket.sub_00629888_00629888
 0001:002288CC OverbyteIcsWSocket.sub_006298CC_006298CC
 0001:00228904 OverbyteIcsWSocket.TWSocket.SetIcsLogger_00629904
 0001:0022895C OverbyteIcsWSocket.sub_0062995C_0062995C
 0001:002289F0 OverbyteIcsWSocket.sub_006299F0_006299F0
 0001:00228A84 OverbyteIcsWSocket.sub_00629A84_00629A84
 0001:00228FD8 OverbyteIcsWSocket.sub_00629FD8_00629FD8
 0001:0022A228 OverbyteIcsWSocket.sub_0062B228_0062B228
 0001:0022A3F4 OverbyteIcsWSocket.sub_0062B3F4_0062B3F4
 0001:0022A520 OverbyteIcsWSocket.sub_0062B520_0062B520
 0001:0022A5D0 OverbyteIcsWSocket.sub_0062B5D0_0062B5D0
 0001:0022B7C4 OverbyteIcsWSocket.sub_0062C7C4_0062C7C4
 0001:0022B864 OverbyteIcsWSocket.sub_0062C864_0062C864
 0001:0022B904 OverbyteIcsWSocket.TCustomSocksWSocket.Create_0062C904
 0001:0022B968 OverbyteIcsWSocket.sub_0062C968_0062C968
 0001:0022B9E0 OverbyteIcsWSocket.TWSocket.SetSocksLevel_0062C9E0
 0001:0022BBB8 OverbyteIcsWSocket.TWSocket.SetSocksPort_0062CBB8
 0001:0022BCD4 OverbyteIcsWSocket.TWSocket.GetSocksServer_0062CCD4
 0001:0022BCF8 OverbyteIcsWSocket.TWSocket.SetSocksServer_0062CCF8
 0001:0022BEC0 OverbyteIcsWSocket.sub_0062CEC0_0062CEC0
 0001:0022BF5C OverbyteIcsWSocket.sub_0062CF5C_0062CF5C
 0001:0022C240 OverbyteIcsWSocket.sub_0062D240_0062D240
 0001:0022C304 OverbyteIcsWSocket.sub_0062D304_0062D304
 0001:0022C390 OverbyteIcsWSocket.sub_0062D390_0062D390
 0001:0022C3C8 OverbyteIcsWSocket.sub_0062D3C8_0062D3C8
 0001:0022C438 OverbyteIcsWSocket.sub_0062D438_0062D438
 0001:0022C46C OverbyteIcsWSocket.sub_0062D46C_0062D46C
 0001:0022C630 OverbyteIcsWSocket.sub_0062D630_0062D630
 0001:0022CA90 OverbyteIcsWSocket.sub_0062DA90_0062DA90
 0001:0022CB14 OverbyteIcsWSocket.sub_0062DB14_0062DB14
 0001:0022D7C4 OverbyteIcsWSocket.sub_0062E7C4_0062E7C4
 0001:0022D7FC OverbyteIcsWSocket.sub_0062E7FC_0062E7FC
 0001:0022D8C8 OverbyteIcsWSocket.TCustomLineWSocket.Create_0062E8C8
 0001:0022D954 OverbyteIcsWSocket.TCustomLineWSocket.Destroy_0062E954
 0001:0022D9C0 OverbyteIcsWSocket.sub_0062E9C0_0062E9C0
 0001:0022DA3C OverbyteIcsWSocket.sub_0062EA3C_0062EA3C
 0001:0022DAA4 OverbyteIcsWSocket.TCustomLineWSocket.SetLineMode_0062EAA4
 0001:0022DB04 OverbyteIcsWSocket.sub_0062EB04_0062EB04
 0001:0022DB74 OverbyteIcsWSocket.sub_0062EB74_0062EB74
 0001:0022DBE0 OverbyteIcsWSocket.sub_0062EBE0_0062EBE0
 0001:0022DC4C OverbyteIcsWSocket.sub_0062EC4C_0062EC4C
 0001:0022DC84 OverbyteIcsWSocket.sub_0062EC84_0062EC84
 0001:0022DE34 OverbyteIcsWSocket.sub_0062EE34_0062EE34
 0001:0022E0E8 OverbyteIcsWSocket.sub_0062F0E8_0062F0E8
 0001:0022E124 OverbyteIcsWSocket.sub_0062F124_0062F124
 0001:0022E5F8 OverbyteIcsWSocket.sub_0062F5F8_0062F5F8
 0001:0022E620 OverbyteIcsWSocket.sub_0062F620_0062F620
 0001:0022E6EC OverbyteIcsWSocket.sub_0062F6EC_0062F6EC
 0001:0022E768 OverbyteIcsWSocket.sub_0062F768_0062F768
 0001:0022E7A4 OverbyteIcsWSocket.TCustomTimeoutWSocket.Create_0062F7A4
 0001:0022E900 OverbyteIcsWSocket.sub_0062F900_0062F900
 0001:0022E94C OverbyteIcsWSocket.sub_0062F94C_0062F94C
 0001:0022EA20 OverbyteIcsWSocket.sub_0062FA20_0062FA20
 0001:0022EA48 OverbyteIcsWSocket.sub_0062FA48_0062FA48
 0001:0022EA78 OverbyteIcsWSocket.sub_0062FA78_0062FA78
 0001:0022EAB0 OverbyteIcsWSocket.sub_0062FAB0_0062FAB0
 0001:0022EB0C OverbyteIcsWSocket.sub_0062FB0C_0062FB0C
 0001:0022EB34 OverbyteIcsWSocket.sub_0062FB34_0062FB34
 0001:0022EB78 OverbyteIcsWSocket.sub_0062FB78_0062FB78
 0001:0022EBAC OverbyteIcsWSocket.TCustomThrottledWSocket.Create_0062FBAC
 0001:0022EC0C OverbyteIcsWSocket.sub_0062FC0C_0062FC0C
 0001:0022EC44 OverbyteIcsWSocket.sub_0062FC44_0062FC44
 0001:0022ECA0 OverbyteIcsWSocket.sub_0062FCA0_0062FCA0
 0001:0022ECBC OverbyteIcsWSocket.sub_0062FCBC_0062FCBC
 0001:0022EF7C OverbyteIcsWSocket.sub_0062FF7C_0062FF7C
 0001:0022F134 OverbyteIcsWSocket.sub_00630134_00630134
 0001:0022F448 OverbyteIcsWSocket.sub_00630448_00630448
 0001:0022F48C OverbyteIcsWSocket.sub_0063048C_0063048C
 0001:0022F4E8 OverbyteIcsWSocket.sub_006304E8_006304E8
 0001:0022F514 OverbyteIcsWSocket.sub_00630514_00630514
 0001:0022F594 OverbyteIcsWSocket.sub_00630594_00630594
 0001:0022F8D0 OverbyteIcsWSocket.TCustomHttpTunnelWSocket.Create_006308D0
 0001:0022F924 OverbyteIcsWSocket.sub_00630924_00630924
 0001:0022F954 OverbyteIcsWSocket.sub_00630954_00630954
 0001:0022F98C OverbyteIcsWSocket.sub_0063098C_0063098C
 0001:0022F9B4 OverbyteIcsWSocket.sub_006309B4_006309B4
 0001:0022FAD0 OverbyteIcsWSocket.TWSocket.GetHttpTunnelServer_00630AD0
 0001:0022FAF4 OverbyteIcsWSocket.TWSocket.GetHttpTunnelPort_00630AF4
 0001:0022FB18 OverbyteIcsWSocket.sub_00630B18_00630B18
 0001:0022FC78 OverbyteIcsWSocket.sub_00630C78_00630C78
 0001:0022FCF0 OverbyteIcsWSocket.sub_00630CF0_00630CF0
 0001:0022FEA4 OverbyteIcsWSocket.sub_00630EA4_00630EA4
 0001:002300A4 OverbyteIcsWSocket.sub_006310A4_006310A4
 0001:002302C0 OverbyteIcsWSocket.sub_006312C0_006312C0
 0001:00230444 OverbyteIcsWSocket.sub_00631444_00631444
 0001:002305C8 OverbyteIcsWSocket.sub_006315C8_006315C8
 0001:00230888 OverbyteIcsWSocket.sub_00631888_00631888
 0001:00230EA8 OverbyteIcsWSocket.sub_00631EA8_00631EA8
 0001:00230F60 OverbyteIcsWSocket.sub_00631F60_00631F60
 0001:00231008 OverbyteIcsWSocket.sub_00632008_00632008
 0001:00231024 OverbyteIcsWSocket.sub_00632024_00632024
 0001:00231048 OverbyteIcsWSocket.TWSocket.SetHttpTunnelAuthType_00632048
 0001:00231128 OverbyteIcsWSocket.TWSocket.SetHttpTunnelPassword_00632128
 0001:0023120C OverbyteIcsWSocket.TWSocket.SetHttpTunnelPort_0063220C
 0001:00231354 OverbyteIcsWSocket.TWSocket.SetHttpTunnelServer_00632354
 0001:00231544 OverbyteIcsWSocket.TWSocket.SetHttpTunnelUsercode_00632544
 0001:00231628 OverbyteIcsWSocket.sub_00632628_00632628
 0001:00231CF4 OverbyteIcsWSocket.sub_00632CF4_00632CF4
 0001:00231DA8 OverbyteIcsWSocket.sub_00632DA8_00632DA8
 0001:00231DE0 OverbyteIcsWSocket.sub_00632DE0_00632DE0
 0001:00231ED0 OverbyteIcsWSocket.sub_00632ED0_00632ED0
 0001:00232034 OverbyteIcsWSocket.sub_00633034_00633034
 0001:002320D4 OverbyteIcsWSocket.sub_006330D4_006330D4
 0001:00232150 OverbyteIcsWSocket.Finalization_00633150
 0001:0023223C _Unit99.Finalization_0063323C
 0001:002323DC uLocalMessageer.sub_006333DC_006333DC
 0001:00232414 uLocalMessageer.sub_00633414_00633414
 0001:00232484 uLocalMessageer.sub_00633484_00633484
 0001:0023256C uLocalMessageer.sub_0063356C_0063356C
 0001:002325D0 uLocalMessageer.TLocalMessageer.Create_006335D0
 0001:00232C8C uLocalMessageer.sub_00633C8C_00633C8C
 0001:002333F8 uLocalMessageer.sub_006343F8_006343F8
 0001:00233420 uLocalMessageer.sub_00634420_00634420
 0001:00233E20 uLocalMessageer.Finalization_00634E20
 0001:00233E5C _Unit101.sub_00634E5C_00634E5C
 0001:00233EBC _Unit101.sub_00634EBC_00634EBC
 0001:00234210 _Unit101.TSMBios.Create_00635210
 0001:00234308 _Unit101.sub_00635308_00635308
 0001:00234328 _Unit101.sub_00635328_00635328
 0001:00234344 _Unit101.sub_00635344_00635344
 0001:002343B0 _Unit101.sub_006353B0_006353B0
 0001:00234420 _Unit101.sub_00635420_00635420
 0001:00234524 _Unit101.sub_00635524_00635524
 0001:00234A58 _Unit101.sub_00635A58_00635A58
 0001:00234B90 _Unit101.sub_00635B90_00635B90
 0001:00235574 _Unit101.sub_00636574_00636574
 0001:0023572C _Unit101.sub_0063672C_0063672C
 0001:002358E4 _Unit101.sub_006368E4_006368E4
 0001:00235950 _Unit101.sub_00636950_00636950
 0001:00235FAC _Unit101.sub_00636FAC_00636FAC
 0001:00235FD8 _Unit101.sub_00636FD8_00636FD8
 0001:00236064 _Unit101.sub_00637064_00637064
 0001:0023607C _Unit101.sub_0063707C_0063707C
 0001:00236094 _Unit101.sub_00637094_00637094
 0001:0023628C _Unit101.sub_0063728C_0063728C
 0001:0023638C _Unit101.sub_0063738C_0063738C
 0001:002363BC _Unit101.sub_006373BC_006373BC
 0001:00236510 _Unit101.sub_00637510_00637510
 0001:002366FC _Unit101.sub_006376FC_006376FC
 0001:00236784 _Unit101.sub_00637784_00637784
 0001:002368B4 _Unit101.sub_006378B4_006378B4
 0001:002369C0 _Unit101.sub_006379C0_006379C0
 0001:00236A80 _Unit101.sub_00637A80_00637A80
 0001:00236B10 _Unit101.sub_00637B10_00637B10
 0001:00236B84 _Unit101.sub_00637B84_00637B84
 0001:00236C08 _Unit101.TFrmMain.FormCreate_00637C08
 0001:002380C4 _Unit101.sub_006390C4_006390C4
 0001:00238554 _Unit101.sub_00639554_00639554
 0001:00238574 _Unit101.TFrmMain.WMSysCommand_00639574
 0001:002385C8 _Unit101.TFrmMain.FormDestroy_006395C8
 0001:002388A0 _Unit101.TFrmMain.DXDraw1Finalize_006398A0
 0001:002388B0 _Unit101.TFrmMain.FormClose_006398B0
 0001:00238984 _Unit101.sub_00639984_00639984
 0001:002389A8 _Unit101.sub_006399A8_006399A8
 0001:00238B58 _Unit101.sub_00639B58_00639B58
 0001:00238CBC _Unit101.sub_00639CBC_00639CBC
 0001:00238D3C _Unit101.sub_00639D3C_00639D3C
 0001:002391E4 _Unit101.sub_0063A1E4_0063A1E4
 0001:0023929C _Unit101.sub_0063A29C_0063A29C
 0001:00239818 _Unit101.TFrmMain.FormKeyDown_0063A818
 0001:0023A0A8 _Unit101.TFrmMain.FormKeyPress_0063B0A8
 0001:0023AC38 _Unit101.sub_0063BC38_0063BC38
 0001:0023AC94 _Unit101.sub_0063BC94_0063BC94
 0001:0023ACF0 _Unit101.sub_0063BCF0_0063BCF0
 0001:0023B364 _Unit101.sub_0063C364_0063C364
 0001:0023B9D8 _Unit101.sub_0063C9D8_0063C9D8
 0001:0023BA84 _Unit101.sub_0063CA84_0063CA84
 0001:0023BAE8 _Unit101.sub_0063CAE8_0063CAE8
 0001:0023BB30 _Unit101.sub_0063CB30_0063CB30
 0001:0023C0D4 _Unit101.sub_0063D0D4_0063D0D4
 0001:0023C158 _Unit101.sub_0063D158_0063D158
 0001:0023C558 _Unit101.sub_0063D558_0063D558
 0001:0023C780 _Unit101.sub_0063D780_0063D780
 0001:0023C914 _Unit101.sub_0063D914_0063D914
 0001:0023CE0C _Unit101.sub_0063DE0C_0063DE0C
 0001:0023CE48 _Unit101.sub_0063DE48_0063DE48
 0001:0023D04C _Unit101.sub_0063E04C_0063E04C
 0001:0023D73C _Unit101.''_0063E73C
 0001:0023D8D8 _Unit101.sub_0063E8D8_0063E8D8
 0001:0023D97C _Unit101.sub_0063E97C_0063E97C
 0001:0023DA3C _Unit101.sub_0063EA3C_0063EA3C
 0001:0023DB04 _Unit101.sub_0063EB04_0063EB04
 0001:0023DBF4 _Unit101.sub_0063EBF4_0063EBF4
 0001:0023DCD0 _Unit101.sub_0063ECD0_0063ECD0
 0001:0023DD5C _Unit101.sub_0063ED5C_0063ED5C
 0001:0023DEB4 _Unit101.sub_0063EEB4_0063EEB4
 0001:0023E14C _Unit101.TFrmMain.DXDraw1MouseMove_0063F14C
 0001:0023E47C _Unit101.TFrmMain.DXDraw1MouseDown_0063F47C
 0001:0023E4D8 _Unit101.sub_0063F4D8_0063F4D8
 0001:0023E8CC _Unit101.sub_0063F8CC_0063F8CC
 0001:0023F2A0 _Unit101.TFrmMain.DXDraw1DblClick_006402A0
 0001:0023F2E8 _Unit101.sub_006402E8_006402E8
 0001:0023F350 _Unit101.TFrmMain.DXDraw1MouseUp_00640350
 0001:0023F3A0 _Unit101.TFrmMain.DXDraw1Click_006403A0
 0001:0023F3E8 _Unit101.sub_006403E8_006403E8
 0001:0023F420 _Unit101.TFrmMain.MouseTimerTimer_00640420
 0001:0023FB64 _Unit101.']2'_00640B64
 0001:0023FB84 _Unit101.']1'_00640B84
 0001:0023FBE0 _Unit101.TFrmMain.WaitMsgTimerTimer_00640BE0
 0001:0023FE78 _Unit101.sub_00640E78_00640E78
 0001:00240140 _Unit101.']2'_00641140
 0001:00240160 _Unit101.']1'_00641160
 0001:002401A4 _Unit101.TFrmMain.SelChrWaitTimerTimer_006411A4
 0001:002401CC _Unit101.sub_006411CC_006411CC
 0001:002401F8 _Unit101.TFrmMain.CmdTimerTimer_006411F8
 0001:002403E4 _Unit101.sub_006413E4_006413E4
 0001:00240964 _Unit101.sub_00641964_00641964
 0001:002409B4 _Unit101.sub_006419B4_006419B4
 0001:00240CA4 _Unit101.sub_00641CA4_00641CA4
 0001:00240F14 _Unit101.TFrmMain.CSocketConnect_00641F14
 0001:00241230 _Unit101.TFrmMain.CSocketDisconnect_00642230
 0001:002412DC _Unit101.TFrmMain.CSocketError_006422DC
 0001:00241300 _Unit101.TFrmMain.CSocketRead_00642300
 0001:00241428 _Unit101.sub_00642428_00642428
 0001:00241524 _Unit101.sub_00642524_00642524
 0001:002415B8 _Unit101.sub_006425B8_006425B8
 0001:00241690 _Unit101.sub_00642690_00642690
 0001:002417C0 _Unit101.sub_006427C0_006427C0
 0001:00241904 _Unit101.sub_00642904_00642904
 0001:00241A48 _Unit101.sub_00642A48_00642A48
 0001:00241B14 _Unit101.sub_00642B14_00642B14
 0001:00241C40 _Unit101.sub_00642C40_00642C40
 0001:00241D90 _Unit101.sub_00642D90_00642D90
 0001:00241EA4 _Unit101.sub_00642EA4_00642EA4
 0001:00241F7C _Unit101.sub_00642F7C_00642F7C
 0001:002420FC _Unit101.sub_006430FC_006430FC
 0001:002424A0 _Unit101.sub_006434A0_006434A0
 0001:00242B30 _Unit101.sub_00643B30_00643B30
 0001:00242C88 _Unit101.sub_00643C88_00643C88
 0001:00242D4C _Unit101.sub_00643D4C_00643D4C
 0001:00242DE0 _Unit101.sub_00643DE0_00643DE0
 0001:00242EB0 _Unit101.sub_00643EB0_00643EB0
 0001:00242F84 _Unit101.sub_00643F84_00643F84
 0001:0024301C _Unit101.sub_0064401C_0064401C
 0001:002430F4 _Unit101.sub_006440F4_006440F4
 0001:002431CC _Unit101.sub_006441CC_006441CC
 0001:002432AC _Unit101.sub_006442AC_006442AC
 0001:002433C8 _Unit101.sub_006443C8_006443C8
 0001:002434E4 _Unit101.sub_006444E4_006444E4
 0001:00243548 _Unit101.sub_00644548_00644548
 0001:002435AC _Unit101.sub_006445AC_006445AC
 0001:00243640 _Unit101.sub_00644640_00644640
 0001:002436D0 _Unit101.sub_006446D0_006446D0
 0001:00243E60 _Unit101.sub_00644E60_00644E60
 0001:00243F3C _Unit101.sub_00644F3C_00644F3C
 0001:00244018 _Unit101.sub_00645018_00645018
 0001:002440F8 _Unit101.sub_006450F8_006450F8
 0001:002441D4 _Unit101.sub_006451D4_006451D4
 0001:002442EC _Unit101.sub_006452EC_006452EC
 0001:002443CC _Unit101.sub_006453CC_006453CC
 0001:002444AC _Unit101.sub_006454AC_006454AC
 0001:00244580 _Unit101.sub_00645580_00645580
 0001:00244608 _Unit101.sub_00645608_00645608
 0001:002446D4 _Unit101.sub_006456D4_006456D4
 0001:002447A8 _Unit101.sub_006457A8_006457A8
 0001:00244840 _Unit101.sub_00645840_00645840
 0001:002448D8 _Unit101.sub_006458D8_006458D8
 0001:00244970 _Unit101.sub_00645970_00645970
 0001:002449F4 _Unit101.sub_006459F4_006459F4
 0001:00244AD4 _Unit101.sub_00645AD4_00645AD4
 0001:00244B6C _Unit101.sub_00645B6C_00645B6C
 0001:00244C4C _Unit101.sub_00645C4C_00645C4C
 0001:00244D1C _Unit101.sub_00645D1C_00645D1C
 0001:00244DEC _Unit101.sub_00645DEC_00645DEC
 0001:00244EBC _Unit101.sub_00645EBC_00645EBC
 0001:00244F44 _Unit101.sub_00645F44_00645F44
 0001:00244FF4 _Unit101.sub_00645FF4_00645FF4
 0001:002450C4 _Unit101.sub_006460C4_006460C4
 0001:00245148 _Unit101.sub_00646148_00646148
 0001:0024520C _Unit101.sub_0064620C_0064620C
 0001:00245290 _Unit101.sub_00646290_00646290
 0001:00245314 _Unit101.sub_00646314_00646314
 0001:0024541C _Unit101.sub_0064641C_0064641C
 0001:00245524 _Unit101.sub_00646524_00646524
 0001:002455AC _Unit101.sub_006465AC_006465AC
 0001:00245630 _Unit101.sub_00646630_00646630
 0001:00245700 _Unit101.sub_00646700_00646700
 0001:002457D0 _Unit101.sub_006467D0_006467D0
 0001:00245854 _Unit101.sub_00646854_00646854
 0001:002458D8 _Unit101.sub_006468D8_006468D8
 0001:002459BC _Unit101.sub_006469BC_006469BC
 0001:00245AA0 _Unit101.sub_00646AA0_00646AA0
 0001:00245B6C _Unit101.sub_00646B6C_00646B6C
 0001:00245C40 _Unit101.sub_00646C40_00646C40
 0001:00245D10 _Unit101.sub_00646D10_00646D10
 0001:00245D98 _Unit101.sub_00646D98_00646D98
 0001:00245E1C _Unit101.sub_00646E1C_00646E1C
 0001:00245EEC _Unit101.sub_00646EEC_00646EEC
 0001:00245FB8 _Unit101.sub_00646FB8_00646FB8
 0001:00246040 _Unit101.sub_00647040_00647040
 0001:00246100 _Unit101.sub_00647100_00647100
 0001:00246144 _Unit101.sub_00647144_00647144
 0001:002461B8 _Unit101.sub_006471B8_006471B8
 0001:0024622C _Unit101.sub_0064722C_0064722C
 0001:002462E0 _Unit101.sub_006472E0_006472E0
 0001:00246320 _Unit101.sub_00647320_00647320
 0001:0024638C _Unit101.TFrmMain.LoadingTimmerTimer_0064738C
 0001:002463D0 _Unit101.sub_006473D0_006473D0
 0001:00246470 _Unit101.TFrmMain.Timer1Timer_00647470
 0001:002466CC _Unit101.TFrmMain.MsgProg_006476CC
 0001:00246924 _Unit101.sub_00647924_00647924
 0001:00246980 _Unit101.sub_00647980_00647980
 0001:00246AA0 _Unit101.sub_00647AA0_00647AA0
 0001:00246B14 _Unit101.sub_00647B14_00647B14
 0001:00246B68 _Unit101.sub_00647B68_00647B68
 0001:00246BA0 _Unit101.sub_00647BA0_00647BA0
 0001:00246C28 _Unit101.sub_00647C28_00647C28
 0001:00246D4C _Unit101.sub_00647D4C_00647D4C
 0001:00247034 _Unit101.sub_00648034_00648034
 0001:00247070 _Unit101.sub_00648070_00648070
 0001:00247248 _Unit101.sub_00648248_00648248
 0001:002473C0 _Unit101.sub_006483C0_006483C0
 0001:00247578 _Unit101.sub_00648578_00648578
 0001:00247644 _Unit101.sub_00648644_00648644
 0001:00247770 _Unit101.sub_00648770_00648770
 0001:00247C18 _Unit101.sub_00648C18_00648C18
 0001:00248370 _Unit101.sub_00649370_00649370
 0001:00248680 _Unit101.TFrmMain.MusicTimeTimer_00649680
 0001:00248EC4 _Unit101.sub_00649EC4_00649EC4
 0001:00249130 _Unit101.sub_0064A130_0064A130
 0001:002491B4 _Unit101.sub_0064A1B4_0064A1B4
 0001:00249218 _Unit101.sub_0064A218_0064A218
 0001:002492E4 _Unit101.sub_0064A2E4_0064A2E4
 0001:002493FC _Unit101.sub_0064A3FC_0064A3FC
 0001:002541DC _Unit101.sub_006551DC_006551DC
 0001:00254AF4 _Unit101.sub_00655AF4_00655AF4
 0001:00254DB4 _Unit101.sub_00655DB4_00655DB4
 0001:00254E08 _Unit101.sub_00655E08_00655E08
 0001:00254E9C _Unit101.sub_00655E9C_00655E9C
 0001:00255138 _Unit101.sub_00656138_00656138
 0001:0025532C _Unit101.sub_0065632C_0065632C
 0001:002556B0 _Unit101.sub_006566B0_006566B0
 0001:0025578C _Unit101.sub_0065678C_0065678C
 0001:002558B4 _Unit101.sub_006568B4_006568B4
 0001:00255AA4 _Unit101.sub_00656AA4_00656AA4
 0001:00255B98 _Unit101.sub_00656B98_00656B98
 0001:00255C2C _Unit101.sub_00656C2C_00656C2C
 0001:00255D84 _Unit101.sub_00656D84_00656D84
 0001:00255F48 _Unit101.sub_00656F48_00656F48
 0001:00256110 _Unit101.sub_00657110_00657110
 0001:002561D4 _Unit101.sub_006571D4_006571D4
 0001:002563F8 _Unit101.sub_006573F8_006573F8
 0001:00256468 _Unit101.sub_00657468_00657468
 0001:00256758 _Unit101.sub_00657758_00657758
 0001:002567C8 _Unit101.sub_006577C8_006577C8
 0001:00256BF0 _Unit101.']2'_00657BF0
 0001:00256C10 _Unit101.']1'_00657C10
 0001:00256C54 _Unit101.sub_00657C54_00657C54
 0001:00256CE0 _Unit101.sub_00657CE0_00657CE0
 0001:00256D48 _Unit101.sub_00657D48_00657D48
 0001:00256EB8 _Unit101.sub_00657EB8_00657EB8
 0001:00256F28 _Unit101.sub_00657F28_00657F28
 0001:00256F4C _Unit101.sub_00657F4C_00657F4C
 0001:00256FBC _Unit101.sub_00657FBC_00657FBC
 0001:0025709C _Unit101.sub_0065809C_0065809C
 0001:002572F8 _Unit101.sub_006582F8_006582F8
 0001:00257544 _Unit101.sub_00658544_00658544
 0001:0025781C _Unit101.sub_0065881C_0065881C
 0001:00257B68 _Unit101.sub_00658B68_00658B68
 0001:00257E00 _Unit101.sub_00658E00_00658E00
 0001:00258060 _Unit101.sub_00659060_00659060
 0001:002582C0 _Unit101.sub_006592C0_006592C0
 0001:00258300 _Unit101.sub_00659300_00659300
 0001:00258340 _Unit101.sub_00659340_00659340
 0001:00258380 _Unit101.sub_00659380_00659380
 0001:002583C0 _Unit101.sub_006593C0_006593C0
 0001:002585F0 _Unit101.sub_006595F0_006595F0
 0001:00258828 _Unit101.sub_00659828_00659828
 0001:00258960 _Unit101.sub_00659960_00659960
 0001:00258A80 _Unit101.sub_00659A80_00659A80
 0001:00258FDC _Unit101.sub_00659FDC_00659FDC
 0001:002593A4 _Unit101.TFrmMain.MinTimerTimer_0065A3A4
 0001:00259608 _Unit101.sub_0065A608_0065A608
 0001:0025968C _Unit101.sub_0065A68C_0065A68C
 0001:002596BC _Unit101.sub_0065A6BC_0065A6BC
 0001:00259938 _Unit101.sub_0065A938_0065A938
 0001:002599E0 _Unit101.sub_0065A9E0_0065A9E0
 0001:00259B38 _Unit101.TFrmMain.CheckHackTimerTimer_0065AB38
 0001:00259C80 _Unit101.sub_0065AC80_0065AC80
 0001:00259CEC _Unit101.sub_0065ACEC_0065ACEC
 0001:00259D60 _Unit101.sub_0065AD60_0065AD60
 0001:00259DF4 _Unit101.sub_0065ADF4_0065ADF4
 0001:00259E88 _Unit101.sub_0065AE88_0065AE88
 0001:00259EB8 _Unit101.sub_0065AEB8_0065AEB8
 0001:00259F44 _Unit101.sub_0065AF44_0065AF44
 0001:0025A044 _Unit101.TFrmMain.SendTimeTimerTimer_0065B044
 0001:0025A054 _Unit101.sub_0065B054_0065B054
 0001:0025A110 _Unit101.sub_0065B110_0065B110
 0001:0025A2D4 _Unit101.sub_0065B2D4_0065B2D4
 0001:0025A364 _Unit101.sub_0065B364_0065B364
 0001:0025A4C4 _Unit101.sub_0065B4C4_0065B4C4
 0001:0025A65C _Unit101.sub_0065B65C_0065B65C
 0001:0025A8F0 _Unit101.sub_0065B8F0_0065B8F0
 0001:0025ABEC _Unit101.sub_0065BBEC_0065BBEC
 0001:0025AC90 _Unit101.sub_0065BC90_0065BC90
 0001:0025ACE0 _Unit101.sub_0065BCE0_0065BCE0
 0001:0025AEC4 _Unit101.sub_0065BEC4_0065BEC4
 0001:0025AFE4 _Unit101.sub_0065BFE4_0065BFE4
 0001:0025B0E8 _Unit101.sub_0065C0E8_0065C0E8
 0001:0025B190 _Unit101.sub_0065C190_0065C190
 0001:0025B284 _Unit101.sub_0065C284_0065C284
 0001:0025B2DC _Unit101.sub_0065C2DC_0065C2DC
 0001:0025B5F8 _Unit101.sub_0065C5F8_0065C5F8
 0001:0025B63C _Unit101.sub_0065C63C_0065C63C
 0001:0025B9EC _Unit101.sub_0065C9EC_0065C9EC
 0001:0025C744 _Unit101.sub_0065D744_0065D744
 0001:0025C824 _Unit101.sub_0065D824_0065D824
 0001:0025C8F4 _Unit101.sub_0065D8F4_0065D8F4
 0001:0025C9C0 _Unit101.sub_0065D9C0_0065D9C0
 0001:0025CA8C _Unit101.sub_0065DA8C_0065DA8C
 0001:0025CB1C _Unit101.sub_0065DB1C_0065DB1C
 0001:0025CBAC _Unit101.sub_0065DBAC_0065DBAC
 0001:0025CC38 _Unit101.sub_0065DC38_0065DC38
 0001:0025CD08 _Unit101.sub_0065DD08_0065DD08
 0001:0025CDD4 _Unit101.sub_0065DDD4_0065DDD4
 0001:0025CEDC _Unit101.sub_0065DEDC_0065DEDC
 0001:0025CFAC _Unit101.sub_0065DFAC_0065DFAC
 0001:0025D078 _Unit101.sub_0065E078_0065E078
 0001:0025D148 _Unit101.sub_0065E148_0065E148
 0001:0025D218 _Unit101.sub_0065E218_0065E218
 0001:0025D29C _Unit101.sub_0065E29C_0065E29C
 0001:0025D320 _Unit101.sub_0065E320_0065E320
 0001:0025D3EC _Unit101.TFrmMain.DelitemProg_0065E3EC
 0001:0025DA3C _Unit101.TFrmMain.RunTimerTimer_0065EA3C
 0001:0025DA88 _Unit101.TFrmMain.MainCancelItemMoving_0065EA88
 0001:0025DAA0 _Unit101.TFrmMain.MediaPlayer1Notify_0065EAA0
 0001:0025DAFC _Unit101.TFrmMain.FormKeyUp_0065EAFC
 0001:0025DE24 _Unit101.TFrmMain.FormShow_0065EE24
 0001:0025DE34 _Unit101.sub_0065EE34_0065EE34
 0001:0025DFF4 _Unit101.sub_0065EFF4_0065EFF4
 0001:0025ECB4 _Unit101.sub_0065FCB4_0065FCB4
 0001:0025ED38 _Unit101.sub_0065FD38_0065FD38
 0001:0025EF0C _Unit101.TFrmMain.WMMove_0065FF0C
 0001:0025EF44 _Unit101.TFrmMain.FormCloseQuery_0065FF44
 0001:0025F160 _Unit101.sub_00660160_00660160
 0001:0025F7A8 _Unit101.sub_006607A8_006607A8
 0001:0025F8E4 _Unit101.sub_006608E4_006608E4
 0001:0025F900 _Unit101.sub_00660900_00660900
 0001:0025FA00 _Unit101.TFrmMain.CreateParams_00660A00
 0001:0025FA6C _Unit101.sub_00660A6C_00660A6C
 0001:0025FB5C _Unit101.Finalization_00660B5C
 0001:0025FCC8 ZC.Finalization_00660CC8
 0001:00269000 System_0066A000
 0001:002690AC sub_0066A0AC_0066A0AC
 0001:002690C4 sub_0066A0C4_0066A0C4
 0001:002690E4 sub_0066A0E4_0066A0E4
 0001:002690EC sub_0066A0EC_0066A0EC
 0001:002690F4 sub_0066A0F4_0066A0F4
 0001:00269104 sub_0066A104_0066A104
 0001:002691A8 sub_0066A1A8_0066A1A8
 0001:002691B8 Variants_0066A1B8
 0001:00269264 sub_0066A264_0066A264
 0001:0026926C sub_0066A26C_0066A26C
 0001:00269288 Classes_0066A288
 0001:00269318 sub_0066A318_0066A318
 0001:0026934C SyncObjs_0066A34C
 0001:0026935C sub_0066A35C_0066A35C
 0001:002697B4 sub_0066A7B4_0066A7B4
 0001:002697BC sub_0066A7BC_0066A7BC
 0001:002697C4 sub_0066A7C4_0066A7C4
 0001:002697CC Graphics_0066A7CC
 0001:002698C8 sub_0066A8C8_0066A8C8
 0001:002698E4 ActnList_0066A8E4
 0001:00269910 Controls_0066A910
 0001:00269998 sub_0066A998_0066A998
 0001:002699A0 Menus_0066A9A0
 0001:00269A28 sub_0066AA28_0066AA28
 0001:00269A30 sub_0066AA30_0066AA30
 0001:00269A40 sub_0066AA40_0066AA40
 0001:00269A48 sub_0066AA48_0066AA48
 0001:00269AD0 ExtCtrls_0066AAD0
 0001:00269B24 ComCtrls_0066AB24
 0001:00269B60 Dialogs_0066AB60
 0001:00269BA0 Clipbrd_0066ABA0
 0001:00269C18 Forms_0066AC18
 0001:00269C74 sub_0066AC74_0066AC74
 0001:00269C94 sub_0066AC94_0066AC94
 0001:00269D84 sub_0066AD84_0066AD84
 0001:00269DA4 sub_0066ADA4_0066ADA4
 0001:00269DC4 sub_0066ADC4_0066ADC4
 0001:00269DE4 sub_0066ADE4_0066ADE4
 0001:00269DEC sub_0066ADEC_0066ADEC
 0001:00269E0C sub_0066AE0C_0066AE0C
 0001:00269E2C sub_0066AE2C_0066AE2C
 0001:00269E4C sub_0066AE4C_0066AE4C
 0001:00269E6C sub_0066AE6C_0066AE6C
 0001:00269E8C sub_0066AE8C_0066AE8C
 0001:00269EA0 sub_0066AEA0_0066AEA0
 0001:00269EB4 sub_0066AEB4_0066AEB4
 0001:00269EBC sub_0066AEBC_0066AEBC
 0001:00269ED0 sub_0066AED0_0066AED0
 0001:00269EE4 sub_0066AEE4_0066AEE4
 0001:00269EEC sub_0066AEEC_0066AEEC
 0001:00269F00 sub_0066AF00_0066AF00
 0001:00269F14 pngimage_0066AF14
 0001:00269FA0 sub_0066AFA0_0066AFA0
 0001:0026A030 sub_0066B030_0066B030
 0001:0026A050 sub_0066B050_0066B050
 0001:0026A064 sub_0066B064_0066B064
 0001:0026A06C sub_0066B06C_0066B06C
 0001:0026A074 sub_0066B074_0066B074
 0001:0026A254 sub_0066B254_0066B254
 0001:0026A25C sub_0066B25C_0066B25C
 0001:0026A294 sub_0066B294_0066B294
 0001:0026A3C4 sub_0066B3C4_0066B3C4
 0001:0026A3E4 sub_0066B3E4_0066B3E4
 0001:0026A3F0 ComObj_0066B3F0
 0001:0026A448 sub_0066B448_0066B448
 0001:0026A450 AxCtrls_0066B450
 0001:0026A474 OleCtrls_0066B474
 0001:0026A490 Buttons_0066B490
 0001:0026A4B8 OleServer_0066B4B8
 0001:0026A4D4 sub_0066B4D4_0066B4D4
 0001:0026A4EC sub_0066B4EC_0066B4EC
 0001:0026A4F4 sub_0066B4F4_0066B4F4
 0001:0026A4FC sub_0066B4FC_0066B4FC
 0001:0026A5A0 sub_0066B5A0_0066B5A0
 0001:0026A5C0 sub_0066B5C0_0066B5C0
 0001:0026A6D4 jpeg_0066B6D4
 0001:0026A794 sub_0066B794_0066B794
 0001:0026A79C sub_0066B79C_0066B79C
 0001:0026A7A8 sub_0066B7A8_0066B7A8
 0001:0026A7C8 sub_0066B7C8_0066B7C8
 0001:0026A7E8 sub_0066B7E8_0066B7E8
 0001:0026A808 sub_0066B808_0066B808
 0001:0026AA18 sub_0066BA18_0066BA18
 0001:0026AA94 sub_0066BA94_0066BA94
 0001:0026AA9C sub_0066BA9C_0066BA9C
 0001:0026AABC sub_0066BABC_0066BABC
 0001:0026AAC4 sub_0066BAC4_0066BAC4
 0001:0026AB78 sub_0066BB78_0066BB78
 0001:0026ABA4 sub_0066BBA4_0066BBA4
 0001:0026ABAC sub_0066BBAC_0066BBAC
 0001:0026ABE4 sub_0066BBE4_0066BBE4
 0001:0026ABEC sub_0066BBEC_0066BBEC
 0001:0026ABF4 sub_0066BBF4_0066BBF4
 0001:0026ABFC sub_0066BBFC_0066BBFC
 0001:0026AC04 sub_0066BC04_0066BC04
 0001:0026AC0C sub_0066BC0C_0066BC0C
 0001:0026AC14 sub_0066BC14_0066BC14
 0001:0026AC48 sub_0066BC48_0066BC48
 0001:0026AC50 sub_0066BC50_0066BC50
 0001:0026AC58 sub_0066BC58_0066BC58
 0001:0026AC60 EntryPoint_0066BC60
 0001:0026C9F8 TMediaPlayer.Save_0066D9F8

Program entry point at 0001:0026AC60
